
CH570D-ADC-Soil.elf:     file format elf32-littleriscv
CH570D-ADC-Soil.elf
architecture: riscv:rv32, flags 0x00000112:
EXEC_P, HAS_SYMS, D_PAGED
start address 0x00000000

Program Header:
0x70000003 off    0x0000d6ea vaddr 0x00000000 paddr 0x00000000 align 2**0
         filesz 0x00000051 memsz 0x00000000 flags r--
    LOAD off    0x00001000 vaddr 0x00000000 paddr 0x00000000 align 2**12
         filesz 0x00000004 memsz 0x00000004 flags r-x
    LOAD off    0x00002000 vaddr 0x20000000 paddr 0x00000004 align 2**12
         filesz 0x00000694 memsz 0x00000694 flags r-x
    LOAD off    0x00002698 vaddr 0x00000698 paddr 0x00000698 align 2**12
         filesz 0x000017ea memsz 0x000017ec flags rwx
    LOAD off    0x00004694 vaddr 0x20000694 paddr 0x00001e84 align 2**12
         filesz 0x00000070 memsz 0x0000008c flags rw-

Sections:
Idx Name                 Size      VMA       LMA       File off  Algn  Flags
  0 .init                00000004  00000000  00000000  00001000  2**1  CONTENTS, ALLOC, LOAD, READONLY, CODE
  1 .highcode_initlalign 00000000  00000004  00000004  00004704  2**0  CONTENTS
  2 .highcodelalign      00000000  00000004  00000004  00004704  2**0  CONTENTS
  3 .highcode            00000694  20000000  00000004  00002000  2**1  CONTENTS, ALLOC, LOAD, READONLY, CODE
  4 .text                000017e8  00000698  00000698  00002698  2**2  CONTENTS, ALLOC, LOAD, READONLY, CODE
  5 .vector_handler      00000002  00001e80  00001e80  00003e80  2**0  CONTENTS, ALLOC, LOAD, READONLY, CODE
  6 .fini                00000002  00001e82  00001e82  00003e82  2**0  ALLOC, CODE
  7 .dlalign             00000000  00001e84  00001e84  00004704  2**0  CONTENTS
  8 .data                00000070  20000694  00001e84  00004694  2**2  CONTENTS, ALLOC, LOAD, DATA
  9 .bss                 0000001c  20000704  00001ef4  00004704  2**2  ALLOC
 10 .stack               00000000  20003000  20003000  00004704  2**0  CONTENTS
 11 .debug_info          000025cb  00000000  00000000  00004704  2**0  CONTENTS, READONLY, DEBUGGING, OCTETS
 12 .debug_abbrev        00000b5a  00000000  00000000  00006ccf  2**0  CONTENTS, READONLY, DEBUGGING, OCTETS
 13 .debug_loclists      00000ff0  00000000  00000000  00007829  2**0  CONTENTS, READONLY, DEBUGGING, OCTETS
 14 .debug_aranges       00000230  00000000  00000000  00008820  2**3  CONTENTS, READONLY, DEBUGGING, OCTETS
 15 .debug_rnglists      000002f9  00000000  00000000  00008a50  2**0  CONTENTS, READONLY, DEBUGGING, OCTETS
 16 .debug_line          00003609  00000000  00000000  00008d49  2**0  CONTENTS, READONLY, DEBUGGING, OCTETS
 17 .debug_str           00000ecd  00000000  00000000  0000c352  2**0  CONTENTS, READONLY, DEBUGGING, OCTETS
 18 .debug_line_str      00000467  00000000  00000000  0000d21f  2**0  CONTENTS, READONLY, DEBUGGING, OCTETS
 19 .comment             00000064  00000000  00000000  0000d686  2**0  CONTENTS, READONLY
 20 .riscv.attributes    00000051  00000000  00000000  0000d6ea  2**0  CONTENTS, READONLY
 21 .debug_frame         00000488  00000000  00000000  0000d73c  2**2  CONTENTS, READONLY, DEBUGGING, OCTETS
SYMBOL TABLE:
00000000 l    d  .init	00000000 .init
00000004 l    d  .highcode_initlalign	00000000 .highcode_initlalign
00000004 l    d  .highcodelalign	00000000 .highcodelalign
20000000 l    d  .highcode	00000000 .highcode
00000698 l    d  .text	00000000 .text
00001e80 l    d  .vector_handler	00000000 .vector_handler
00001e82 l    d  .fini	00000000 .fini
00001e84 l    d  .dlalign	00000000 .dlalign
20000694 l    d  .data	00000000 .data
20000704 l    d  .bss	00000000 .bss
20003000 l    d  .stack	00000000 .stack
00000000 l    d  .debug_info	00000000 .debug_info
00000000 l    d  .debug_abbrev	00000000 .debug_abbrev
00000000 l    d  .debug_loclists	00000000 .debug_loclists
00000000 l    d  .debug_aranges	00000000 .debug_aranges
00000000 l    d  .debug_rnglists	00000000 .debug_rnglists
00000000 l    d  .debug_line	00000000 .debug_line
00000000 l    d  .debug_str	00000000 .debug_str
00000000 l    d  .debug_line_str	00000000 .debug_line_str
00000000 l    d  .comment	00000000 .comment
00000000 l    d  .riscv.attributes	00000000 .riscv.attributes
00000000 l    d  .debug_frame	00000000 .debug_frame
00000000 l    df *ABS*	00000000 startup_CH572.o
00001e80 l       .vector_handler	00000000 ENDOCE_IRQHandler
00000000 l    df *ABS*	00000000 CH57x_sys.c
200006f8 l     O .data	00000004 curbrk.0
00000000 l    df *ABS*	00000000 ISP572.c
200003c8 l       .highcode	00000000 .loop52
200003d6 l       .highcode	00000000 .loop63
200003e4 l       .highcode	00000000 .loop74
200004e4 l       .highcode	00000000 .loop247
00000000 l    df *ABS*	00000000 lib_a-memset.o
00000000 l    df *ABS*	00000000 Main.c
00000000 l    df *ABS*	00000000 CH57x_clk.c
00000000 l    df *ABS*	00000000 CH57x_cmp.c
00000000 l    df *ABS*	00000000 CH57x_gpio.c
00000000 l    df *ABS*	00000000 CH57x_uart.c
00000000 l    df *ABS*	00000000 lib_a-printf.o
00000000 l    df *ABS*	00000000 lib_a-wbuf.o
00000000 l    df *ABS*	00000000 lib_a-wsetup.o
00000000 l    df *ABS*	00000000 lib_a-fflush.o
00000000 l    df *ABS*	00000000 lib_a-findfp.o
00000f6a l     F .text	00000066 std
00000000 l    df *ABS*	00000000 lib_a-fwalk.o
00000000 l    df *ABS*	00000000 lib_a-lock.o
00000000 l    df *ABS*	00000000 lib_a-makebuf.o
00000000 l    df *ABS*	00000000 lib_a-nano-freer.o
00000000 l    df *ABS*	00000000 lib_a-nano-mallocr.o
0000133c l     F .text	00000054 sbrk_aligned
00000000 l    df *ABS*	00000000 lib_a-nano-vfprintf.o
00001492 l     F .text	00000028 __sfputc_r
00000000 l    df *ABS*	00000000 lib_a-sbrkr.o
00000000 l    df *ABS*	00000000 lib_a-stdio.o
00000000 l    df *ABS*	00000000 lib_a-writer.o
00000000 l    df *ABS*	00000000 lib_a-closer.o
00000000 l    df *ABS*	00000000 lib_a-fstatr.o
00000000 l    df *ABS*	00000000 lib_a-isattyr.o
00000000 l    df *ABS*	00000000 lib_a-lseekr.o
00000000 l    df *ABS*	00000000 lib_a-memchr.o
00000000 l    df *ABS*	00000000 lib_a-mlock.o
00000000 l    df *ABS*	00000000 lib_a-nano-vfprintf_i.o
00000000 l    df *ABS*	00000000 lib_a-readr.o
00000000 l    df *ABS*	00000000 close.o
00000000 l    df *ABS*	00000000 fstat.o
00000000 l    df *ABS*	00000000 isatty.o
00000000 l    df *ABS*	00000000 lseek.o
00000000 l    df *ABS*	00000000 read.o
00000000 l    df *ABS*	00000000 lib_a-impure.o
20000694 l     O .data	00000060 impure_data
000018ee g     F .text	00000026 _isatty_r
00001914 g     F .text	0000002a _lseek_r
200003e4 g     F .highcode	0000000e FLASH_ROM_OUT
00001e80  w      .vector_handler	00000000 CMP_IRQHandler
00000bc6 g     F .text	0000003e printf
20000ef8 g       .data	00000000 __global_pointer$
00001840 g     F .text	0000002e __sseek
00001038 g     F .text	00000068 __sinit
00000c04 g     F .text	000000bc __swbuf_r
20000354 g     F .highcode	0000000e mDelayuS
200002d0  w    F .highcode	00000084 HardFault_Handler
00000fda g     F .text	00000046 __sfmoreglue
0000195e g     F .text	00000008 __malloc_unlock
00001e80  w      .vector_handler	00000000 GPIOA_IRQHandler
00001e80  w      .vector_handler	00000000 SysTick_Handler
00001e80  w      .vector_handler	00000000 NMI_Handler
00001e80  w      .vector_handler	00000000 UART_IRQHandler
000018c6 g     F .text	00000028 _fstat_r
2000071c g     O .bss	00000004 errno
200004a8 g     F .highcode	00000060 FLASH_CMD_ROM_WRITE
20000704 g       .bss	00000000 _sbss
200003d6 g     F .highcode	0000000e FLASH_ROM_IN
00000a36 g     F .text	00000032 UART_DefInit
00000878 g     F .text	00000050 HSECFG_Capacitance
00000fd0 g     F .text	0000000a _cleanup_r
00001e80  w      .vector_handler	00000000 SWI_Handler
00001d1e g     F .text	0000000c _fstat
00000004 g       .init	00000000 _einit
00001e80  w      .vector_handler	00000000 BB_IRQHandler
00000a90 g     F .text	00000136 FLASH_EEPROM_CMD
00001e80  w      .vector_handler	00000000 Break_Point_Handler
20000472 g     F .highcode	00000036 FLASH_START
000017a8 g     F .text	00000028 _sbrk_r
00001ce8 g     F .text	0000002a _read_r
200003b4 g     F .highcode	00000014 FLASH_ROM_BEG
20000508 g     F .highcode	00000072 FLASH_CMD_ROM_ERASE
20000362 g     F .highcode	0000001e mDelaymS
00001e80  w      .vector_handler	00000000 Ecall_M_Mode_Handler
00001d2a g     F .text	0000000c _isatty
20000710 g     O .bss	00000001 __lock___sinit_recursive_mutex
20000700 g     O .data	00000004 _global_impure_ptr
200003f2 g     F .highcode	00000048 FLASH_ROM_ADDR
000008c8 g     F .text	00000014 CMP_Init
000009de g     F .text	00000028 _sbrk
00001e80  w      .vector_handler	00000000 RTC_IRQHandler
20000720 g       .bss	00000000 _ebss
00001e80  w      .vector_handler	00000000 SPI_IRQHandler
20000708 g     O .bss	00000001 __lock___malloc_recursive_mutex
2000043a g     F .highcode	00000038 FLASH_ROM_WAIT
00000a68 g     F .text	00000028 UART_Remap
00001d8c g     O .text	00000020 __sf_fake_stderr
20000000 g       .highcode	00000000 _vector_base
000011b2 g     F .text	00000002 __retarget_lock_release_recursive
00001e80  w      .vector_handler	00000000 PWMX_IRQHandler
000014ba g     F .text	00000040 __sfputs_r
00001020 g     F .text	00000006 __sfp_lock_acquire
0000193e g     F .text	00000018 memchr
0000129e g     F .text	0000009e _free_r
00000000 g       .init	00000000 _start
00001d36 g     F .text	0000000c _lseek
20000000 g       .highcode	00000000 _highcode_vma_start
000018a0 g     F .text	00000026 _close_r
00001e80  w      .vector_handler	00000000 KEYSCAN_IRQHandler
20000694 g       .data	00000000 _data_vma
20000090 g     F .highcode	00000240 SetSysClock
00001e80  w      .vector_handler	00000000 USB_IRQHandler
00000cc0 g     F .text	000000f2 __swsetup_r
2000063c g     F .highcode	0000003e FLASH_CMD_GET_UNIQUE_ID
000010a0 g     F .text	000000a6 __sfp
200005ca g     F .highcode	00000012 FLASH_CMD_ROM_PWR
00001032 g     F .text	00000006 __sinit_lock_release
000017d0 g     F .text	0000002a __sread
00001956 g     F .text	00000008 __malloc_lock
00000ee4 g     F .text	00000086 _fflush_r
00001dcc g     O .text	00000020 __sf_fake_stdin
000011b0 g     F .text	00000002 __retarget_lock_acquire_recursive
00001e80  w      .vector_handler	00000000 I2C_IRQHandler
0000074a g     F .text	00000010 memset
00000812 g     F .text	00000066 main
000011ae g     F .text	00000002 __retarget_lock_init_recursive
0000186e g     F .text	00000006 __sclose
0000075a g     F .text	000000b8 ADC_Moisture_Sample
00001390 g     F .text	00000102 _malloc_r
00000004 g       .highcodelalign	00000000 _highcode_lma
00000bc6 g     F .text	0000003e iprintf
00001e80  w      .vector_handler	00000000 LLE_IRQHandler
00000000 g       .init	00000000 _sinit
00001874 g     F .text	0000002c _write_r
2000067a g     F .highcode	0000001a FLASH_CMD_ROM_SW_RESET
00001e80  w      .vector_handler	00000000 TMR_IRQHandler
00001966 g     F .text	0000010a _printf_common
200006fc g     O .data	00000004 _impure_ptr
00000db2 g     F .text	00000132 __sflush_r
20000704 g     O .bss	00000004 Freq_LSI
00001e80  w      .vector_handler	00000000 WDOG_BAT_IRQHandler
00001e80  w      .vector_handler	00000000 Ecall_U_Mode_Handler
20003000 g       .stack	00000000 _eusrstack
000008dc g     F .text	00000082 GPIOA_ModeCfg
000011b4 g     F .text	00000058 __swhatbuf_r
0000095e g     F .text	0000005a GetSysClock
20000380 g     F .highcode	00000034 FLASH_ROM_BEG_FF
200005dc g     F .highcode	00000060 FLASH_CMD_GET_ROM_INFO
000009b8 g     F .text	00000026 _write
20000704 g       .data	00000000 _edata
20000720 g       .bss	00000000 _end
20000694 g       .highcode	00000000 _highcode_vma_end
00001e84 g       .dlalign	00000000 _data_lma
000017fa g     F .text	00000046 __swrite
000014fa g     F .text	000002ae _vfiprintf_r
00001146 g     F .text	00000068 _fwalk_reent
00001026 g     F .text	00000006 __sfp_lock_release
00001dac g     O .text	00000020 __sf_fake_stdout
00001d42 g     F .text	0000000c _read
00000698  w      .text	00000000 handle_reset
0000120c g     F .text	00000092 __smakebuf_r
00001a70 g     F .text	00000278 _printf_i
20000714 g     O .bss	00000004 __malloc_sbrk_start
00000a06 g     F .text	00000030 UART_BaudRateCfg
200003c8 g     F .highcode	0000000e FLASH_ROM_END
20000718 g     O .bss	00000004 __malloc_free_list
000014fa g     F .text	000002ae _vfprintf_r
2000057a g     F .highcode	00000050 FLASH_CMD_ROM_VERIFY
2000070c g     O .bss	00000001 __lock___sfp_recursive_mutex
00001d12 g     F .text	0000000c _close
0000102c g     F .text	00000006 __sinit_lock_acquire



Disassembly of section .init:

00000000 <_sinit>:
_start():
c:\Users\seanw\mounriver-studio-projects\CH570D-ADC-Soil\obj/../Startup/startup_CH572.S:18
	.section	.init,"ax",@progbits
	.global	_start
 	.global	_vector_base
	.align	1
_start:
	j	handle_reset
   0:	6980006f          	j	698 <handle_reset>

Disassembly of section .highcode:

20000000 <_highcode_vma_start>:
	...
_vector_base():
20000008:	00001e80          	.word	0x00001e80
2000000c:	200002d0          	.word	0x200002d0
20000010:	f3f9bda9          	.word	0xf3f9bda9
20000014:	00001e80          	.word	0x00001e80
	...
20000020:	00001e80          	.word	0x00001e80
20000024:	00001e80          	.word	0x00001e80
	...
20000030:	00001e80          	.word	0x00001e80
20000034:	00000000          	.word	0x00000000
20000038:	00001e80          	.word	0x00001e80
	...
20000044:	00001e80          	.word	0x00001e80
20000048:	00000000          	.word	0x00000000
2000004c:	00001e80          	.word	0x00001e80
20000050:	00001e80          	.word	0x00001e80
20000054:	00001e80          	.word	0x00001e80
20000058:	00001e80          	.word	0x00001e80
2000005c:	00000000          	.word	0x00000000
20000060:	00001e80          	.word	0x00001e80
	...
2000006c:	00001e80          	.word	0x00001e80
20000070:	00001e80          	.word	0x00001e80
20000074:	00001e80          	.word	0x00001e80
20000078:	00001e80          	.word	0x00001e80
2000007c:	00001e80          	.word	0x00001e80
20000080:	00000000          	.word	0x00000000
20000084:	00001e80          	.word	0x00001e80
20000088:	00000000          	.word	0x00000000
2000008c:	00001e80          	.word	0x00001e80

20000090 <SetSysClock>:
SetSysClock():
c:\Users\seanw\mounriver-studio-projects\CH570D-ADC-Soil\obj/../StdPeriphDriver/CH57x_sys.c:31
{
    uint16_t clk_sys_cfg;
    uint8_t i;
    uint8_t x32M_c;

    if(sc == RB_CLK_SYS_MOD)  // LSI
20000090:	0c000793          	li	a5,192
c:\Users\seanw\mounriver-studio-projects\CH570D-ADC-Soil\obj/../StdPeriphDriver/CH57x_sys.c:26
{
20000094:	1101                	addi	sp,sp,-32
c:\Users\seanw\mounriver-studio-projects\CH570D-ADC-Soil\obj/../StdPeriphDriver/CH57x_sys.c:31
    if(sc == RB_CLK_SYS_MOD)  // LSI
20000096:	04f51463          	bne	a0,a5,200000de <SetSysClock+0x4e>
__risc_v_disable_irq():
c:/Users/seanw/mounriver-studio-projects/CH570D-ADC-Soil/RVMSIS/core_riscv.h:154
 */
__attribute__((always_inline)) RV_STATIC_INLINE uint32_t __risc_v_disable_irq(void)
{
    uint32_t result;

    __asm volatile("csrrc %0, 0x800, %1" : \
2000009a:	08800793          	li	a5,136
2000009e:	8007b7f3          	csrrc	a5,0x800,a5
c:/Users/seanw/mounriver-studio-projects/CH570D-ADC-Soil/RVMSIS/core_riscv.h:156
                   "=r"(result): "r"(0x88) : "memory");
    return result & 0x88;
200000a2:	0887f793          	andi	a5,a5,136
SetSysClock():
c:\Users\seanw\mounriver-studio-projects\CH570D-ADC-Soil\obj/../StdPeriphDriver/CH57x_sys.c:33
    {
        sys_safe_access_enable();
200000a6:	c03e                	sw	a5,0(sp)
200000a8:	0000100f          	fence.i
200000ac:	400017b7          	lui	a5,0x40001
200000b0:	05700713          	li	a4,87
200000b4:	04e78023          	sb	a4,64(a5) # 40001040 <_eusrstack+0x1fffe040>
200000b8:	fa800713          	li	a4,-88
200000bc:	04e78023          	sb	a4,64(a5)
200000c0:	0000100f          	fence.i
c:\Users\seanw\mounriver-studio-projects\CH570D-ADC-Soil\obj/../StdPeriphDriver/CH57x_sys.c:34
        R8_CLK_SYS_CFG |= RB_CLK_SYS_MOD;
200000c4:	2798                	lbu	a4,8(a5)
200000c6:	0c076713          	ori	a4,a4,192
200000ca:	a798                	sb	a4,8(a5)
c:\Users\seanw\mounriver-studio-projects\CH570D-ADC-Soil\obj/../StdPeriphDriver/CH57x_sys.c:35
        sys_safe_access_disable();
200000cc:	04078023          	sb	zero,64(a5)
200000d0:	4782                	lw	a5,0(sp)
__risc_v_enable_irq():
c:/Users/seanw/mounriver-studio-projects/CH570D-ADC-Soil/RVMSIS/core_riscv.h:138
    __asm volatile("csrrs %0, 0x800, %1" : \
200000d2:	8007a7f3          	csrrs	a5,0x800,a5
SetSysClock():
c:\Users\seanw\mounriver-studio-projects\CH570D-ADC-Soil\obj/../StdPeriphDriver/CH57x_sys.c:86
            }
        }

        sys_safe_access_enable();
        R8_CLK_SYS_CFG = sc;
        sys_safe_access_disable();
200000d6:	0000100f          	fence.i
c:\Users\seanw\mounriver-studio-projects\CH570D-ADC-Soil\obj/../StdPeriphDriver/CH57x_sys.c:88
    }
}
200000da:	6105                	addi	sp,sp,32
200000dc:	8082                	ret
c:\Users\seanw\mounriver-studio-projects\CH570D-ADC-Soil\obj/../StdPeriphDriver/CH57x_sys.c:39
        if(!(R8_HFCK_PWR_CTRL & RB_CLK_XT32M_PON))
200000de:	400017b7          	lui	a5,0x40001
200000e2:	27b8                	lbu	a4,10(a5)
200000e4:	8b11                	andi	a4,a4,4
200000e6:	eb69                	bnez	a4,200001b8 <SetSysClock+0x128>
c:\Users\seanw\mounriver-studio-projects\CH570D-ADC-Soil\obj/../StdPeriphDriver/CH57x_sys.c:41
            x32M_c = R8_XT32M_TUNE;
200000e8:	04e7c683          	lbu	a3,78(a5) # 4000104e <_eusrstack+0x1fffe04e>
__risc_v_disable_irq():
c:/Users/seanw/mounriver-studio-projects/CH570D-ADC-Soil/RVMSIS/core_riscv.h:154
    __asm volatile("csrrc %0, 0x800, %1" : \
200000ec:	08800713          	li	a4,136
SetSysClock():
c:\Users\seanw\mounriver-studio-projects\CH570D-ADC-Soil\obj/../StdPeriphDriver/CH57x_sys.c:41
200000f0:	0ff6f693          	zext.b	a3,a3
__risc_v_disable_irq():
c:/Users/seanw/mounriver-studio-projects/CH570D-ADC-Soil/RVMSIS/core_riscv.h:154
200000f4:	80073673          	csrrc	a2,0x800,a4
c:/Users/seanw/mounriver-studio-projects/CH570D-ADC-Soil/RVMSIS/core_riscv.h:156
    return result & 0x88;
200000f8:	08867613          	andi	a2,a2,136
SetSysClock():
c:\Users\seanw\mounriver-studio-projects\CH570D-ADC-Soil\obj/../StdPeriphDriver/CH57x_sys.c:42
            sys_safe_access_enable();
200000fc:	c232                	sw	a2,4(sp)
200000fe:	0000100f          	fence.i
20000102:	05700813          	li	a6,87
20000106:	05078023          	sb	a6,64(a5)
2000010a:	fa800593          	li	a1,-88
2000010e:	04b78023          	sb	a1,64(a5)
20000112:	0000100f          	fence.i
c:\Users\seanw\mounriver-studio-projects\CH570D-ADC-Soil\obj/../StdPeriphDriver/CH57x_sys.c:43
            R8_XT32M_TUNE |= 0x03;
20000116:	04e7c603          	lbu	a2,78(a5)
2000011a:	00366613          	ori	a2,a2,3
2000011e:	04c78723          	sb	a2,78(a5)
c:\Users\seanw\mounriver-studio-projects\CH570D-ADC-Soil\obj/../StdPeriphDriver/CH57x_sys.c:44
            R8_HFCK_PWR_CTRL |= RB_CLK_XT32M_PON;
20000122:	27b0                	lbu	a2,10(a5)
20000124:	00466613          	ori	a2,a2,4
20000128:	a7b0                	sb	a2,10(a5)
c:\Users\seanw\mounriver-studio-projects\CH570D-ADC-Soil\obj/../StdPeriphDriver/CH57x_sys.c:45
            sys_safe_access_disable();
2000012a:	04078023          	sb	zero,64(a5)
2000012e:	4612                	lw	a2,4(sp)
__risc_v_enable_irq():
c:/Users/seanw/mounriver-studio-projects/CH570D-ADC-Soil/RVMSIS/core_riscv.h:138
    __asm volatile("csrrs %0, 0x800, %1" : \
20000130:	80062673          	csrrs	a2,0x800,a2
SetSysClock():
c:\Users\seanw\mounriver-studio-projects\CH570D-ADC-Soil\obj/../StdPeriphDriver/CH57x_sys.c:45
20000134:	0000100f          	fence.i
c:\Users\seanw\mounriver-studio-projects\CH570D-ADC-Soil\obj/../StdPeriphDriver/CH57x_sys.c:46
            clk_sys_cfg = R8_CLK_SYS_CFG;
20000138:	2790                	lbu	a2,8(a5)
2000013a:	0ff67613          	zext.b	a2,a2
__risc_v_disable_irq():
c:/Users/seanw/mounriver-studio-projects/CH570D-ADC-Soil/RVMSIS/core_riscv.h:154
    __asm volatile("csrrc %0, 0x800, %1" : \
2000013e:	80073773          	csrrc	a4,0x800,a4
c:/Users/seanw/mounriver-studio-projects/CH570D-ADC-Soil/RVMSIS/core_riscv.h:156
    return result & 0x88;
20000142:	08877713          	andi	a4,a4,136
SetSysClock():
c:\Users\seanw\mounriver-studio-projects\CH570D-ADC-Soil\obj/../StdPeriphDriver/CH57x_sys.c:47
            sys_safe_access_enable();
20000146:	c43a                	sw	a4,8(sp)
20000148:	0000100f          	fence.i
2000014c:	05078023          	sb	a6,64(a5)
20000150:	04b78023          	sb	a1,64(a5)
20000154:	0000100f          	fence.i
c:\Users\seanw\mounriver-studio-projects\CH570D-ADC-Soil\obj/../StdPeriphDriver/CH57x_sys.c:48
            R8_CLK_SYS_CFG |= 0xC0;
20000158:	2798                	lbu	a4,8(a5)
2000015a:	0c076713          	ori	a4,a4,192
2000015e:	a798                	sb	a4,8(a5)
c:\Users\seanw\mounriver-studio-projects\CH570D-ADC-Soil\obj/../StdPeriphDriver/CH57x_sys.c:49
            sys_safe_access_disable();
20000160:	04078023          	sb	zero,64(a5)
20000164:	47a2                	lw	a5,8(sp)
__risc_v_enable_irq():
c:/Users/seanw/mounriver-studio-projects/CH570D-ADC-Soil/RVMSIS/core_riscv.h:138
    __asm volatile("csrrs %0, 0x800, %1" : \
20000166:	8007a7f3          	csrrs	a5,0x800,a5
SetSysClock():
c:\Users\seanw\mounriver-studio-projects\CH570D-ADC-Soil\obj/../StdPeriphDriver/CH57x_sys.c:49
2000016a:	0000100f          	fence.i
2000016e:	47a5                	li	a5,9
c:\Users\seanw\mounriver-studio-projects\CH570D-ADC-Soil\obj/../StdPeriphDriver/CH57x_sys.c:52 (discriminator 3)
                __nop();
20000170:	0001                	nop
c:\Users\seanw\mounriver-studio-projects\CH570D-ADC-Soil\obj/../StdPeriphDriver/CH57x_sys.c:50 (discriminator 3)
            for(i=0; i<9; i++)
20000172:	17fd                	addi	a5,a5,-1
20000174:	0ff7f793          	zext.b	a5,a5
20000178:	ffe5                	bnez	a5,20000170 <SetSysClock+0xe0>
__risc_v_disable_irq():
c:/Users/seanw/mounriver-studio-projects/CH570D-ADC-Soil/RVMSIS/core_riscv.h:154
    __asm volatile("csrrc %0, 0x800, %1" : \
2000017a:	08800793          	li	a5,136
2000017e:	8007b7f3          	csrrc	a5,0x800,a5
c:/Users/seanw/mounriver-studio-projects/CH570D-ADC-Soil/RVMSIS/core_riscv.h:156
    return result & 0x88;
20000182:	0887f793          	andi	a5,a5,136
SetSysClock():
c:\Users\seanw\mounriver-studio-projects\CH570D-ADC-Soil\obj/../StdPeriphDriver/CH57x_sys.c:54
            sys_safe_access_enable();
20000186:	c63e                	sw	a5,12(sp)
20000188:	0000100f          	fence.i
2000018c:	400017b7          	lui	a5,0x40001
20000190:	05700713          	li	a4,87
20000194:	04e78023          	sb	a4,64(a5) # 40001040 <_eusrstack+0x1fffe040>
20000198:	fa800713          	li	a4,-88
2000019c:	04e78023          	sb	a4,64(a5)
200001a0:	0000100f          	fence.i
c:\Users\seanw\mounriver-studio-projects\CH570D-ADC-Soil\obj/../StdPeriphDriver/CH57x_sys.c:55
            R8_CLK_SYS_CFG = clk_sys_cfg;
200001a4:	a790                	sb	a2,8(a5)
c:\Users\seanw\mounriver-studio-projects\CH570D-ADC-Soil\obj/../StdPeriphDriver/CH57x_sys.c:56
            R8_XT32M_TUNE = x32M_c;
200001a6:	04d78723          	sb	a3,78(a5)
c:\Users\seanw\mounriver-studio-projects\CH570D-ADC-Soil\obj/../StdPeriphDriver/CH57x_sys.c:57
            sys_safe_access_disable();
200001aa:	04078023          	sb	zero,64(a5)
200001ae:	47b2                	lw	a5,12(sp)
__risc_v_enable_irq():
c:/Users/seanw/mounriver-studio-projects/CH570D-ADC-Soil/RVMSIS/core_riscv.h:138
    __asm volatile("csrrs %0, 0x800, %1" : \
200001b0:	8007a7f3          	csrrs	a5,0x800,a5
SetSysClock():
c:\Users\seanw\mounriver-studio-projects\CH570D-ADC-Soil\obj/../StdPeriphDriver/CH57x_sys.c:57
200001b4:	0000100f          	fence.i
c:\Users\seanw\mounriver-studio-projects\CH570D-ADC-Soil\obj/../StdPeriphDriver/CH57x_sys.c:60
        if((sc & RB_CLK_SYS_MOD) == 0x40) // PLL div
200001b8:	0c057793          	andi	a5,a0,192
200001bc:	04000713          	li	a4,64
200001c0:	08e79963          	bne	a5,a4,20000252 <SetSysClock+0x1c2>
__risc_v_disable_irq():
c:/Users/seanw/mounriver-studio-projects/CH570D-ADC-Soil/RVMSIS/core_riscv.h:154
    __asm volatile("csrrc %0, 0x800, %1" : \
200001c4:	08800793          	li	a5,136
200001c8:	8007b7f3          	csrrc	a5,0x800,a5
c:/Users/seanw/mounriver-studio-projects/CH570D-ADC-Soil/RVMSIS/core_riscv.h:156
    return result & 0x88;
200001cc:	0887f793          	andi	a5,a5,136
SetSysClock():
c:\Users\seanw\mounriver-studio-projects\CH570D-ADC-Soil\obj/../StdPeriphDriver/CH57x_sys.c:62
            sys_safe_access_enable();
200001d0:	c83e                	sw	a5,16(sp)
200001d2:	0000100f          	fence.i
200001d6:	400017b7          	lui	a5,0x40001
200001da:	05700713          	li	a4,87
200001de:	04e78023          	sb	a4,64(a5) # 40001040 <_eusrstack+0x1fffe040>
200001e2:	fa800713          	li	a4,-88
200001e6:	04e78023          	sb	a4,64(a5)
200001ea:	0000100f          	fence.i
c:\Users\seanw\mounriver-studio-projects\CH570D-ADC-Soil\obj/../StdPeriphDriver/CH57x_sys.c:63
            R8_HFCK_PWR_CTRL |= RB_CLK_PLL_PON;
200001ee:	27b8                	lbu	a4,10(a5)
c:\Users\seanw\mounriver-studio-projects\CH570D-ADC-Soil\obj/../StdPeriphDriver/CH57x_sys.c:64
            R8_FLASH_CFG = 0X01;
200001f0:	4685                	li	a3,1
c:\Users\seanw\mounriver-studio-projects\CH570D-ADC-Soil\obj/../StdPeriphDriver/CH57x_sys.c:63
            R8_HFCK_PWR_CTRL |= RB_CLK_PLL_PON;
200001f2:	01076713          	ori	a4,a4,16
200001f6:	a7b8                	sb	a4,10(a5)
c:\Users\seanw\mounriver-studio-projects\CH570D-ADC-Soil\obj/../StdPeriphDriver/CH57x_sys.c:64
            R8_FLASH_CFG = 0X01;
200001f8:	40002737          	lui	a4,0x40002
200001fc:	80d703a3          	sb	a3,-2041(a4) # 40001807 <_eusrstack+0x1fffe807>
c:\Users\seanw\mounriver-studio-projects\CH570D-ADC-Soil\obj/../StdPeriphDriver/CH57x_sys.c:65
            R8_FLASH_SCK |= 1<<4; //50M
20000200:	80574683          	lbu	a3,-2043(a4)
20000204:	0106e693          	ori	a3,a3,16
20000208:	80d702a3          	sb	a3,-2043(a4)
c:\Users\seanw\mounriver-studio-projects\CH570D-ADC-Soil\obj/../StdPeriphDriver/CH57x_sys.c:66
            sys_safe_access_disable();
2000020c:	04078023          	sb	zero,64(a5)
20000210:	47c2                	lw	a5,16(sp)
__risc_v_enable_irq():
c:/Users/seanw/mounriver-studio-projects/CH570D-ADC-Soil/RVMSIS/core_riscv.h:138
    __asm volatile("csrrs %0, 0x800, %1" : \
20000212:	8007a7f3          	csrrs	a5,0x800,a5
SetSysClock():
c:\Users\seanw\mounriver-studio-projects\CH570D-ADC-Soil\obj/../StdPeriphDriver/CH57x_sys.c:80
                sys_safe_access_disable();
20000216:	0000100f          	fence.i
__risc_v_disable_irq():
c:/Users/seanw/mounriver-studio-projects/CH570D-ADC-Soil/RVMSIS/core_riscv.h:154
    __asm volatile("csrrc %0, 0x800, %1" : \
2000021a:	08800793          	li	a5,136
2000021e:	8007b7f3          	csrrc	a5,0x800,a5
c:/Users/seanw/mounriver-studio-projects/CH570D-ADC-Soil/RVMSIS/core_riscv.h:156
    return result & 0x88;
20000222:	0887f793          	andi	a5,a5,136
SetSysClock():
c:\Users\seanw\mounriver-studio-projects\CH570D-ADC-Soil\obj/../StdPeriphDriver/CH57x_sys.c:84
        sys_safe_access_enable();
20000226:	ce3e                	sw	a5,28(sp)
20000228:	0000100f          	fence.i
2000022c:	400017b7          	lui	a5,0x40001
20000230:	05700713          	li	a4,87
20000234:	04e78023          	sb	a4,64(a5) # 40001040 <_eusrstack+0x1fffe040>
20000238:	fa800713          	li	a4,-88
2000023c:	04e78023          	sb	a4,64(a5)
20000240:	0000100f          	fence.i
c:\Users\seanw\mounriver-studio-projects\CH570D-ADC-Soil\obj/../StdPeriphDriver/CH57x_sys.c:85
        R8_CLK_SYS_CFG = sc;
20000244:	0ff57513          	zext.b	a0,a0
20000248:	a788                	sb	a0,8(a5)
c:\Users\seanw\mounriver-studio-projects\CH570D-ADC-Soil\obj/../StdPeriphDriver/CH57x_sys.c:86
        sys_safe_access_disable();
2000024a:	04078023          	sb	zero,64(a5)
2000024e:	47f2                	lw	a5,28(sp)
20000250:	b549                	j	200000d2 <SetSysClock+0x42>
c:\Users\seanw\mounriver-studio-projects\CH570D-ADC-Soil\obj/../StdPeriphDriver/CH57x_sys.c:70
            if((sc&0x1F) )
20000252:	01f57793          	andi	a5,a0,31
20000256:	cf9d                	beqz	a5,20000294 <SetSysClock+0x204>
__risc_v_disable_irq():
c:/Users/seanw/mounriver-studio-projects/CH570D-ADC-Soil/RVMSIS/core_riscv.h:154
    __asm volatile("csrrc %0, 0x800, %1" : \
20000258:	08800793          	li	a5,136
2000025c:	8007b7f3          	csrrc	a5,0x800,a5
c:/Users/seanw/mounriver-studio-projects/CH570D-ADC-Soil/RVMSIS/core_riscv.h:156
    return result & 0x88;
20000260:	0887f793          	andi	a5,a5,136
SetSysClock():
c:\Users\seanw\mounriver-studio-projects\CH570D-ADC-Soil\obj/../StdPeriphDriver/CH57x_sys.c:72
                sys_safe_access_enable();
20000264:	ca3e                	sw	a5,20(sp)
20000266:	0000100f          	fence.i
2000026a:	400017b7          	lui	a5,0x40001
2000026e:	05700713          	li	a4,87
20000272:	04e78023          	sb	a4,64(a5) # 40001040 <_eusrstack+0x1fffe040>
20000276:	fa800713          	li	a4,-88
2000027a:	04e78023          	sb	a4,64(a5)
2000027e:	0000100f          	fence.i
c:\Users\seanw\mounriver-studio-projects\CH570D-ADC-Soil\obj/../StdPeriphDriver/CH57x_sys.c:73
                R8_FLASH_CFG = 0X02;
20000282:	40002737          	lui	a4,0x40002
20000286:	4689                	li	a3,2
20000288:	80d703a3          	sb	a3,-2041(a4) # 40001807 <_eusrstack+0x1fffe807>
c:\Users\seanw\mounriver-studio-projects\CH570D-ADC-Soil\obj/../StdPeriphDriver/CH57x_sys.c:74
                sys_safe_access_disable();
2000028c:	04078023          	sb	zero,64(a5)
20000290:	47d2                	lw	a5,20(sp)
__risc_v_enable_irq():
c:/Users/seanw/mounriver-studio-projects/CH570D-ADC-Soil/RVMSIS/core_riscv.h:138
    __asm volatile("csrrs %0, 0x800, %1" : \
20000292:	b741                	j	20000212 <SetSysClock+0x182>
__risc_v_disable_irq():
c:/Users/seanw/mounriver-studio-projects/CH570D-ADC-Soil/RVMSIS/core_riscv.h:154
    __asm volatile("csrrc %0, 0x800, %1" : \
20000294:	08800793          	li	a5,136
20000298:	8007b7f3          	csrrc	a5,0x800,a5
c:/Users/seanw/mounriver-studio-projects/CH570D-ADC-Soil/RVMSIS/core_riscv.h:156
    return result & 0x88;
2000029c:	0887f793          	andi	a5,a5,136
SetSysClock():
c:\Users\seanw\mounriver-studio-projects\CH570D-ADC-Soil\obj/../StdPeriphDriver/CH57x_sys.c:78
                sys_safe_access_enable();
200002a0:	cc3e                	sw	a5,24(sp)
200002a2:	0000100f          	fence.i
200002a6:	400017b7          	lui	a5,0x40001
200002aa:	05700713          	li	a4,87
200002ae:	04e78023          	sb	a4,64(a5) # 40001040 <_eusrstack+0x1fffe040>
200002b2:	fa800713          	li	a4,-88
200002b6:	04e78023          	sb	a4,64(a5)
200002ba:	0000100f          	fence.i
c:\Users\seanw\mounriver-studio-projects\CH570D-ADC-Soil\obj/../StdPeriphDriver/CH57x_sys.c:79
                R8_FLASH_CFG = 0X07;
200002be:	40002737          	lui	a4,0x40002
200002c2:	469d                	li	a3,7
200002c4:	80d703a3          	sb	a3,-2041(a4) # 40001807 <_eusrstack+0x1fffe807>
c:\Users\seanw\mounriver-studio-projects\CH570D-ADC-Soil\obj/../StdPeriphDriver/CH57x_sys.c:80
                sys_safe_access_disable();
200002c8:	04078023          	sb	zero,64(a5)
200002cc:	47e2                	lw	a5,24(sp)
200002ce:	b791                	j	20000212 <SetSysClock+0x182>

200002d0 <HardFault_Handler>:
HardFault_Handler():
c:\Users\seanw\mounriver-studio-projects\CH570D-ADC-Soil\obj/../StdPeriphDriver/CH57x_sys.c:283
 */
__INTERRUPT
__HIGH_CODE
__attribute__((weak))
void HardFault_Handler(void)
{
200002d0:	1141                	addi	sp,sp,-16
c:\Users\seanw\mounriver-studio-projects\CH570D-ADC-Soil\obj/../StdPeriphDriver/CH57x_sys.c:284
    FLASH_ROM_SW_RESET();
200002d2:	4681                	li	a3,0
200002d4:	4601                	li	a2,0
200002d6:	4581                	li	a1,0
200002d8:	4511                	li	a0,4
200002da:	e0000097          	auipc	ra,0xe0000
200002de:	7b6080e7          	jalr	1974(ra) # a90 <FLASH_EEPROM_CMD>
__risc_v_disable_irq():
c:/Users/seanw/mounriver-studio-projects/CH570D-ADC-Soil/RVMSIS/core_riscv.h:154
    __asm volatile("csrrc %0, 0x800, %1" : \
200002e2:	08800713          	li	a4,136
200002e6:	800737f3          	csrrc	a5,0x800,a4
c:/Users/seanw/mounriver-studio-projects/CH570D-ADC-Soil/RVMSIS/core_riscv.h:156
    return result & 0x88;
200002ea:	0887f793          	andi	a5,a5,136
HardFault_Handler():
c:\Users\seanw\mounriver-studio-projects\CH570D-ADC-Soil\obj/../StdPeriphDriver/CH57x_sys.c:285
    sys_safe_access_enable();
200002ee:	c43e                	sw	a5,8(sp)
200002f0:	0000100f          	fence.i
200002f4:	400017b7          	lui	a5,0x40001
200002f8:	05700613          	li	a2,87
200002fc:	04c78023          	sb	a2,64(a5) # 40001040 <_eusrstack+0x1fffe040>
20000300:	fa800693          	li	a3,-88
20000304:	04d78023          	sb	a3,64(a5)
20000308:	0000100f          	fence.i
c:\Users\seanw\mounriver-studio-projects\CH570D-ADC-Soil\obj/../StdPeriphDriver/CH57x_sys.c:286
    R16_INT_LSI_TUNE = 0xFFFF;
2000030c:	55fd                	li	a1,-1
2000030e:	b7ce                	sh	a1,44(a5)
c:\Users\seanw\mounriver-studio-projects\CH570D-ADC-Soil\obj/../StdPeriphDriver/CH57x_sys.c:287
    sys_safe_access_disable();
20000310:	04078023          	sb	zero,64(a5)
20000314:	45a2                	lw	a1,8(sp)
__risc_v_enable_irq():
c:/Users/seanw/mounriver-studio-projects/CH570D-ADC-Soil/RVMSIS/core_riscv.h:138
    __asm volatile("csrrs %0, 0x800, %1" : \
20000316:	8005a5f3          	csrrs	a1,0x800,a1
HardFault_Handler():
c:\Users\seanw\mounriver-studio-projects\CH570D-ADC-Soil\obj/../StdPeriphDriver/CH57x_sys.c:287
2000031a:	0000100f          	fence.i
__risc_v_disable_irq():
c:/Users/seanw/mounriver-studio-projects/CH570D-ADC-Soil/RVMSIS/core_riscv.h:154
    __asm volatile("csrrc %0, 0x800, %1" : \
2000031e:	80073773          	csrrc	a4,0x800,a4
c:/Users/seanw/mounriver-studio-projects/CH570D-ADC-Soil/RVMSIS/core_riscv.h:156
    return result & 0x88;
20000322:	08877713          	andi	a4,a4,136
HardFault_Handler():
c:\Users\seanw\mounriver-studio-projects\CH570D-ADC-Soil\obj/../StdPeriphDriver/CH57x_sys.c:288
    sys_safe_access_enable();
20000326:	c63a                	sw	a4,12(sp)
20000328:	0000100f          	fence.i
2000032c:	04c78023          	sb	a2,64(a5)
20000330:	04d78023          	sb	a3,64(a5)
20000334:	0000100f          	fence.i
c:\Users\seanw\mounriver-studio-projects\CH570D-ADC-Soil\obj/../StdPeriphDriver/CH57x_sys.c:289
    R8_RST_WDOG_CTRL |= RB_SOFTWARE_RESET;
20000338:	0467c703          	lbu	a4,70(a5)
2000033c:	00176713          	ori	a4,a4,1
20000340:	04e78323          	sb	a4,70(a5)
c:\Users\seanw\mounriver-studio-projects\CH570D-ADC-Soil\obj/../StdPeriphDriver/CH57x_sys.c:290
    sys_safe_access_disable();
20000344:	04078023          	sb	zero,64(a5)
20000348:	47b2                	lw	a5,12(sp)
__risc_v_enable_irq():
c:/Users/seanw/mounriver-studio-projects/CH570D-ADC-Soil/RVMSIS/core_riscv.h:138
    __asm volatile("csrrs %0, 0x800, %1" : \
2000034a:	8007a7f3          	csrrs	a5,0x800,a5
HardFault_Handler():
c:\Users\seanw\mounriver-studio-projects\CH570D-ADC-Soil\obj/../StdPeriphDriver/CH57x_sys.c:290
2000034e:	0000100f          	fence.i
c:\Users\seanw\mounriver-studio-projects\CH570D-ADC-Soil\obj/../StdPeriphDriver/CH57x_sys.c:291 (discriminator 1)
    while(1);
20000352:	a001                	j	20000352 <HardFault_Handler+0x82>

20000354 <mDelayuS>:
mDelayuS():
c:\Users\seanw\mounriver-studio-projects\CH570D-ADC-Soil\obj/../StdPeriphDriver/CH57x_sys.c:308
__HIGH_CODE
void mDelayuS(uint16_t t)
{
    uint32_t i;
#if(FREQ_SYS == 100000000)
    i = t * 25;
20000354:	47e5                	li	a5,25
20000356:	02f50533          	mul	a0,a0,a5
c:\Users\seanw\mounriver-studio-projects\CH570D-ADC-Soil\obj/../StdPeriphDriver/CH57x_sys.c:351 (discriminator 1)
        __nop();
    };
#else
    do
    {
        __nop();
2000035a:	0001                	nop
c:\Users\seanw\mounriver-studio-projects\CH570D-ADC-Soil\obj/../StdPeriphDriver/CH57x_sys.c:352 (discriminator 1)
    }while(--i);
2000035c:	157d                	addi	a0,a0,-1
2000035e:	fd75                	bnez	a0,2000035a <mDelayuS+0x6>
c:\Users\seanw\mounriver-studio-projects\CH570D-ADC-Soil\obj/../StdPeriphDriver/CH57x_sys.c:354
#endif
}
20000360:	8082                	ret

20000362 <mDelaymS>:
mDelaymS():
c:\Users\seanw\mounriver-studio-projects\CH570D-ADC-Soil\obj/../StdPeriphDriver/CH57x_sys.c:367
 *
 * @return  none
 */
__HIGH_CODE
void mDelaymS(uint16_t t)
{
20000362:	1141                	addi	sp,sp,-16
20000364:	c422                	sw	s0,8(sp)
20000366:	c606                	sw	ra,12(sp)
20000368:	842a                	mv	s0,a0
c:\Users\seanw\mounriver-studio-projects\CH570D-ADC-Soil\obj/../StdPeriphDriver/CH57x_sys.c:370 (discriminator 1)
    do
    {
        mDelayuS(1000);
2000036a:	3e800513          	li	a0,1000
c:\Users\seanw\mounriver-studio-projects\CH570D-ADC-Soil\obj/../StdPeriphDriver/CH57x_sys.c:371 (discriminator 1)
    }while(--t);
2000036e:	147d                	addi	s0,s0,-1
c:\Users\seanw\mounriver-studio-projects\CH570D-ADC-Soil\obj/../StdPeriphDriver/CH57x_sys.c:370 (discriminator 1)
        mDelayuS(1000);
20000370:	37d5                	jal	20000354 <mDelayuS>
c:\Users\seanw\mounriver-studio-projects\CH570D-ADC-Soil\obj/../StdPeriphDriver/CH57x_sys.c:371 (discriminator 1)
    }while(--t);
20000372:	08044433          	zext.h	s0,s0
20000376:	f875                	bnez	s0,2000036a <mDelaymS+0x8>
c:\Users\seanw\mounriver-studio-projects\CH570D-ADC-Soil\obj/../StdPeriphDriver/CH57x_sys.c:372
}
20000378:	40b2                	lw	ra,12(sp)
2000037a:	4422                	lw	s0,8(sp)
2000037c:	0141                	addi	sp,sp,16
2000037e:	8082                	ret

20000380 <FLASH_ROM_BEG_FF>:
FLASH_ROM_BEG_FF():
20000380:	80040323          	sb	zero,-2042(s0)
20000384:	4715                	li	a4,5
20000386:	87a2                	mv	a5,s0
20000388:	80e40323          	sb	a4,-2042(s0)
2000038c:	0001                	nop
2000038e:	0001                	nop
20000390:	80a40223          	sb	a0,-2044(s0)
20000394:	8067c703          	lbu	a4,-2042(a5)
20000398:	0762                	slli	a4,a4,0x18
2000039a:	8761                	srai	a4,a4,0x18
2000039c:	fe074ce3          	bltz	a4,20000394 <FLASH_ROM_BEG_FF+0x14>
200003a0:	80a78223          	sb	a0,-2044(a5)
200003a4:	8722                	mv	a4,s0
200003a6:	80674783          	lbu	a5,-2042(a4)
200003aa:	07e2                	slli	a5,a5,0x18
200003ac:	87e1                	srai	a5,a5,0x18
200003ae:	fe07cce3          	bltz	a5,200003a6 <FLASH_ROM_BEG_FF+0x26>
200003b2:	8082                	ret

200003b4 <FLASH_ROM_BEG>:
FLASH_ROM_BEG():
200003b4:	80040323          	sb	zero,-2042(s0)
200003b8:	4715                	li	a4,5
200003ba:	80e40323          	sb	a4,-2042(s0)
200003be:	0001                	nop
200003c0:	0001                	nop
200003c2:	80a40223          	sb	a0,-2044(s0)
200003c6:	8082                	ret

200003c8 <FLASH_ROM_END>:
FLASH_ROM_END():
200003c8:	80640783          	lb	a5,-2042(s0)
200003cc:	fe07cee3          	bltz	a5,200003c8 <FLASH_ROM_END>
200003d0:	80040323          	sb	zero,-2042(s0)
200003d4:	8082                	ret

200003d6 <FLASH_ROM_IN>:
FLASH_ROM_IN():
200003d6:	80640783          	lb	a5,-2042(s0)
200003da:	fe07cee3          	bltz	a5,200003d6 <FLASH_ROM_IN>
200003de:	80444503          	lbu	a0,-2044(s0)
200003e2:	8082                	ret

200003e4 <FLASH_ROM_OUT>:
FLASH_ROM_OUT():
200003e4:	80640783          	lb	a5,-2042(s0)
200003e8:	fe07cee3          	bltz	a5,200003e4 <FLASH_ROM_OUT>
200003ec:	80a40223          	sb	a0,-2044(s0)
200003f0:	8082                	ret

200003f2 <FLASH_ROM_ADDR>:
FLASH_ROM_ADDR():
200003f2:	1141                	addi	sp,sp,-16
200003f4:	c426                	sw	s1,8(sp)
200003f6:	c24a                	sw	s2,4(sp)
200003f8:	c04e                	sw	s3,0(sp)
200003fa:	c606                	sw	ra,12(sp)
200003fc:	0bf57713          	andi	a4,a0,191
20000400:	47ad                	li	a5,11
20000402:	89aa                	mv	s3,a0
20000404:	892e                	mv	s2,a1
20000406:	4495                	li	s1,5
20000408:	00f70663          	beq	a4,a5,20000414 <FLASH_ROM_ADDR+0x22>
2000040c:	4519                	li	a0,6
2000040e:	375d                	jal	200003b4 <FLASH_ROM_BEG>
20000410:	3f65                	jal	200003c8 <FLASH_ROM_END>
20000412:	448d                	li	s1,3
20000414:	854e                	mv	a0,s3
20000416:	3f79                	jal	200003b4 <FLASH_ROM_BEG>
20000418:	59fd                	li	s3,-1
2000041a:	14fd                	addi	s1,s1,-1
2000041c:	01349863          	bne	s1,s3,2000042c <FLASH_ROM_ADDR+0x3a>
20000420:	40b2                	lw	ra,12(sp)
20000422:	44a2                	lw	s1,8(sp)
20000424:	4912                	lw	s2,4(sp)
20000426:	4982                	lw	s3,0(sp)
20000428:	0141                	addi	sp,sp,16
2000042a:	8082                	ret
2000042c:	01095513          	srli	a0,s2,0x10
20000430:	0ff57513          	zext.b	a0,a0
20000434:	3f45                	jal	200003e4 <FLASH_ROM_OUT>
20000436:	0922                	slli	s2,s2,0x8
20000438:	b7cd                	j	2000041a <FLASH_ROM_ADDR+0x28>

2000043a <FLASH_ROM_WAIT>:
FLASH_ROM_WAIT():
2000043a:	1101                	addi	sp,sp,-32
2000043c:	cc26                	sw	s1,24(sp)
2000043e:	ce06                	sw	ra,28(sp)
20000440:	000804b7          	lui	s1,0x80
20000444:	3751                	jal	200003c8 <FLASH_ROM_END>
20000446:	4515                	li	a0,5
20000448:	37b5                	jal	200003b4 <FLASH_ROM_BEG>
2000044a:	3771                	jal	200003d6 <FLASH_ROM_IN>
2000044c:	3769                	jal	200003d6 <FLASH_ROM_IN>
2000044e:	c62a                	sw	a0,12(sp)
20000450:	3fa5                	jal	200003c8 <FLASH_ROM_END>
20000452:	4532                	lw	a0,12(sp)
20000454:	00157793          	andi	a5,a0,1
20000458:	eb89                	bnez	a5,2000046a <FLASH_ROM_WAIT+0x30>
2000045a:	00156513          	ori	a0,a0,1
2000045e:	0ff57513          	zext.b	a0,a0
20000462:	40f2                	lw	ra,28(sp)
20000464:	44e2                	lw	s1,24(sp)
20000466:	6105                	addi	sp,sp,32
20000468:	8082                	ret
2000046a:	14fd                	addi	s1,s1,-1 # 7ffff <_data_lma+0x7e17b>
2000046c:	fce9                	bnez	s1,20000446 <FLASH_ROM_WAIT+0xc>
2000046e:	4501                	li	a0,0
20000470:	bfcd                	j	20000462 <FLASH_ROM_WAIT+0x28>

20000472 <FLASH_START>:
FLASH_START():
20000472:	1141                	addi	sp,sp,-16
20000474:	c606                	sw	ra,12(sp)
20000476:	400017b7          	lui	a5,0x40001
2000047a:	05700713          	li	a4,87
2000047e:	04e78023          	sb	a4,64(a5) # 40001040 <_eusrstack+0x1fffe040>
20000482:	fa800713          	li	a4,-88
20000486:	04e78023          	sb	a4,64(a5)
2000048a:	0447c703          	lbu	a4,68(a5)
2000048e:	0ff00513          	li	a0,255
20000492:	0e076713          	ori	a4,a4,224
20000496:	04e78223          	sb	a4,68(a5)
2000049a:	4791                	li	a5,4
2000049c:	80f40323          	sb	a5,-2042(s0)
200004a0:	35c5                	jal	20000380 <FLASH_ROM_BEG_FF>
200004a2:	40b2                	lw	ra,12(sp)
200004a4:	0141                	addi	sp,sp,16
200004a6:	b70d                	j	200003c8 <FLASH_ROM_END>

200004a8 <FLASH_CMD_ROM_WRITE>:
FLASH_CMD_ROM_WRITE():
200004a8:	1101                	addi	sp,sp,-32
200004aa:	cc26                	sw	s1,24(sp)
200004ac:	ca4a                	sw	s2,20(sp)
200004ae:	c84e                	sw	s3,16(sp)
200004b0:	c652                	sw	s4,12(sp)
200004b2:	ce06                	sw	ra,28(sp)
200004b4:	892a                	mv	s2,a0
200004b6:	89ae                	mv	s3,a1
200004b8:	84b2                	mv	s1,a2
200004ba:	4a55                	li	s4,21
200004bc:	3f5d                	jal	20000472 <FLASH_START>
200004be:	e891                	bnez	s1,200004d2 <FLASH_CMD_ROM_WRITE+0x2a>
200004c0:	3721                	jal	200003c8 <FLASH_ROM_END>
200004c2:	40f2                	lw	ra,28(sp)
200004c4:	8526                	mv	a0,s1
200004c6:	4952                	lw	s2,20(sp)
200004c8:	44e2                	lw	s1,24(sp)
200004ca:	49c2                	lw	s3,16(sp)
200004cc:	4a32                	lw	s4,12(sp)
200004ce:	6105                	addi	sp,sp,32
200004d0:	8082                	ret
200004d2:	85ca                	mv	a1,s2
200004d4:	4509                	li	a0,2
200004d6:	3f31                	jal	200003f2 <FLASH_ROM_ADDR>
200004d8:	0991                	addi	s3,s3,4
200004da:	ffc9a703          	lw	a4,-4(s3)
200004de:	4791                	li	a5,4
200004e0:	80e42023          	sw	a4,-2048(s0)

200004e4 <.loop247>:
200004e4:	80640703          	lb	a4,-2042(s0)
200004e8:	fe074ee3          	bltz	a4,200004e4 <.loop247>
200004ec:	81440323          	sb	s4,-2042(s0)
200004f0:	17fd                	addi	a5,a5,-1
200004f2:	fbed                	bnez	a5,200004e4 <.loop247>
200004f4:	14fd                	addi	s1,s1,-1
200004f6:	0911                	addi	s2,s2,4
200004f8:	c481                	beqz	s1,20000500 <.loop247+0x1c>
200004fa:	0ff97793          	zext.b	a5,s2
200004fe:	ffe9                	bnez	a5,200004d8 <FLASH_CMD_ROM_WRITE+0x30>
20000500:	3f2d                	jal	2000043a <FLASH_ROM_WAIT>
20000502:	fd55                	bnez	a0,200004be <FLASH_CMD_ROM_WRITE+0x16>
20000504:	54fd                	li	s1,-1
20000506:	bf75                	j	200004c2 <FLASH_CMD_ROM_WRITE+0x1a>

20000508 <FLASH_CMD_ROM_ERASE>:
FLASH_CMD_ROM_ERASE():
20000508:	1101                	addi	sp,sp,-32
2000050a:	cc26                	sw	s1,24(sp)
2000050c:	ca4a                	sw	s2,20(sp)
2000050e:	c84e                	sw	s3,16(sp)
20000510:	c652                	sw	s4,12(sp)
20000512:	c456                	sw	s5,8(sp)
20000514:	c25a                	sw	s6,4(sp)
20000516:	ce06                	sw	ra,28(sp)
20000518:	892a                	mv	s2,a0
2000051a:	8a32                	mv	s4,a2
2000051c:	498d                	li	s3,3
2000051e:	3f91                	jal	20000472 <FLASH_START>
20000520:	64c1                	lui	s1,0x10
20000522:	6ac1                	lui	s5,0x10
20000524:	6b05                	lui	s6,0x1
20000526:	fff48793          	addi	a5,s1,-1 # ffff <_data_lma+0xe17b>
2000052a:	0127f7b3          	and	a5,a5,s2
2000052e:	e399                	bnez	a5,20000534 <FLASH_CMD_ROM_ERASE+0x2c>
20000530:	029a7163          	bgeu	s4,s1,20000552 <FLASH_CMD_ROM_ERASE+0x4a>
20000534:	19fd                	addi	s3,s3,-1
20000536:	8091                	srli	s1,s1,0x4
20000538:	fe0997e3          	bnez	s3,20000526 <FLASH_CMD_ROM_ERASE+0x1e>
2000053c:	3571                	jal	200003c8 <FLASH_ROM_END>
2000053e:	4501                	li	a0,0
20000540:	40f2                	lw	ra,28(sp)
20000542:	44e2                	lw	s1,24(sp)
20000544:	4952                	lw	s2,20(sp)
20000546:	49c2                	lw	s3,16(sp)
20000548:	4a32                	lw	s4,12(sp)
2000054a:	4aa2                	lw	s5,8(sp)
2000054c:	4b12                	lw	s6,4(sp)
2000054e:	6105                	addi	sp,sp,32
20000550:	8082                	ret
20000552:	0d800513          	li	a0,216
20000556:	01548863          	beq	s1,s5,20000566 <FLASH_CMD_ROM_ERASE+0x5e>
2000055a:	02000513          	li	a0,32
2000055e:	01648463          	beq	s1,s6,20000566 <FLASH_CMD_ROM_ERASE+0x5e>
20000562:	08100513          	li	a0,129
20000566:	85ca                	mv	a1,s2
20000568:	3569                	jal	200003f2 <FLASH_ROM_ADDR>
2000056a:	3dc1                	jal	2000043a <FLASH_ROM_WAIT>
2000056c:	c509                	beqz	a0,20000576 <FLASH_CMD_ROM_ERASE+0x6e>
2000056e:	9926                	add	s2,s2,s1
20000570:	409a0a33          	sub	s4,s4,s1
20000574:	bf75                	j	20000530 <FLASH_CMD_ROM_ERASE+0x28>
20000576:	557d                	li	a0,-1
20000578:	b7e1                	j	20000540 <FLASH_CMD_ROM_ERASE+0x38>

2000057a <FLASH_CMD_ROM_VERIFY>:
FLASH_CMD_ROM_VERIFY():
2000057a:	1101                	addi	sp,sp,-32
2000057c:	ce06                	sw	ra,28(sp)
2000057e:	cc26                	sw	s1,24(sp)
20000580:	ca4a                	sw	s2,20(sp)
20000582:	84b2                	mv	s1,a2
20000584:	c84e                	sw	s3,16(sp)
20000586:	c62a                	sw	a0,12(sp)
20000588:	892e                	mv	s2,a1
2000058a:	35e5                	jal	20000472 <FLASH_START>
2000058c:	4532                	lw	a0,12(sp)
2000058e:	14fd                	addi	s1,s1,-1
20000590:	59fd                	li	s3,-1
20000592:	85aa                	mv	a1,a0
20000594:	452d                	li	a0,11
20000596:	3db1                	jal	200003f2 <FLASH_ROM_ADDR>
20000598:	01349a63          	bne	s1,s3,200005ac <FLASH_CMD_ROM_VERIFY+0x32>
2000059c:	3535                	jal	200003c8 <FLASH_ROM_END>
2000059e:	40f2                	lw	ra,28(sp)
200005a0:	8526                	mv	a0,s1
200005a2:	4952                	lw	s2,20(sp)
200005a4:	44e2                	lw	s1,24(sp)
200005a6:	49c2                	lw	s3,16(sp)
200005a8:	6105                	addi	sp,sp,32
200005aa:	8082                	ret
200005ac:	352d                	jal	200003d6 <FLASH_ROM_IN>
200005ae:	0034f793          	andi	a5,s1,3
200005b2:	eb91                	bnez	a5,200005c6 <FLASH_CMD_ROM_VERIFY+0x4c>
200005b4:	80042683          	lw	a3,-2048(s0)
200005b8:	00092703          	lw	a4,0(s2)
200005bc:	00490793          	addi	a5,s2,4
200005c0:	fce69ee3          	bne	a3,a4,2000059c <FLASH_CMD_ROM_VERIFY+0x22>
200005c4:	893e                	mv	s2,a5
200005c6:	14fd                	addi	s1,s1,-1
200005c8:	bfc1                	j	20000598 <FLASH_CMD_ROM_VERIFY+0x1e>

200005ca <FLASH_CMD_ROM_PWR>:
FLASH_CMD_ROM_PWR():
200005ca:	1101                	addi	sp,sp,-32
200005cc:	ce06                	sw	ra,28(sp)
200005ce:	c62a                	sw	a0,12(sp)
200005d0:	354d                	jal	20000472 <FLASH_START>
200005d2:	4532                	lw	a0,12(sp)
200005d4:	33c5                	jal	200003b4 <FLASH_ROM_BEG>
200005d6:	40f2                	lw	ra,28(sp)
200005d8:	6105                	addi	sp,sp,32
200005da:	b3fd                	j	200003c8 <FLASH_ROM_END>

200005dc <FLASH_CMD_GET_ROM_INFO>:
FLASH_CMD_GET_ROM_INFO():
200005dc:	1101                	addi	sp,sp,-32
200005de:	ce06                	sw	ra,28(sp)
200005e0:	cc26                	sw	s1,24(sp)
200005e2:	ca4a                	sw	s2,20(sp)
200005e4:	c84e                	sw	s3,16(sp)
200005e6:	c652                	sw	s4,12(sp)
200005e8:	89aa                	mv	s3,a0
200005ea:	c456                	sw	s5,8(sp)
200005ec:	892e                	mv	s2,a1
200005ee:	3551                	jal	20000472 <FLASH_START>
200005f0:	000405b7          	lui	a1,0x40
200005f4:	00b9e5b3          	or	a1,s3,a1
200005f8:	452d                	li	a0,11
200005fa:	3be5                	jal	200003f2 <FLASH_ROM_ADDR>
200005fc:	4481                	li	s1,0
200005fe:	4a8d                	li	s5,3
20000600:	4a21                	li	s4,8
20000602:	3bd1                	jal	200003d6 <FLASH_ROM_IN>
20000604:	01549663          	bne	s1,s5,20000610 <FLASH_CMD_GET_ROM_INFO+0x34>
20000608:	80042783          	lw	a5,-2048(s0)
2000060c:	00f92023          	sw	a5,0(s2)
20000610:	0485                	addi	s1,s1,1
20000612:	ff4498e3          	bne	s1,s4,20000602 <FLASH_CMD_GET_ROM_INFO+0x26>
20000616:	80042783          	lw	a5,-2048(s0)
2000061a:	01299713          	slli	a4,s3,0x12
2000061e:	00075c63          	bgez	a4,20000636 <FLASH_CMD_GET_ROM_INFO+0x5a>
20000622:	00f91223          	sh	a5,4(s2)
20000626:	40f2                	lw	ra,28(sp)
20000628:	44e2                	lw	s1,24(sp)
2000062a:	4952                	lw	s2,20(sp)
2000062c:	49c2                	lw	s3,16(sp)
2000062e:	4a32                	lw	s4,12(sp)
20000630:	4aa2                	lw	s5,8(sp)
20000632:	6105                	addi	sp,sp,32
20000634:	bb51                	j	200003c8 <FLASH_ROM_END>
20000636:	00f92223          	sw	a5,4(s2)
2000063a:	b7f5                	j	20000626 <FLASH_CMD_GET_ROM_INFO+0x4a>

2000063c <FLASH_CMD_GET_UNIQUE_ID>:
FLASH_CMD_GET_UNIQUE_ID():
2000063c:	1141                	addi	sp,sp,-16
2000063e:	c606                	sw	ra,12(sp)
20000640:	c426                	sw	s1,8(sp)
20000642:	c24a                	sw	s2,4(sp)
20000644:	c04e                	sw	s3,0(sp)
20000646:	89ae                	mv	s3,a1
20000648:	352d                	jal	20000472 <FLASH_START>
2000064a:	4581                	li	a1,0
2000064c:	04b00513          	li	a0,75
20000650:	334d                	jal	200003f2 <FLASH_ROM_ADDR>
20000652:	44bd                	li	s1,15
20000654:	597d                	li	s2,-1
20000656:	3341                	jal	200003d6 <FLASH_ROM_IN>
20000658:	0074f793          	andi	a5,s1,7
2000065c:	97ce                	add	a5,a5,s3
2000065e:	0007c703          	lbu	a4,0(a5)
20000662:	14fd                	addi	s1,s1,-1
20000664:	8d39                	xor	a0,a0,a4
20000666:	00a78023          	sb	a0,0(a5)
2000066a:	ff2496e3          	bne	s1,s2,20000656 <FLASH_CMD_GET_UNIQUE_ID+0x1a>
2000066e:	40b2                	lw	ra,12(sp)
20000670:	44a2                	lw	s1,8(sp)
20000672:	4912                	lw	s2,4(sp)
20000674:	4982                	lw	s3,0(sp)
20000676:	0141                	addi	sp,sp,16
20000678:	bb81                	j	200003c8 <FLASH_ROM_END>

2000067a <FLASH_CMD_ROM_SW_RESET>:
FLASH_CMD_ROM_SW_RESET():
2000067a:	1141                	addi	sp,sp,-16
2000067c:	c606                	sw	ra,12(sp)
2000067e:	3bd5                	jal	20000472 <FLASH_START>
20000680:	06600513          	li	a0,102
20000684:	3b05                	jal	200003b4 <FLASH_ROM_BEG>
20000686:	3389                	jal	200003c8 <FLASH_ROM_END>
20000688:	09900513          	li	a0,153
2000068c:	3325                	jal	200003b4 <FLASH_ROM_BEG>
2000068e:	40b2                	lw	ra,12(sp)
20000690:	0141                	addi	sp,sp,16
20000692:	bb1d                	j	200003c8 <FLASH_ROM_END>

Disassembly of section .text:

00000698 <handle_reset>:
handle_reset():
c:\Users\seanw\mounriver-studio-projects\CH570D-ADC-Soil\obj/../Startup/startup_CH572.S:119
	.weak	handle_reset
	.align	1
handle_reset:
.option push 
.option	norelax 
	la gp, __global_pointer$
     698:	20001197          	auipc	gp,0x20001
     69c:	86018193          	addi	gp,gp,-1952 # 20000ef8 <__global_pointer$>
c:\Users\seanw\mounriver-studio-projects\CH570D-ADC-Soil\obj/../Startup/startup_CH572.S:121
1:
	la sp, _eusrstack 
     6a0:	20003117          	auipc	sp,0x20003
     6a4:	96010113          	addi	sp,sp,-1696 # 20003000 <_eusrstack>
c:\Users\seanw\mounriver-studio-projects\CH570D-ADC-Soil\obj/../Startup/startup_CH572.S:126
.option	pop

/* Load highcode code  section from flash to RAM */
2:
    la a0, _highcode_lma
     6a8:	00400513          	li	a0,4
c:\Users\seanw\mounriver-studio-projects\CH570D-ADC-Soil\obj/../Startup/startup_CH572.S:127
    la a1, _highcode_vma_start
     6ac:	20000597          	auipc	a1,0x20000
     6b0:	95458593          	addi	a1,a1,-1708 # 20000000 <_highcode_vma_start>
c:\Users\seanw\mounriver-studio-projects\CH570D-ADC-Soil\obj/../Startup/startup_CH572.S:128
    la a2, _highcode_vma_end
     6b4:	20000617          	auipc	a2,0x20000
     6b8:	fe060613          	addi	a2,a2,-32 # 20000694 <impure_data>
c:\Users\seanw\mounriver-studio-projects\CH570D-ADC-Soil\obj/../Startup/startup_CH572.S:129
    bgeu a1, a2, 2f
     6bc:	00c5fa63          	bgeu	a1,a2,6d0 <handle_reset+0x38>
c:\Users\seanw\mounriver-studio-projects\CH570D-ADC-Soil\obj/../Startup/startup_CH572.S:131
1:
    lw t0, (a0)
     6c0:	00052283          	lw	t0,0(a0)
c:\Users\seanw\mounriver-studio-projects\CH570D-ADC-Soil\obj/../Startup/startup_CH572.S:132
    sw t0, (a1)
     6c4:	0055a023          	sw	t0,0(a1)
c:\Users\seanw\mounriver-studio-projects\CH570D-ADC-Soil\obj/../Startup/startup_CH572.S:133
    addi a0, a0, 4
     6c8:	0511                	addi	a0,a0,4
c:\Users\seanw\mounriver-studio-projects\CH570D-ADC-Soil\obj/../Startup/startup_CH572.S:134
    addi a1, a1, 4
     6ca:	0591                	addi	a1,a1,4
c:\Users\seanw\mounriver-studio-projects\CH570D-ADC-Soil\obj/../Startup/startup_CH572.S:135
    bltu a1, a2, 1b
     6cc:	fec5eae3          	bltu	a1,a2,6c0 <handle_reset+0x28>
c:\Users\seanw\mounriver-studio-projects\CH570D-ADC-Soil\obj/../Startup/startup_CH572.S:139

/* Load data section from flash to RAM */
2:
	la a0, _data_lma
     6d0:	00001517          	auipc	a0,0x1
     6d4:	7b450513          	addi	a0,a0,1972 # 1e84 <_data_lma>
c:\Users\seanw\mounriver-studio-projects\CH570D-ADC-Soil\obj/../Startup/startup_CH572.S:140
	la a1, _data_vma
     6d8:	20000597          	auipc	a1,0x20000
     6dc:	fbc58593          	addi	a1,a1,-68 # 20000694 <impure_data>
c:\Users\seanw\mounriver-studio-projects\CH570D-ADC-Soil\obj/../Startup/startup_CH572.S:141
	la a2, _edata
     6e0:	80c18613          	addi	a2,gp,-2036 # 20000704 <Freq_LSI>
c:\Users\seanw\mounriver-studio-projects\CH570D-ADC-Soil\obj/../Startup/startup_CH572.S:142
	bgeu a1, a2, 2f
     6e4:	00c5fa63          	bgeu	a1,a2,6f8 <handle_reset+0x60>
c:\Users\seanw\mounriver-studio-projects\CH570D-ADC-Soil\obj/../Startup/startup_CH572.S:144
1:
	lw t0, (a0)
     6e8:	00052283          	lw	t0,0(a0)
c:\Users\seanw\mounriver-studio-projects\CH570D-ADC-Soil\obj/../Startup/startup_CH572.S:145
	sw t0, (a1)
     6ec:	0055a023          	sw	t0,0(a1)
c:\Users\seanw\mounriver-studio-projects\CH570D-ADC-Soil\obj/../Startup/startup_CH572.S:146
	addi a0, a0, 4
     6f0:	0511                	addi	a0,a0,4
c:\Users\seanw\mounriver-studio-projects\CH570D-ADC-Soil\obj/../Startup/startup_CH572.S:147
	addi a1, a1, 4
     6f2:	0591                	addi	a1,a1,4
c:\Users\seanw\mounriver-studio-projects\CH570D-ADC-Soil\obj/../Startup/startup_CH572.S:148
	bltu a1, a2, 1b
     6f4:	fec5eae3          	bltu	a1,a2,6e8 <handle_reset+0x50>
c:\Users\seanw\mounriver-studio-projects\CH570D-ADC-Soil\obj/../Startup/startup_CH572.S:151
2:
	/* clear bss section */
	la a0, _sbss
     6f8:	80c18513          	addi	a0,gp,-2036 # 20000704 <Freq_LSI>
c:\Users\seanw\mounriver-studio-projects\CH570D-ADC-Soil\obj/../Startup/startup_CH572.S:152
	la a1, _ebss
     6fc:	82818593          	addi	a1,gp,-2008 # 20000720 <_ebss>
c:\Users\seanw\mounriver-studio-projects\CH570D-ADC-Soil\obj/../Startup/startup_CH572.S:153
	bgeu a0, a1, 2f
     700:	00b57763          	bgeu	a0,a1,70e <handle_reset+0x76>
c:\Users\seanw\mounriver-studio-projects\CH570D-ADC-Soil\obj/../Startup/startup_CH572.S:155
1:
	sw zero, (a0)
     704:	00052023          	sw	zero,0(a0)
c:\Users\seanw\mounriver-studio-projects\CH570D-ADC-Soil\obj/../Startup/startup_CH572.S:156
	addi a0, a0, 4
     708:	0511                	addi	a0,a0,4
c:\Users\seanw\mounriver-studio-projects\CH570D-ADC-Soil\obj/../Startup/startup_CH572.S:157
	bltu a0, a1, 1b
     70a:	feb56de3          	bltu	a0,a1,704 <handle_reset+0x6c>
c:\Users\seanw\mounriver-studio-projects\CH570D-ADC-Soil\obj/../Startup/startup_CH572.S:161
2:
	/*  */
	/**/
	li t0, 0x25
     70e:	02500293          	li	t0,37
c:\Users\seanw\mounriver-studio-projects\CH570D-ADC-Soil\obj/../Startup/startup_CH572.S:162
	csrw 0xbc0, t0
     712:	bc029073          	csrw	0xbc0,t0
c:\Users\seanw\mounriver-studio-projects\CH570D-ADC-Soil\obj/../Startup/startup_CH572.S:164
	/*  */
	li t0, 0x3
     716:	428d                	li	t0,3
c:\Users\seanw\mounriver-studio-projects\CH570D-ADC-Soil\obj/../Startup/startup_CH572.S:165
	csrw 0x804, t0
     718:	80429073          	csrw	0x804,t0
c:\Users\seanw\mounriver-studio-projects\CH570D-ADC-Soil\obj/../Startup/startup_CH572.S:166
	li t0, 0x1
     71c:	4285                	li	t0,1
c:\Users\seanw\mounriver-studio-projects\CH570D-ADC-Soil\obj/../Startup/startup_CH572.S:167
	csrw 0xbc1, t0
     71e:	bc129073          	csrw	0xbc1,t0
c:\Users\seanw\mounriver-studio-projects\CH570D-ADC-Soil\obj/../Startup/startup_CH572.S:169
	
    li t0, 0x88
     722:	08800293          	li	t0,136
c:\Users\seanw\mounriver-studio-projects\CH570D-ADC-Soil\obj/../Startup/startup_CH572.S:170
    csrw mstatus, t0
     726:	30029073          	csrw	mstatus,t0
c:\Users\seanw\mounriver-studio-projects\CH570D-ADC-Soil\obj/../Startup/startup_CH572.S:171
	la t0, _vector_base
     72a:	20000297          	auipc	t0,0x20000
     72e:	8d628293          	addi	t0,t0,-1834 # 20000000 <_highcode_vma_start>
c:\Users\seanw\mounriver-studio-projects\CH570D-ADC-Soil\obj/../Startup/startup_CH572.S:174

	/*  */
    ori t0, t0, 3
     732:	0032e293          	ori	t0,t0,3
c:\Users\seanw\mounriver-studio-projects\CH570D-ADC-Soil\obj/../Startup/startup_CH572.S:175
	csrw mtvec, t0
     736:	30529073          	csrw	mtvec,t0
c:\Users\seanw\mounriver-studio-projects\CH570D-ADC-Soil\obj/../Startup/startup_CH572.S:177

	la t0, main
     73a:	00000297          	auipc	t0,0x0
     73e:	0d828293          	addi	t0,t0,216 # 812 <main>
c:\Users\seanw\mounriver-studio-projects\CH570D-ADC-Soil\obj/../Startup/startup_CH572.S:178
	csrw mepc, t0
     742:	34129073          	csrw	mepc,t0
c:\Users\seanw\mounriver-studio-projects\CH570D-ADC-Soil\obj/../Startup/startup_CH572.S:180
	
	mret
     746:	30200073          	mret

0000074a <memset>:
memset():
     74a:	832a                	mv	t1,a0
     74c:	c611                	beqz	a2,758 <memset+0xe>
     74e:	00b30023          	sb	a1,0(t1)
     752:	167d                	addi	a2,a2,-1
     754:	0305                	addi	t1,t1,1
     756:	fe65                	bnez	a2,74e <memset+0x4>
     758:	8082                	ret

0000075a <ADC_Moisture_Sample>:
ADC_Moisture_Sample():
c:\Users\seanw\mounriver-studio-projects\CH570D-ADC-Soil\obj/../src/Main.c:67
        }
    }
}

uint32_t ADC_Moisture_Sample()
{
     75a:	7179                	addi	sp,sp,-48
     75c:	d226                	sw	s1,36(sp)
     75e:	ce4e                	sw	s3,28(sp)
     760:	ca56                	sw	s5,20(sp)
     762:	c85a                	sw	s6,16(sp)
     764:	c65e                	sw	s7,12(sp)
     766:	c462                	sw	s8,8(sp)
     768:	c266                	sw	s9,4(sp)
     76a:	d606                	sw	ra,44(sp)
     76c:	d422                	sw	s0,40(sp)
     76e:	d04a                	sw	s2,32(sp)
     770:	cc52                	sw	s4,24(sp)
     772:	4b15                	li	s6,5
c:\Users\seanw\mounriver-studio-projects\CH570D-ADC-Soil\obj/../src/Main.c:69
    uint32_t vref = 4;  // Start lower
    uint32_t cmp_count = 1;
     774:	4a85                	li	s5,1
c:\Users\seanw\mounriver-studio-projects\CH570D-ADC-Soil\obj/../src/Main.c:68
    uint32_t vref = 4;  // Start lower
     776:	4491                	li	s1,4
c:\Users\seanw\mounriver-studio-projects\CH570D-ADC-Soil\obj/../src/Main.c:78
        uint8_t cmp_out = 0;
        uint8_t cmp_out_last = 0;
        
        // Reduce the reference voltage range
        CMP_Init(cmp_sw_3, vref);  
        CMP_Enable();
     778:	400019b7          	lui	s3,0x40001
c:\Users\seanw\mounriver-studio-projects\CH570D-ADC-Soil\obj/../src/Main.c:84
        DelayUs(10);  // Longer stabilization for higher resistance
        
        cmp_out_last = CMP_ReadAPROut();
        uint8_t stable_count = 0;
        
        while(stable_count < 5)  // More stable reading
     77c:	4c15                	li	s8,5
c:\Users\seanw\mounriver-studio-projects\CH570D-ADC-Soil\obj/../src/Main.c:103
            return vref;  // Raw value, scale externally
        }
        
        cmp_count <<= 1;
        if (cmp_out) {
            vref += 16 / cmp_count;  // Smaller steps
     77e:	4cc1                	li	s9,16
c:\Users\seanw\mounriver-studio-projects\CH570D-ADC-Soil\obj/../src/Main.c:108
        } else {
            vref -= 16 / cmp_count;
        }
        
        if(vref > 31) vref = 31;  // Prevent overflow
     780:	4bfd                	li	s7,31
c:\Users\seanw\mounriver-studio-projects\CH570D-ADC-Soil\obj/../src/Main.c:77
        CMP_Init(cmp_sw_3, vref);  
     782:	85a6                	mv	a1,s1
     784:	450d                	li	a0,3
     786:	2289                	jal	8c8 <CMP_Init>
c:\Users\seanw\mounriver-studio-projects\CH570D-ADC-Soil\obj/../src/Main.c:78
        CMP_Enable();
     788:	0549c783          	lbu	a5,84(s3) # 40001054 <_eusrstack+0x1fffe054>
c:\Users\seanw\mounriver-studio-projects\CH570D-ADC-Soil\obj/../src/Main.c:79
        DelayUs(10);  // Longer stabilization for higher resistance
     78c:	4529                	li	a0,10
c:\Users\seanw\mounriver-studio-projects\CH570D-ADC-Soil\obj/../src/Main.c:82
        uint8_t stable_count = 0;
     78e:	4401                	li	s0,0
c:\Users\seanw\mounriver-studio-projects\CH570D-ADC-Soil\obj/../src/Main.c:78
        CMP_Enable();
     790:	0017e793          	ori	a5,a5,1
     794:	04f98a23          	sb	a5,84(s3)
c:\Users\seanw\mounriver-studio-projects\CH570D-ADC-Soil\obj/../src/Main.c:79
        DelayUs(10);  // Longer stabilization for higher resistance
     798:	20000097          	auipc	ra,0x20000
     79c:	bbc080e7          	jalr	-1092(ra) # 20000354 <mDelayuS>
c:\Users\seanw\mounriver-studio-projects\CH570D-ADC-Soil\obj/../src/Main.c:81
        cmp_out_last = CMP_ReadAPROut();
     7a0:	0579c903          	lbu	s2,87(s3)
     7a4:	00297913          	andi	s2,s2,2
c:\Users\seanw\mounriver-studio-projects\CH570D-ADC-Soil\obj/../src/Main.c:86
            cmp_out = CMP_ReadAPROut();
     7a8:	0579ca03          	lbu	s4,87(s3)
     7ac:	002a7a13          	andi	s4,s4,2
c:\Users\seanw\mounriver-studio-projects\CH570D-ADC-Soil\obj/../src/Main.c:87
            if(cmp_out == cmp_out_last) {
     7b0:	012a0a63          	beq	s4,s2,7c4 <ADC_Moisture_Sample+0x6a>
c:\Users\seanw\mounriver-studio-projects\CH570D-ADC-Soil\obj/../src/Main.c:93
            DelayUs(1);
     7b4:	4505                	li	a0,1
     7b6:	20000097          	auipc	ra,0x20000
     7ba:	b9e080e7          	jalr	-1122(ra) # 20000354 <mDelayuS>
c:\Users\seanw\mounriver-studio-projects\CH570D-ADC-Soil\obj/../src/Main.c:90
                stable_count = 0;
     7be:	4401                	li	s0,0
c:\Users\seanw\mounriver-studio-projects\CH570D-ADC-Soil\obj/../src/Main.c:86
            cmp_out = CMP_ReadAPROut();
     7c0:	8952                	mv	s2,s4
     7c2:	b7dd                	j	7a8 <ADC_Moisture_Sample+0x4e>
c:\Users\seanw\mounriver-studio-projects\CH570D-ADC-Soil\obj/../src/Main.c:88
                stable_count++;
     7c4:	0405                	addi	s0,s0,1
     7c6:	0ff47413          	zext.b	s0,s0
c:\Users\seanw\mounriver-studio-projects\CH570D-ADC-Soil\obj/../src/Main.c:93
            DelayUs(1);
     7ca:	4505                	li	a0,1
     7cc:	20000097          	auipc	ra,0x20000
     7d0:	b88080e7          	jalr	-1144(ra) # 20000354 <mDelayuS>
c:\Users\seanw\mounriver-studio-projects\CH570D-ADC-Soil\obj/../src/Main.c:84
        while(stable_count < 5)  // More stable reading
     7d4:	ff8416e3          	bne	s0,s8,7c0 <ADC_Moisture_Sample+0x66>
c:\Users\seanw\mounriver-studio-projects\CH570D-ADC-Soil\obj/../src/Main.c:96
        if(cmp_count >= 16)  // More iterations for finer resolution
     7d8:	1b7d                	addi	s6,s6,-1 # fff <__sfmoreglue+0x25>
     7da:	000b0e63          	beqz	s6,7f6 <ADC_Moisture_Sample+0x9c>
c:\Users\seanw\mounriver-studio-projects\CH570D-ADC-Soil\obj/../src/Main.c:101
        cmp_count <<= 1;
     7de:	0a86                	slli	s5,s5,0x1
c:\Users\seanw\mounriver-studio-projects\CH570D-ADC-Soil\obj/../src/Main.c:103
            vref += 16 / cmp_count;  // Smaller steps
     7e0:	035cd733          	divu	a4,s9,s5
c:\Users\seanw\mounriver-studio-projects\CH570D-ADC-Soil\obj/../src/Main.c:105
            vref -= 16 / cmp_count;
     7e4:	40e487b3          	sub	a5,s1,a4
c:\Users\seanw\mounriver-studio-projects\CH570D-ADC-Soil\obj/../src/Main.c:102
        if (cmp_out) {
     7e8:	00090463          	beqz	s2,7f0 <ADC_Moisture_Sample+0x96>
c:\Users\seanw\mounriver-studio-projects\CH570D-ADC-Soil\obj/../src/Main.c:103
            vref += 16 / cmp_count;  // Smaller steps
     7ec:	00e487b3          	add	a5,s1,a4
c:\Users\seanw\mounriver-studio-projects\CH570D-ADC-Soil\obj/../src/Main.c:108
        if(vref > 31) vref = 31;  // Prevent overflow
     7f0:	0b77d4b3          	minu	s1,a5,s7
     7f4:	b779                	j	782 <ADC_Moisture_Sample+0x28>
c:\Users\seanw\mounriver-studio-projects\CH570D-ADC-Soil\obj/../src/Main.c:110
    }
}
     7f6:	50b2                	lw	ra,44(sp)
     7f8:	5422                	lw	s0,40(sp)
     7fa:	5902                	lw	s2,32(sp)
     7fc:	49f2                	lw	s3,28(sp)
     7fe:	4a62                	lw	s4,24(sp)
     800:	4ad2                	lw	s5,20(sp)
     802:	4b42                	lw	s6,16(sp)
     804:	4bb2                	lw	s7,12(sp)
     806:	4c22                	lw	s8,8(sp)
     808:	4c92                	lw	s9,4(sp)
     80a:	8526                	mv	a0,s1
     80c:	5492                	lw	s1,36(sp)
     80e:	6145                	addi	sp,sp,48
     810:	8082                	ret

00000812 <main>:
main():
c:\Users\seanw\mounriver-studio-projects\CH570D-ADC-Soil\obj/../src/Main.c:120
 * @brief   
 *
 * @return  none
 */
int main()
{
     812:	1141                	addi	sp,sp,-16
c:\Users\seanw\mounriver-studio-projects\CH570D-ADC-Soil\obj/../src/Main.c:121
    HSECFG_Capacitance(HSECap_18p);
     814:	4519                	li	a0,6
c:\Users\seanw\mounriver-studio-projects\CH570D-ADC-Soil\obj/../src/Main.c:120
{
     816:	c606                	sw	ra,12(sp)
     818:	c422                	sw	s0,8(sp)
c:\Users\seanw\mounriver-studio-projects\CH570D-ADC-Soil\obj/../src/Main.c:121
    HSECFG_Capacitance(HSECap_18p);
     81a:	28b9                	jal	878 <HSECFG_Capacitance>
c:\Users\seanw\mounriver-studio-projects\CH570D-ADC-Soil\obj/../src/Main.c:122
    SetSysClock(CLK_SOURCE_HSE_PLL_100MHz);
     81c:	04600513          	li	a0,70
     820:	20000097          	auipc	ra,0x20000
     824:	870080e7          	jalr	-1936(ra) # 20000090 <SetSysClock>
c:\Users\seanw\mounriver-studio-projects\CH570D-ADC-Soil\obj/../src/Main.c:124
    /* 1IO */
    GPIOA_SetBits( bTXD_0 );
     828:	40001437          	lui	s0,0x40001
     82c:	0b840793          	addi	a5,s0,184 # 400010b8 <_eusrstack+0x1fffe0b8>
     830:	4721                	li	a4,8
     832:	c398                	sw	a4,0(a5)
c:\Users\seanw\mounriver-studio-projects\CH570D-ADC-Soil\obj/../src/Main.c:125
    GPIOA_ModeCfg( bTXD_0, GPIO_ModeOut_PP_5mA );          // TXD-IO
     834:	458d                	li	a1,3
     836:	4521                	li	a0,8
     838:	2055                	jal	8dc <GPIOA_ModeCfg>
c:\Users\seanw\mounriver-studio-projects\CH570D-ADC-Soil\obj/../src/Main.c:126
    UART_Remap(ENABLE, UART_TX_REMAP_PA3, UART_RX_REMAP_PA2);
     83a:	4601                	li	a2,0
     83c:	4581                	li	a1,0
     83e:	4505                	li	a0,1
     840:	2425                	jal	a68 <UART_Remap>
c:\Users\seanw\mounriver-studio-projects\CH570D-ADC-Soil\obj/../src/Main.c:127
    UART_DefInit();
     842:	2ad5                	jal	a36 <UART_DefInit>
c:\Users\seanw\mounriver-studio-projects\CH570D-ADC-Soil\obj/../src/Main.c:128
    PRINT( "Start @ChipID=%02X\n", R8_CHIP_ID );
     844:	04144583          	lbu	a1,65(s0)
     848:	00001517          	auipc	a0,0x1
     84c:	50850513          	addi	a0,a0,1288 # 1d50 <_read+0xe>
c:\Users\seanw\mounriver-studio-projects\CH570D-ADC-Soil\obj/../src/Main.c:132
    GPIOA_ModeCfg(GPIO_Pin_7, GPIO_ModeIN_PD);

    while(1) {
        PRINT ("ADC_4bit_Sample %d\n",ADC_Moisture_Sample());
     850:	00001417          	auipc	s0,0x1
     854:	51440413          	addi	s0,s0,1300 # 1d64 <_read+0x22>
c:\Users\seanw\mounriver-studio-projects\CH570D-ADC-Soil\obj/../src/Main.c:128
    PRINT( "Start @ChipID=%02X\n", R8_CHIP_ID );
     858:	26bd                	jal	bc6 <iprintf>
c:\Users\seanw\mounriver-studio-projects\CH570D-ADC-Soil\obj/../src/Main.c:129
    GPIOA_ModeCfg(GPIO_Pin_7, GPIO_ModeIN_PD);
     85a:	4589                	li	a1,2
     85c:	08000513          	li	a0,128
     860:	28b5                	jal	8dc <GPIOA_ModeCfg>
c:\Users\seanw\mounriver-studio-projects\CH570D-ADC-Soil\obj/../src/Main.c:132 (discriminator 1)
        PRINT ("ADC_4bit_Sample %d\n",ADC_Moisture_Sample());
     862:	3de5                	jal	75a <ADC_Moisture_Sample>
     864:	85aa                	mv	a1,a0
     866:	8522                	mv	a0,s0
     868:	2eb9                	jal	bc6 <iprintf>
c:\Users\seanw\mounriver-studio-projects\CH570D-ADC-Soil\obj/../src/Main.c:134 (discriminator 1)

        DelayMs(2000);
     86a:	7d000513          	li	a0,2000
     86e:	20000097          	auipc	ra,0x20000
     872:	af4080e7          	jalr	-1292(ra) # 20000362 <mDelaymS>
c:\Users\seanw\mounriver-studio-projects\CH570D-ADC-Soil\obj/../src/Main.c:131 (discriminator 1)
    while(1) {
     876:	b7f5                	j	862 <main+0x50>

00000878 <HSECFG_Capacitance>:
HSECFG_Capacitance():
c:\Users\seanw\mounriver-studio-projects\CH570D-ADC-Soil\obj/../StdPeriphDriver/CH57x_clk.c:81
 */
void HSECFG_Capacitance(HSECapTypeDef c)
{
    uint8_t x32M_c;

    x32M_c = R8_XT32M_TUNE;
     878:	40001737          	lui	a4,0x40001
     87c:	04e74783          	lbu	a5,78(a4) # 4000104e <_eusrstack+0x1fffe04e>
c:\Users\seanw\mounriver-studio-projects\CH570D-ADC-Soil\obj/../StdPeriphDriver/CH57x_clk.c:82
    x32M_c = (x32M_c & 0x0f) | (c << 4);
     880:	0512                	slli	a0,a0,0x4
c:\Users\seanw\mounriver-studio-projects\CH570D-ADC-Soil\obj/../StdPeriphDriver/CH57x_clk.c:78
{
     882:	1141                	addi	sp,sp,-16
c:\Users\seanw\mounriver-studio-projects\CH570D-ADC-Soil\obj/../StdPeriphDriver/CH57x_clk.c:82
    x32M_c = (x32M_c & 0x0f) | (c << 4);
     884:	8bbd                	andi	a5,a5,15
     886:	8fc9                	or	a5,a5,a0
     888:	0ff7f793          	zext.b	a5,a5
__risc_v_disable_irq():
c:/Users/seanw/mounriver-studio-projects/CH570D-ADC-Soil/RVMSIS/core_riscv.h:154
    __asm volatile("csrrc %0, 0x800, %1" : \
     88c:	08800693          	li	a3,136
     890:	8006b6f3          	csrrc	a3,0x800,a3
c:/Users/seanw/mounriver-studio-projects/CH570D-ADC-Soil/RVMSIS/core_riscv.h:156
    return result & 0x88;
     894:	0886f693          	andi	a3,a3,136
HSECFG_Capacitance():
c:\Users\seanw\mounriver-studio-projects\CH570D-ADC-Soil\obj/../StdPeriphDriver/CH57x_clk.c:84

    sys_safe_access_enable();
     898:	c636                	sw	a3,12(sp)
     89a:	0000100f          	fence.i
     89e:	05700693          	li	a3,87
     8a2:	04d70023          	sb	a3,64(a4)
     8a6:	fa800693          	li	a3,-88
     8aa:	04d70023          	sb	a3,64(a4)
     8ae:	0000100f          	fence.i
c:\Users\seanw\mounriver-studio-projects\CH570D-ADC-Soil\obj/../StdPeriphDriver/CH57x_clk.c:85
    R8_XT32M_TUNE = x32M_c;
     8b2:	04f70723          	sb	a5,78(a4)
c:\Users\seanw\mounriver-studio-projects\CH570D-ADC-Soil\obj/../StdPeriphDriver/CH57x_clk.c:86
    sys_safe_access_disable();
     8b6:	04070023          	sb	zero,64(a4)
     8ba:	47b2                	lw	a5,12(sp)
__risc_v_enable_irq():
c:/Users/seanw/mounriver-studio-projects/CH570D-ADC-Soil/RVMSIS/core_riscv.h:138
    __asm volatile("csrrs %0, 0x800, %1" : \
     8bc:	8007a7f3          	csrrs	a5,0x800,a5
HSECFG_Capacitance():
c:\Users\seanw\mounriver-studio-projects\CH570D-ADC-Soil\obj/../StdPeriphDriver/CH57x_clk.c:86
     8c0:	0000100f          	fence.i
c:\Users\seanw\mounriver-studio-projects\CH570D-ADC-Soil\obj/../StdPeriphDriver/CH57x_clk.c:87
}
     8c4:	0141                	addi	sp,sp,16
     8c6:	8082                	ret

000008c8 <CMP_Init>:
CMP_Init():
c:\Users\seanw\mounriver-studio-projects\CH570D-ADC-Soil\obj/../StdPeriphDriver/CH57x_cmp.c:17

#include "CH57x_common.h"

void CMP_Init (CMPSwTypeDef s, CMPNrefLevelTypeDef v)
{
    R8_CMP_CTRL_0 = (s << 2)|(v << 4);
     8c8:	050a                	slli	a0,a0,0x2
     8ca:	0592                	slli	a1,a1,0x4
     8cc:	8d4d                	or	a0,a0,a1
     8ce:	0ff57513          	zext.b	a0,a0
     8d2:	400017b7          	lui	a5,0x40001
     8d6:	04a78a23          	sb	a0,84(a5) # 40001054 <_eusrstack+0x1fffe054>
c:\Users\seanw\mounriver-studio-projects\CH570D-ADC-Soil\obj/../StdPeriphDriver/CH57x_cmp.c:18
}
     8da:	8082                	ret

000008dc <GPIOA_ModeCfg>:
GPIOA_ModeCfg():
c:\Users\seanw\mounriver-studio-projects\CH570D-ADC-Soil\obj/../StdPeriphDriver/CH57x_gpio.c:27
 *
 * @return  none
 */
void GPIOA_ModeCfg(uint32_t pin, GPIOModeTypeDef mode)
{
    switch(mode)
     8dc:	4791                	li	a5,4
     8de:	04b7ec63          	bltu	a5,a1,936 <GPIOA_ModeCfg+0x5a>
     8e2:	00001797          	auipc	a5,0x1
     8e6:	49678793          	addi	a5,a5,1174 # 1d78 <_read+0x36>
     8ea:	20f5c5b3          	sh2add	a1,a1,a5
     8ee:	4198                	lw	a4,0(a1)
     8f0:	973e                	add	a4,a4,a5
     8f2:	400017b7          	lui	a5,0x40001
     8f6:	0b478793          	addi	a5,a5,180 # 400010b4 <_eusrstack+0x1fffe0b4>
     8fa:	8702                	jr	a4
c:\Users\seanw\mounriver-studio-projects\CH570D-ADC-Soil\obj/../StdPeriphDriver/CH57x_gpio.c:30
    {
        case GPIO_ModeIN_Floating:
            R32_PA_PD_DRV &= ~pin;
     8fc:	4394                	lw	a3,0(a5)
     8fe:	40001737          	lui	a4,0x40001
     902:	40a6f6b3          	andn	a3,a3,a0
c:\Users\seanw\mounriver-studio-projects\CH570D-ADC-Soil\obj/../StdPeriphDriver/CH57x_gpio.c:42
            R32_PA_PU |= pin;
            R32_PA_DIR &= ~pin;
            break;

        case GPIO_ModeIN_PD:
            R32_PA_PD_DRV |= pin;
     906:	c394                	sw	a3,0(a5)
c:\Users\seanw\mounriver-studio-projects\CH570D-ADC-Soil\obj/../StdPeriphDriver/CH57x_gpio.c:43
            R32_PA_PU &= ~pin;
     908:	0b070693          	addi	a3,a4,176 # 400010b0 <_eusrstack+0x1fffe0b0>
     90c:	429c                	lw	a5,0(a3)
     90e:	40a7f7b3          	andn	a5,a5,a0
     912:	a819                	j	928 <GPIOA_ModeCfg+0x4c>
c:\Users\seanw\mounriver-studio-projects\CH570D-ADC-Soil\obj/../StdPeriphDriver/CH57x_gpio.c:36
            R32_PA_PD_DRV &= ~pin;
     914:	4394                	lw	a3,0(a5)
     916:	40001737          	lui	a4,0x40001
     91a:	40a6f6b3          	andn	a3,a3,a0
     91e:	c394                	sw	a3,0(a5)
c:\Users\seanw\mounriver-studio-projects\CH570D-ADC-Soil\obj/../StdPeriphDriver/CH57x_gpio.c:37
            R32_PA_PU |= pin;
     920:	0b070693          	addi	a3,a4,176 # 400010b0 <_eusrstack+0x1fffe0b0>
     924:	429c                	lw	a5,0(a3)
     926:	8fc9                	or	a5,a5,a0
c:\Users\seanw\mounriver-studio-projects\CH570D-ADC-Soil\obj/../StdPeriphDriver/CH57x_gpio.c:43
            R32_PA_PU &= ~pin;
     928:	c29c                	sw	a5,0(a3)
c:\Users\seanw\mounriver-studio-projects\CH570D-ADC-Soil\obj/../StdPeriphDriver/CH57x_gpio.c:44
            R32_PA_DIR &= ~pin;
     92a:	0a070793          	addi	a5,a4,160
     92e:	4398                	lw	a4,0(a5)
     930:	40a77733          	andn	a4,a4,a0
c:\Users\seanw\mounriver-studio-projects\CH570D-ADC-Soil\obj/../StdPeriphDriver/CH57x_gpio.c:54
            R32_PA_DIR |= pin;
            break;

        case GPIO_ModeOut_PP_20mA:
            R32_PA_PD_DRV |= pin;
            R32_PA_DIR |= pin;
     934:	c398                	sw	a4,0(a5)
c:\Users\seanw\mounriver-studio-projects\CH570D-ADC-Soil\obj/../StdPeriphDriver/CH57x_gpio.c:60
            break;

        default:
            break;
    }
}
     936:	8082                	ret
c:\Users\seanw\mounriver-studio-projects\CH570D-ADC-Soil\obj/../StdPeriphDriver/CH57x_gpio.c:42
            R32_PA_PD_DRV |= pin;
     938:	4394                	lw	a3,0(a5)
     93a:	40001737          	lui	a4,0x40001
     93e:	8ec9                	or	a3,a3,a0
     940:	b7d9                	j	906 <GPIOA_ModeCfg+0x2a>
c:\Users\seanw\mounriver-studio-projects\CH570D-ADC-Soil\obj/../StdPeriphDriver/CH57x_gpio.c:48
            R32_PA_PD_DRV &= ~pin;
     942:	4398                	lw	a4,0(a5)
     944:	40a77733          	andn	a4,a4,a0
c:\Users\seanw\mounriver-studio-projects\CH570D-ADC-Soil\obj/../StdPeriphDriver/CH57x_gpio.c:53
            R32_PA_PD_DRV |= pin;
     948:	c398                	sw	a4,0(a5)
c:\Users\seanw\mounriver-studio-projects\CH570D-ADC-Soil\obj/../StdPeriphDriver/CH57x_gpio.c:54
            R32_PA_DIR |= pin;
     94a:	400017b7          	lui	a5,0x40001
     94e:	0a078793          	addi	a5,a5,160 # 400010a0 <_eusrstack+0x1fffe0a0>
     952:	4398                	lw	a4,0(a5)
     954:	8f49                	or	a4,a4,a0
     956:	bff9                	j	934 <GPIOA_ModeCfg+0x58>
c:\Users\seanw\mounriver-studio-projects\CH570D-ADC-Soil\obj/../StdPeriphDriver/CH57x_gpio.c:53
            R32_PA_PD_DRV |= pin;
     958:	4398                	lw	a4,0(a5)
     95a:	8f49                	or	a4,a4,a0
     95c:	b7f5                	j	948 <GPIOA_ModeCfg+0x6c>

0000095e <GetSysClock>:
GetSysClock():
c:\Users\seanw\mounriver-studio-projects\CH570D-ADC-Soil\obj/../StdPeriphDriver/CH57x_sys.c:101
    if((R8_CLK_SYS_CFG & RB_CLK_SYS_MOD) == RB_CLK_SYS_MOD)
     95e:	400017b7          	lui	a5,0x40001
     962:	2798                	lbu	a4,8(a5)
     964:	0c000693          	li	a3,192
     968:	0c077713          	andi	a4,a4,192
     96c:	00d71563          	bne	a4,a3,976 <GetSysClock+0x18>
c:\Users\seanw\mounriver-studio-projects\CH570D-ADC-Soil\obj/../StdPeriphDriver/CH57x_sys.c:103
        return (Freq_LSI);
     970:	80c1a503          	lw	a0,-2036(gp) # 20000704 <Freq_LSI>
     974:	8082                	ret
c:\Users\seanw\mounriver-studio-projects\CH570D-ADC-Soil\obj/../StdPeriphDriver/CH57x_sys.c:105
    else if((R8_CLK_SYS_CFG & RB_CLK_SYS_MOD) == 0x40)
     976:	2798                	lbu	a4,8(a5)
     978:	04000693          	li	a3,64
     97c:	0c077713          	andi	a4,a4,192
     980:	02d71063          	bne	a4,a3,9a0 <GetSysClock+0x42>
c:\Users\seanw\mounriver-studio-projects\CH570D-ADC-Soil\obj/../StdPeriphDriver/CH57x_sys.c:107
        return (600000000 / ((R8_CLK_SYS_CFG & 0x1f)?(R8_CLK_SYS_CFG & 0x1f):32));
     984:	2794                	lbu	a3,8(a5)
     986:	02000713          	li	a4,32
     98a:	8afd                	andi	a3,a3,31
     98c:	c299                	beqz	a3,992 <GetSysClock+0x34>
c:\Users\seanw\mounriver-studio-projects\CH570D-ADC-Soil\obj/../StdPeriphDriver/CH57x_sys.c:107 (discriminator 1)
     98e:	2798                	lbu	a4,8(a5)
     990:	8b7d                	andi	a4,a4,31
c:\Users\seanw\mounriver-studio-projects\CH570D-ADC-Soil\obj/../StdPeriphDriver/CH57x_sys.c:107 (discriminator 4)
     992:	23c34537          	lui	a0,0x23c34
     996:	60050513          	addi	a0,a0,1536 # 23c34600 <_eusrstack+0x3c31600>
c:\Users\seanw\mounriver-studio-projects\CH570D-ADC-Soil\obj/../StdPeriphDriver/CH57x_sys.c:111 (discriminator 4)
        return (32000000 / ((R8_CLK_SYS_CFG & 0x1f)?(R8_CLK_SYS_CFG & 0x1f):32));
     99a:	02e54533          	div	a0,a0,a4
c:\Users\seanw\mounriver-studio-projects\CH570D-ADC-Soil\obj/../StdPeriphDriver/CH57x_sys.c:113 (discriminator 4)
}
     99e:	8082                	ret
c:\Users\seanw\mounriver-studio-projects\CH570D-ADC-Soil\obj/../StdPeriphDriver/CH57x_sys.c:111
        return (32000000 / ((R8_CLK_SYS_CFG & 0x1f)?(R8_CLK_SYS_CFG & 0x1f):32));
     9a0:	2794                	lbu	a3,8(a5)
     9a2:	02000713          	li	a4,32
     9a6:	8afd                	andi	a3,a3,31
     9a8:	c299                	beqz	a3,9ae <GetSysClock+0x50>
c:\Users\seanw\mounriver-studio-projects\CH570D-ADC-Soil\obj/../StdPeriphDriver/CH57x_sys.c:111 (discriminator 1)
     9aa:	2798                	lbu	a4,8(a5)
     9ac:	8b7d                	andi	a4,a4,31
c:\Users\seanw\mounriver-studio-projects\CH570D-ADC-Soil\obj/../StdPeriphDriver/CH57x_sys.c:111 (discriminator 4)
     9ae:	01e85537          	lui	a0,0x1e85
     9b2:	80050513          	addi	a0,a0,-2048 # 1e84800 <_data_lma+0x1e8297c>
     9b6:	b7d5                	j	99a <GetSysClock+0x3c>

000009b8 <_write>:
_write():
c:\Users\seanw\mounriver-studio-projects\CH570D-ADC-Soil\obj/../StdPeriphDriver/CH57x_sys.c:376

#ifdef DEBUG
int _write(int fd, char *buf, int size)
{
     9b8:	8532                	mv	a0,a2
c:\Users\seanw\mounriver-studio-projects\CH570D-ADC-Soil\obj/../StdPeriphDriver/CH57x_sys.c:378
    int i;
    for(i = 0; i < size; i++)
     9ba:	4781                	li	a5,0
c:\Users\seanw\mounriver-studio-projects\CH570D-ADC-Soil\obj/../StdPeriphDriver/CH57x_sys.c:380
    {
        while(R8_UART_TFC == UART_FIFO_SIZE);                  /*  */
     9bc:	40003737          	lui	a4,0x40003
     9c0:	46a1                	li	a3,8
c:\Users\seanw\mounriver-studio-projects\CH570D-ADC-Soil\obj/../StdPeriphDriver/CH57x_sys.c:378 (discriminator 1)
    for(i = 0; i < size; i++)
     9c2:	00a7c363          	blt	a5,a0,9c8 <_write+0x10>
c:\Users\seanw\mounriver-studio-projects\CH570D-ADC-Soil\obj/../StdPeriphDriver/CH57x_sys.c:384
            R8_UART_THR = *buf++; /*  */
    }
    return size;
}
     9c6:	8082                	ret
c:\Users\seanw\mounriver-studio-projects\CH570D-ADC-Soil\obj/../StdPeriphDriver/CH57x_sys.c:380 (discriminator 1)
        while(R8_UART_TFC == UART_FIFO_SIZE);                  /*  */
     9c8:	40b74603          	lbu	a2,1035(a4) # 4000340b <_eusrstack+0x2000040b>
     9cc:	fed60ee3          	beq	a2,a3,9c8 <_write+0x10>
c:\Users\seanw\mounriver-studio-projects\CH570D-ADC-Soil\obj/../StdPeriphDriver/CH57x_sys.c:381 (discriminator 2)
            R8_UART_THR = *buf++; /*  */
     9d0:	00f58633          	add	a2,a1,a5
     9d4:	2210                	lbu	a2,0(a2)
c:\Users\seanw\mounriver-studio-projects\CH570D-ADC-Soil\obj/../StdPeriphDriver/CH57x_sys.c:378 (discriminator 2)
    for(i = 0; i < size; i++)
     9d6:	0785                	addi	a5,a5,1 # 40001001 <_eusrstack+0x1fffe001>
c:\Users\seanw\mounriver-studio-projects\CH570D-ADC-Soil\obj/../StdPeriphDriver/CH57x_sys.c:381 (discriminator 2)
            R8_UART_THR = *buf++; /*  */
     9d8:	40c70423          	sb	a2,1032(a4)
c:\Users\seanw\mounriver-studio-projects\CH570D-ADC-Soil\obj/../StdPeriphDriver/CH57x_sys.c:378 (discriminator 2)
    for(i = 0; i < size; i++)
     9dc:	b7dd                	j	9c2 <_write+0xa>

000009de <_sbrk>:
_sbrk():
c:\Users\seanw\mounriver-studio-projects\CH570D-ADC-Soil\obj/../StdPeriphDriver/CH57x_sys.c:401
void *_sbrk(ptrdiff_t incr)
{
    extern char _end[];
    static char *curbrk = _end;

    if ((curbrk + incr < _end) || ((uint32_t)curbrk + incr > (__get_SP() - 64)))
     9de:	20000697          	auipc	a3,0x20000
     9e2:	d1a68693          	addi	a3,a3,-742 # 200006f8 <curbrk.0>
c:\Users\seanw\mounriver-studio-projects\CH570D-ADC-Soil\obj/../StdPeriphDriver/CH57x_sys.c:397
{
     9e6:	87aa                	mv	a5,a0
c:\Users\seanw\mounriver-studio-projects\CH570D-ADC-Soil\obj/../StdPeriphDriver/CH57x_sys.c:401
    if ((curbrk + incr < _end) || ((uint32_t)curbrk + incr > (__get_SP() - 64)))
     9e8:	4288                	lw	a0,0(a3)
     9ea:	82818713          	addi	a4,gp,-2008 # 20000720 <_ebss>
     9ee:	97aa                	add	a5,a5,a0
     9f0:	00e7e963          	bltu	a5,a4,a02 <_sbrk+0x24>
__get_SP():
c:/Users/seanw/mounriver-studio-projects/CH570D-ADC-Soil/RVMSIS/core_riscv.h:630 (discriminator 1)
 */
__attribute__((always_inline)) RV_STATIC_INLINE uint32_t __get_SP(void)
{
    uint32_t result;

    __ASM volatile("mv %0," "sp" : "=r"(result) :);
     9f4:	870a                	mv	a4,sp
_sbrk():
c:\Users\seanw\mounriver-studio-projects\CH570D-ADC-Soil\obj/../StdPeriphDriver/CH57x_sys.c:401 (discriminator 1)
     9f6:	fc070713          	addi	a4,a4,-64
     9fa:	00f76463          	bltu	a4,a5,a02 <_sbrk+0x24>
c:\Users\seanw\mounriver-studio-projects\CH570D-ADC-Soil\obj/../StdPeriphDriver/CH57x_sys.c:404
    return NULL - 1;

    curbrk += incr;
     9fe:	c29c                	sw	a5,0(a3)
c:\Users\seanw\mounriver-studio-projects\CH570D-ADC-Soil\obj/../StdPeriphDriver/CH57x_sys.c:405
    return curbrk - incr;
     a00:	8082                	ret
c:\Users\seanw\mounriver-studio-projects\CH570D-ADC-Soil\obj/../StdPeriphDriver/CH57x_sys.c:402
    return NULL - 1;
     a02:	557d                	li	a0,-1
c:\Users\seanw\mounriver-studio-projects\CH570D-ADC-Soil\obj/../StdPeriphDriver/CH57x_sys.c:406
}
     a04:	8082                	ret

00000a06 <UART_BaudRateCfg>:
UART_BaudRateCfg():
c:\Users\seanw\mounriver-studio-projects\CH570D-ADC-Soil\obj/../StdPeriphDriver/CH57x_uart.c:43
 * @param   baudrate    - 
 *
 * @return  none
 */
void UART_BaudRateCfg(uint32_t baudrate)
{
     a06:	1141                	addi	sp,sp,-16
     a08:	c422                	sw	s0,8(sp)
     a0a:	c606                	sw	ra,12(sp)
     a0c:	842a                	mv	s0,a0
c:\Users\seanw\mounriver-studio-projects\CH570D-ADC-Soil\obj/../StdPeriphDriver/CH57x_uart.c:46
    uint32_t x;

    x = 10 * GetSysClock() / 8 / baudrate;
     a0e:	3f81                	jal	95e <GetSysClock>
     a10:	4729                	li	a4,10
     a12:	02e507b3          	mul	a5,a0,a4
c:\Users\seanw\mounriver-studio-projects\CH570D-ADC-Soil\obj/../StdPeriphDriver/CH57x_uart.c:49
    x = (x + 5) / 10;
    R16_UART_DL = (uint16_t)x;
}
     a16:	40b2                	lw	ra,12(sp)
c:\Users\seanw\mounriver-studio-projects\CH570D-ADC-Soil\obj/../StdPeriphDriver/CH57x_uart.c:46
    x = 10 * GetSysClock() / 8 / baudrate;
     a18:	838d                	srli	a5,a5,0x3
     a1a:	0287d7b3          	divu	a5,a5,s0
c:\Users\seanw\mounriver-studio-projects\CH570D-ADC-Soil\obj/../StdPeriphDriver/CH57x_uart.c:49
}
     a1e:	4422                	lw	s0,8(sp)
c:\Users\seanw\mounriver-studio-projects\CH570D-ADC-Soil\obj/../StdPeriphDriver/CH57x_uart.c:47
    x = (x + 5) / 10;
     a20:	0795                	addi	a5,a5,5
     a22:	02e7d7b3          	divu	a5,a5,a4
c:\Users\seanw\mounriver-studio-projects\CH570D-ADC-Soil\obj/../StdPeriphDriver/CH57x_uart.c:48
    R16_UART_DL = (uint16_t)x;
     a26:	40003737          	lui	a4,0x40003
     a2a:	0807c7b3          	zext.h	a5,a5
     a2e:	40f71623          	sh	a5,1036(a4) # 4000340c <_eusrstack+0x2000040c>
c:\Users\seanw\mounriver-studio-projects\CH570D-ADC-Soil\obj/../StdPeriphDriver/CH57x_uart.c:49
}
     a32:	0141                	addi	sp,sp,16
     a34:	8082                	ret

00000a36 <UART_DefInit>:
UART_DefInit():
c:\Users\seanw\mounriver-studio-projects\CH570D-ADC-Soil\obj/../StdPeriphDriver/CH57x_uart.c:26
    UART_BaudRateCfg(115200);
     a36:	6571                	lui	a0,0x1c
c:\Users\seanw\mounriver-studio-projects\CH570D-ADC-Soil\obj/../StdPeriphDriver/CH57x_uart.c:25
{
     a38:	1141                	addi	sp,sp,-16
c:\Users\seanw\mounriver-studio-projects\CH570D-ADC-Soil\obj/../StdPeriphDriver/CH57x_uart.c:26
    UART_BaudRateCfg(115200);
     a3a:	20050513          	addi	a0,a0,512 # 1c200 <_data_lma+0x1a37c>
c:\Users\seanw\mounriver-studio-projects\CH570D-ADC-Soil\obj/../StdPeriphDriver/CH57x_uart.c:25
{
     a3e:	c606                	sw	ra,12(sp)
c:\Users\seanw\mounriver-studio-projects\CH570D-ADC-Soil\obj/../StdPeriphDriver/CH57x_uart.c:26
    UART_BaudRateCfg(115200);
     a40:	37d9                	jal	a06 <UART_BaudRateCfg>
c:\Users\seanw\mounriver-studio-projects\CH570D-ADC-Soil\obj/../StdPeriphDriver/CH57x_uart.c:27
    R8_UART_FCR = (2 << 6) | RB_FCR_FIFO_EN; // FIFO4
     a42:	400037b7          	lui	a5,0x40003
     a46:	f8100713          	li	a4,-127
     a4a:	40e78123          	sb	a4,1026(a5) # 40003402 <_eusrstack+0x20000402>
c:\Users\seanw\mounriver-studio-projects\CH570D-ADC-Soil\obj/../StdPeriphDriver/CH57x_uart.c:28
    R8_UART_LCR = RB_LCR_WORD_SZ;
     a4e:	470d                	li	a4,3
     a50:	40e781a3          	sb	a4,1027(a5)
c:\Users\seanw\mounriver-studio-projects\CH570D-ADC-Soil\obj/../StdPeriphDriver/CH57x_uart.c:29
    R8_UART_IER = RB_IER_TXD_EN;
     a54:	04000713          	li	a4,64
     a58:	40e780a3          	sb	a4,1025(a5)
c:\Users\seanw\mounriver-studio-projects\CH570D-ADC-Soil\obj/../StdPeriphDriver/CH57x_uart.c:30
    R8_UART_DIV = 1;
     a5c:	4705                	li	a4,1
     a5e:	40e78723          	sb	a4,1038(a5)
c:\Users\seanw\mounriver-studio-projects\CH570D-ADC-Soil\obj/../StdPeriphDriver/CH57x_uart.c:31
}
     a62:	40b2                	lw	ra,12(sp)
     a64:	0141                	addi	sp,sp,16
     a66:	8082                	ret

00000a68 <UART_Remap>:
UART_Remap():
c:\Users\seanw\mounriver-studio-projects\CH570D-ADC-Soil\obj/../StdPeriphDriver/CH57x_uart.c:153
 */
void UART_Remap(FunctionalState s, UARTTxPinRemapDef u_tx, UARTRxPinRemapDef u_rx)
{
    if(s)
    {
        R16_PIN_ALTERNATE_H &= ~(RB_UART_TXD | RB_UART_RXD); // ShutDown0
     a68:	40001737          	lui	a4,0x40001
     a6c:	2f3e                	lhu	a5,26(a4)
     a6e:	0807c7b3          	zext.h	a5,a5
     a72:	fc07f793          	andi	a5,a5,-64
     a76:	0807c7b3          	zext.h	a5,a5
     a7a:	af3e                	sh	a5,26(a4)
c:\Users\seanw\mounriver-studio-projects\CH570D-ADC-Soil\obj/../StdPeriphDriver/CH57x_uart.c:151
    if(s)
     a7c:	c909                	beqz	a0,a8e <UART_Remap+0x26>
c:\Users\seanw\mounriver-studio-projects\CH570D-ADC-Soil\obj/../StdPeriphDriver/CH57x_uart.c:154
        R16_PIN_ALTERNATE_H |= (u_tx << 3) | u_rx;
     a7e:	2f3e                	lhu	a5,26(a4)
     a80:	058e                	slli	a1,a1,0x3
     a82:	8e5d                	or	a2,a2,a5
     a84:	8dd1                	or	a1,a1,a2
     a86:	0805c5b3          	zext.h	a1,a1
     a8a:	af2e                	sh	a1,26(a4)
     a8c:	8082                	ret
c:\Users\seanw\mounriver-studio-projects\CH570D-ADC-Soil\obj/../StdPeriphDriver/CH57x_uart.c:160
    }
    else
    {
        R16_PIN_ALTERNATE_H &= ~(RB_UART_TXD | RB_UART_RXD);
    }
}
     a8e:	8082                	ret

00000a90 <FLASH_EEPROM_CMD>:
FLASH_EEPROM_CMD():
     a90:	1101                	addi	sp,sp,-32
     a92:	872a                	mv	a4,a0
     a94:	ce06                	sw	ra,28(sp)
     a96:	852e                	mv	a0,a1
     a98:	cc26                	sw	s1,24(sp)
     a9a:	85b2                	mv	a1,a2
     a9c:	ca4a                	sw	s2,20(sp)
     a9e:	8636                	mv	a2,a3
     aa0:	c622                	sw	s0,12(sp)
     aa2:	40002437          	lui	s0,0x40002
     aa6:	e000e7b7          	lui	a5,0xe000e
     aaa:	56fd                	li	a3,-1
     aac:	0007a903          	lw	s2,0(a5) # e000e000 <_eusrstack+0xc000b000>
     ab0:	43c4                	lw	s1,4(a5)
     ab2:	18d7a023          	sw	a3,384(a5)
     ab6:	18d7a223          	sw	a3,388(a5)
     aba:	fff70793          	addi	a5,a4,-1 # 40000fff <_eusrstack+0x1fffdfff>
     abe:	0ff7f793          	zext.b	a5,a5
     ac2:	4689                	li	a3,2
     ac4:	0af6e063          	bltu	a3,a5,b64 <FLASH_EEPROM_CMD+0xd4>
     ac8:	400017b7          	lui	a5,0x40001
     acc:	0457c783          	lbu	a5,69(a5) # 40001045 <_eusrstack+0x1fffe045>
     ad0:	000406b7          	lui	a3,0x40
     ad4:	0207f793          	andi	a5,a5,32
     ad8:	e399                	bnez	a5,ade <FLASH_EEPROM_CMD+0x4e>
     ada:	0003c6b7          	lui	a3,0x3c
     ade:	57f9                	li	a5,-2
     ae0:	04d57563          	bgeu	a0,a3,b2a <FLASH_EEPROM_CMD+0x9a>
     ae4:	00c50833          	add	a6,a0,a2
     ae8:	0506e163          	bltu	a3,a6,b2a <FLASH_EEPROM_CMD+0x9a>
     aec:	4789                	li	a5,2
     aee:	04f71463          	bne	a4,a5,b36 <FLASH_EEPROM_CMD+0xa6>
     af2:	8209                	srli	a2,a2,0x2
     af4:	20000097          	auipc	ra,0x20000
     af8:	9b4080e7          	jalr	-1612(ra) # 200004a8 <FLASH_CMD_ROM_WRITE>
     afc:	87aa                	mv	a5,a0
     afe:	40001737          	lui	a4,0x40001
     b02:	05700693          	li	a3,87
     b06:	04d70023          	sb	a3,64(a4) # 40001040 <_eusrstack+0x1fffe040>
     b0a:	fa800693          	li	a3,-88
     b0e:	04d70023          	sb	a3,64(a4)
     b12:	04474683          	lbu	a3,68(a4)
     b16:	8ac1                	andi	a3,a3,16
     b18:	04d70223          	sb	a3,68(a4)
     b1c:	e000e737          	lui	a4,0xe000e
     b20:	11272023          	sw	s2,256(a4) # e000e100 <_eusrstack+0xc000b100>
     b24:	10972223          	sw	s1,260(a4)
     b28:	4432                	lw	s0,12(sp)
     b2a:	40f2                	lw	ra,28(sp)
     b2c:	44e2                	lw	s1,24(sp)
     b2e:	4952                	lw	s2,20(sp)
     b30:	853e                	mv	a0,a5
     b32:	6105                	addi	sp,sp,32
     b34:	8082                	ret
     b36:	4785                	li	a5,1
     b38:	00f71f63          	bne	a4,a5,b56 <FLASH_EEPROM_CMD+0xc6>
     b3c:	6785                	lui	a5,0x1
     b3e:	17fd                	addi	a5,a5,-1 # fff <__sfmoreglue+0x25>
     b40:	963e                	add	a2,a2,a5
     b42:	8fe9                	and	a5,a5,a0
     b44:	963e                	add	a2,a2,a5
     b46:	77fd                	lui	a5,0xfffff
     b48:	8e7d                	and	a2,a2,a5
     b4a:	8d7d                	and	a0,a0,a5
     b4c:	20000097          	auipc	ra,0x20000
     b50:	9bc080e7          	jalr	-1604(ra) # 20000508 <FLASH_CMD_ROM_ERASE>
     b54:	b765                	j	afc <FLASH_EEPROM_CMD+0x6c>
     b56:	20000097          	auipc	ra,0x20000
     b5a:	a24080e7          	jalr	-1500(ra) # 2000057a <FLASH_CMD_ROM_VERIFY>
     b5e:	00150793          	addi	a5,a0,1
     b62:	bf71                	j	afe <FLASH_EEPROM_CMD+0x6e>
     b64:	47b5                	li	a5,13
     b66:	00f71a63          	bne	a4,a5,b7a <FLASH_EEPROM_CMD+0xea>
     b6a:	0b900513          	li	a0,185
     b6e:	20000097          	auipc	ra,0x20000
     b72:	a5c080e7          	jalr	-1444(ra) # 200005ca <FLASH_CMD_ROM_PWR>
     b76:	4781                	li	a5,0
     b78:	b759                	j	afe <FLASH_EEPROM_CMD+0x6e>
     b7a:	47b1                	li	a5,12
     b7c:	00f71563          	bne	a4,a5,b86 <FLASH_EEPROM_CMD+0xf6>
     b80:	0ab00513          	li	a0,171
     b84:	b7ed                	j	b6e <FLASH_EEPROM_CMD+0xde>
     b86:	4799                	li	a5,6
     b88:	00f71763          	bne	a4,a5,b96 <FLASH_EEPROM_CMD+0x106>
     b8c:	20000097          	auipc	ra,0x20000
     b90:	a50080e7          	jalr	-1456(ra) # 200005dc <FLASH_CMD_GET_ROM_INFO>
     b94:	b7cd                	j	b76 <FLASH_EEPROM_CMD+0xe6>
     b96:	479d                	li	a5,7
     b98:	00f71b63          	bne	a4,a5,bae <FLASH_EEPROM_CMD+0x11e>
     b9c:	0005a023          	sw	zero,0(a1)
     ba0:	0005a223          	sw	zero,4(a1)
     ba4:	20000097          	auipc	ra,0x20000
     ba8:	a98080e7          	jalr	-1384(ra) # 2000063c <FLASH_CMD_GET_UNIQUE_ID>
     bac:	b7e9                	j	b76 <FLASH_EEPROM_CMD+0xe6>
     bae:	4791                	li	a5,4
     bb0:	00f71763          	bne	a4,a5,bbe <FLASH_EEPROM_CMD+0x12e>
     bb4:	20000097          	auipc	ra,0x20000
     bb8:	ac6080e7          	jalr	-1338(ra) # 2000067a <FLASH_CMD_ROM_SW_RESET>
     bbc:	bf6d                	j	b76 <FLASH_EEPROM_CMD+0xe6>
     bbe:	4781                	li	a5,0
     bc0:	df1d                	beqz	a4,afe <FLASH_EEPROM_CMD+0x6e>
     bc2:	57f1                	li	a5,-4
     bc4:	bf2d                	j	afe <FLASH_EEPROM_CMD+0x6e>

00000bc6 <iprintf>:
printf():
     bc6:	715d                	addi	sp,sp,-80
     bc8:	d422                	sw	s0,40(sp)
     bca:	d606                	sw	ra,44(sp)
     bcc:	842a                	mv	s0,a0
     bce:	da2e                	sw	a1,52(sp)
     bd0:	dc32                	sw	a2,56(sp)
     bd2:	de36                	sw	a3,60(sp)
     bd4:	c0ba                	sw	a4,64(sp)
     bd6:	c2be                	sw	a5,68(sp)
     bd8:	c4c2                	sw	a6,72(sp)
     bda:	c6c6                	sw	a7,76(sp)
     bdc:	20000517          	auipc	a0,0x20000
     be0:	b2052503          	lw	a0,-1248(a0) # 200006fc <_impure_ptr>
     be4:	c511                	beqz	a0,bf0 <iprintf+0x2a>
     be6:	4d1c                	lw	a5,24(a0)
     be8:	e781                	bnez	a5,bf0 <iprintf+0x2a>
     bea:	c62a                	sw	a0,12(sp)
     bec:	21b1                	jal	1038 <__sinit>
     bee:	4532                	lw	a0,12(sp)
     bf0:	450c                	lw	a1,8(a0)
     bf2:	1854                	addi	a3,sp,52
     bf4:	8622                	mv	a2,s0
     bf6:	ce36                	sw	a3,28(sp)
     bf8:	103000ef          	jal	ra,14fa <_vfiprintf_r>
     bfc:	50b2                	lw	ra,44(sp)
     bfe:	5422                	lw	s0,40(sp)
     c00:	6161                	addi	sp,sp,80
     c02:	8082                	ret

00000c04 <__swbuf_r>:
__swbuf_r():
     c04:	1101                	addi	sp,sp,-32
     c06:	cc22                	sw	s0,24(sp)
     c08:	ca26                	sw	s1,20(sp)
     c0a:	c84a                	sw	s2,16(sp)
     c0c:	ce06                	sw	ra,28(sp)
     c0e:	c64e                	sw	s3,12(sp)
     c10:	84aa                	mv	s1,a0
     c12:	892e                	mv	s2,a1
     c14:	8432                	mv	s0,a2
     c16:	c501                	beqz	a0,c1e <__swbuf_r+0x1a>
     c18:	4d1c                	lw	a5,24(a0)
     c1a:	e391                	bnez	a5,c1e <__swbuf_r+0x1a>
     c1c:	2931                	jal	1038 <__sinit>
     c1e:	00001797          	auipc	a5,0x1
     c22:	1ae78793          	addi	a5,a5,430 # 1dcc <__sf_fake_stdin>
     c26:	02f41763          	bne	s0,a5,c54 <__swbuf_r+0x50>
     c2a:	40c0                	lw	s0,4(s1)
     c2c:	4c1c                	lw	a5,24(s0)
     c2e:	c41c                	sw	a5,8(s0)
     c30:	245e                	lhu	a5,12(s0)
     c32:	8ba1                	andi	a5,a5,8
     c34:	c399                	beqz	a5,c3a <__swbuf_r+0x36>
     c36:	481c                	lw	a5,16(s0)
     c38:	ef95                	bnez	a5,c74 <__swbuf_r+0x70>
     c3a:	85a2                	mv	a1,s0
     c3c:	8526                	mv	a0,s1
     c3e:	2049                	jal	cc0 <__swsetup_r>
     c40:	c915                	beqz	a0,c74 <__swbuf_r+0x70>
     c42:	597d                	li	s2,-1
     c44:	40f2                	lw	ra,28(sp)
     c46:	4462                	lw	s0,24(sp)
     c48:	44d2                	lw	s1,20(sp)
     c4a:	49b2                	lw	s3,12(sp)
     c4c:	854a                	mv	a0,s2
     c4e:	4942                	lw	s2,16(sp)
     c50:	6105                	addi	sp,sp,32
     c52:	8082                	ret
     c54:	00001797          	auipc	a5,0x1
     c58:	15878793          	addi	a5,a5,344 # 1dac <__sf_fake_stdout>
     c5c:	00f41463          	bne	s0,a5,c64 <__swbuf_r+0x60>
     c60:	4480                	lw	s0,8(s1)
     c62:	b7e9                	j	c2c <__swbuf_r+0x28>
     c64:	00001797          	auipc	a5,0x1
     c68:	12878793          	addi	a5,a5,296 # 1d8c <__sf_fake_stderr>
     c6c:	fcf410e3          	bne	s0,a5,c2c <__swbuf_r+0x28>
     c70:	44c0                	lw	s0,12(s1)
     c72:	bf6d                	j	c2c <__swbuf_r+0x28>
     c74:	481c                	lw	a5,16(s0)
     c76:	4008                	lw	a0,0(s0)
     c78:	0ff97993          	zext.b	s3,s2
     c7c:	0ff97913          	zext.b	s2,s2
     c80:	8d1d                	sub	a0,a0,a5
     c82:	485c                	lw	a5,20(s0)
     c84:	00f54663          	blt	a0,a5,c90 <__swbuf_r+0x8c>
     c88:	85a2                	mv	a1,s0
     c8a:	8526                	mv	a0,s1
     c8c:	2ca1                	jal	ee4 <_fflush_r>
     c8e:	f955                	bnez	a0,c42 <__swbuf_r+0x3e>
     c90:	441c                	lw	a5,8(s0)
     c92:	0505                	addi	a0,a0,1
     c94:	17fd                	addi	a5,a5,-1
     c96:	c41c                	sw	a5,8(s0)
     c98:	401c                	lw	a5,0(s0)
     c9a:	00178713          	addi	a4,a5,1
     c9e:	c018                	sw	a4,0(s0)
     ca0:	01378023          	sb	s3,0(a5)
     ca4:	485c                	lw	a5,20(s0)
     ca6:	00a78863          	beq	a5,a0,cb6 <__swbuf_r+0xb2>
     caa:	245e                	lhu	a5,12(s0)
     cac:	8b85                	andi	a5,a5,1
     cae:	dbd9                	beqz	a5,c44 <__swbuf_r+0x40>
     cb0:	47a9                	li	a5,10
     cb2:	f8f919e3          	bne	s2,a5,c44 <__swbuf_r+0x40>
     cb6:	85a2                	mv	a1,s0
     cb8:	8526                	mv	a0,s1
     cba:	242d                	jal	ee4 <_fflush_r>
     cbc:	d541                	beqz	a0,c44 <__swbuf_r+0x40>
     cbe:	b751                	j	c42 <__swbuf_r+0x3e>

00000cc0 <__swsetup_r>:
__swsetup_r():
     cc0:	1141                	addi	sp,sp,-16
     cc2:	c422                	sw	s0,8(sp)
     cc4:	c226                	sw	s1,4(sp)
     cc6:	c04a                	sw	s2,0(sp)
     cc8:	c606                	sw	ra,12(sp)
     cca:	20000497          	auipc	s1,0x20000
     cce:	a324a483          	lw	s1,-1486(s1) # 200006fc <_impure_ptr>
     cd2:	892a                	mv	s2,a0
     cd4:	842e                	mv	s0,a1
     cd6:	c489                	beqz	s1,ce0 <__swsetup_r+0x20>
     cd8:	4c9c                	lw	a5,24(s1)
     cda:	e399                	bnez	a5,ce0 <__swsetup_r+0x20>
     cdc:	8526                	mv	a0,s1
     cde:	2ea9                	jal	1038 <__sinit>
     ce0:	00001797          	auipc	a5,0x1
     ce4:	0ec78793          	addi	a5,a5,236 # 1dcc <__sf_fake_stdin>
     ce8:	02f41363          	bne	s0,a5,d0e <__swsetup_r+0x4e>
     cec:	40c0                	lw	s0,4(s1)
     cee:	00c41783          	lh	a5,12(s0) # 4000200c <_eusrstack+0x1ffff00c>
     cf2:	0087f713          	andi	a4,a5,8
     cf6:	e725                	bnez	a4,d5e <__swsetup_r+0x9e>
     cf8:	0107f713          	andi	a4,a5,16
     cfc:	eb0d                	bnez	a4,d2e <__swsetup_r+0x6e>
     cfe:	4725                	li	a4,9
     d00:	00e92023          	sw	a4,0(s2)
     d04:	0407e793          	ori	a5,a5,64
     d08:	a45e                	sh	a5,12(s0)
     d0a:	557d                	li	a0,-1
     d0c:	a071                	j	d98 <__swsetup_r+0xd8>
     d0e:	00001797          	auipc	a5,0x1
     d12:	09e78793          	addi	a5,a5,158 # 1dac <__sf_fake_stdout>
     d16:	00f41463          	bne	s0,a5,d1e <__swsetup_r+0x5e>
     d1a:	4480                	lw	s0,8(s1)
     d1c:	bfc9                	j	cee <__swsetup_r+0x2e>
     d1e:	00001797          	auipc	a5,0x1
     d22:	06e78793          	addi	a5,a5,110 # 1d8c <__sf_fake_stderr>
     d26:	fcf414e3          	bne	s0,a5,cee <__swsetup_r+0x2e>
     d2a:	44c0                	lw	s0,12(s1)
     d2c:	b7c9                	j	cee <__swsetup_r+0x2e>
     d2e:	8b91                	andi	a5,a5,4
     d30:	c39d                	beqz	a5,d56 <__swsetup_r+0x96>
     d32:	584c                	lw	a1,52(s0)
     d34:	c989                	beqz	a1,d46 <__swsetup_r+0x86>
     d36:	04440793          	addi	a5,s0,68
     d3a:	00f58463          	beq	a1,a5,d42 <__swsetup_r+0x82>
     d3e:	854a                	mv	a0,s2
     d40:	2bb9                	jal	129e <_free_r>
     d42:	02042a23          	sw	zero,52(s0)
     d46:	245e                	lhu	a5,12(s0)
     d48:	00042223          	sw	zero,4(s0)
     d4c:	fdb7f793          	andi	a5,a5,-37
     d50:	a45e                	sh	a5,12(s0)
     d52:	481c                	lw	a5,16(s0)
     d54:	c01c                	sw	a5,0(s0)
     d56:	245e                	lhu	a5,12(s0)
     d58:	0087e793          	ori	a5,a5,8
     d5c:	a45e                	sh	a5,12(s0)
     d5e:	481c                	lw	a5,16(s0)
     d60:	eb99                	bnez	a5,d76 <__swsetup_r+0xb6>
     d62:	245e                	lhu	a5,12(s0)
     d64:	20000713          	li	a4,512
     d68:	2807f793          	andi	a5,a5,640
     d6c:	00e78563          	beq	a5,a4,d76 <__swsetup_r+0xb6>
     d70:	85a2                	mv	a1,s0
     d72:	854a                	mv	a0,s2
     d74:	2961                	jal	120c <__smakebuf_r>
     d76:	00c41783          	lh	a5,12(s0)
     d7a:	0017f713          	andi	a4,a5,1
     d7e:	c31d                	beqz	a4,da4 <__swsetup_r+0xe4>
     d80:	4858                	lw	a4,20(s0)
     d82:	00042423          	sw	zero,8(s0)
     d86:	40e00733          	neg	a4,a4
     d8a:	cc18                	sw	a4,24(s0)
     d8c:	4818                	lw	a4,16(s0)
     d8e:	4501                	li	a0,0
     d90:	e701                	bnez	a4,d98 <__swsetup_r+0xd8>
     d92:	0807f713          	andi	a4,a5,128
     d96:	f73d                	bnez	a4,d04 <__swsetup_r+0x44>
     d98:	40b2                	lw	ra,12(sp)
     d9a:	4422                	lw	s0,8(sp)
     d9c:	4492                	lw	s1,4(sp)
     d9e:	4902                	lw	s2,0(sp)
     da0:	0141                	addi	sp,sp,16
     da2:	8082                	ret
     da4:	0027f713          	andi	a4,a5,2
     da8:	4681                	li	a3,0
     daa:	e311                	bnez	a4,dae <__swsetup_r+0xee>
     dac:	4854                	lw	a3,20(s0)
     dae:	c414                	sw	a3,8(s0)
     db0:	bff1                	j	d8c <__swsetup_r+0xcc>

00000db2 <__sflush_r>:
__sflush_r():
     db2:	00c59783          	lh	a5,12(a1)
     db6:	1101                	addi	sp,sp,-32
     db8:	cc22                	sw	s0,24(sp)
     dba:	ca26                	sw	s1,20(sp)
     dbc:	ce06                	sw	ra,28(sp)
     dbe:	c84a                	sw	s2,16(sp)
     dc0:	c64e                	sw	s3,12(sp)
     dc2:	0087f713          	andi	a4,a5,8
     dc6:	84aa                	mv	s1,a0
     dc8:	842e                	mv	s0,a1
     dca:	e379                	bnez	a4,e90 <__sflush_r+0xde>
     dcc:	41d8                	lw	a4,4(a1)
     dce:	00e04563          	bgtz	a4,dd8 <__sflush_r+0x26>
     dd2:	41b8                	lw	a4,64(a1)
     dd4:	08e05663          	blez	a4,e60 <__sflush_r+0xae>
     dd8:	5458                	lw	a4,44(s0)
     dda:	c359                	beqz	a4,e60 <__sflush_r+0xae>
     ddc:	0004a903          	lw	s2,0(s1)
     de0:	0004a023          	sw	zero,0(s1)
     de4:	500c                	lw	a1,32(s0)
     de6:	48c7d793          	bexti	a5,a5,0xc
     dea:	cba9                	beqz	a5,e3c <__sflush_r+0x8a>
     dec:	4870                	lw	a2,84(s0)
     dee:	245e                	lhu	a5,12(s0)
     df0:	8b91                	andi	a5,a5,4
     df2:	c799                	beqz	a5,e00 <__sflush_r+0x4e>
     df4:	405c                	lw	a5,4(s0)
     df6:	8e1d                	sub	a2,a2,a5
     df8:	585c                	lw	a5,52(s0)
     dfa:	c399                	beqz	a5,e00 <__sflush_r+0x4e>
     dfc:	403c                	lw	a5,64(s0)
     dfe:	8e1d                	sub	a2,a2,a5
     e00:	545c                	lw	a5,44(s0)
     e02:	500c                	lw	a1,32(s0)
     e04:	4681                	li	a3,0
     e06:	8526                	mv	a0,s1
     e08:	9782                	jalr	a5
     e0a:	57fd                	li	a5,-1
     e0c:	04f50c63          	beq	a0,a5,e64 <__sflush_r+0xb2>
     e10:	481c                	lw	a5,16(s0)
     e12:	6705                	lui	a4,0x1
     e14:	00042223          	sw	zero,4(s0)
     e18:	c01c                	sw	a5,0(s0)
     e1a:	245e                	lhu	a5,12(s0)
     e1c:	8ff9                	and	a5,a5,a4
     e1e:	c391                	beqz	a5,e22 <__sflush_r+0x70>
     e20:	c868                	sw	a0,84(s0)
     e22:	584c                	lw	a1,52(s0)
     e24:	0124a023          	sw	s2,0(s1)
     e28:	cd85                	beqz	a1,e60 <__sflush_r+0xae>
     e2a:	04440793          	addi	a5,s0,68
     e2e:	00f58463          	beq	a1,a5,e36 <__sflush_r+0x84>
     e32:	8526                	mv	a0,s1
     e34:	21ad                	jal	129e <_free_r>
     e36:	02042a23          	sw	zero,52(s0)
     e3a:	a01d                	j	e60 <__sflush_r+0xae>
     e3c:	4601                	li	a2,0
     e3e:	4685                	li	a3,1
     e40:	8526                	mv	a0,s1
     e42:	9702                	jalr	a4
     e44:	57fd                	li	a5,-1
     e46:	862a                	mv	a2,a0
     e48:	faf513e3          	bne	a0,a5,dee <__sflush_r+0x3c>
     e4c:	409c                	lw	a5,0(s1)
     e4e:	d3c5                	beqz	a5,dee <__sflush_r+0x3c>
     e50:	4775                	li	a4,29
     e52:	00e78563          	beq	a5,a4,e5c <__sflush_r+0xaa>
     e56:	4759                	li	a4,22
     e58:	06e79563          	bne	a5,a4,ec2 <__sflush_r+0x110>
     e5c:	0124a023          	sw	s2,0(s1)
     e60:	4501                	li	a0,0
     e62:	a0b5                	j	ece <__sflush_r+0x11c>
     e64:	4098                	lw	a4,0(s1)
     e66:	00c41783          	lh	a5,12(s0)
     e6a:	cf01                	beqz	a4,e82 <__sflush_r+0xd0>
     e6c:	46f5                	li	a3,29
     e6e:	00d70563          	beq	a4,a3,e78 <__sflush_r+0xc6>
     e72:	46d9                	li	a3,22
     e74:	04d71963          	bne	a4,a3,ec6 <__sflush_r+0x114>
     e78:	481c                	lw	a5,16(s0)
     e7a:	00042223          	sw	zero,4(s0)
     e7e:	c01c                	sw	a5,0(s0)
     e80:	b74d                	j	e22 <__sflush_r+0x70>
     e82:	4818                	lw	a4,16(s0)
     e84:	00042223          	sw	zero,4(s0)
     e88:	48c7d793          	bexti	a5,a5,0xc
     e8c:	c018                	sw	a4,0(s0)
     e8e:	bf41                	j	e1e <__sflush_r+0x6c>
     e90:	0105a983          	lw	s3,16(a1)
     e94:	fc0986e3          	beqz	s3,e60 <__sflush_r+0xae>
     e98:	0005a903          	lw	s2,0(a1)
     e9c:	8b8d                	andi	a5,a5,3
     e9e:	0135a023          	sw	s3,0(a1)
     ea2:	41390933          	sub	s2,s2,s3
     ea6:	4701                	li	a4,0
     ea8:	e391                	bnez	a5,eac <__sflush_r+0xfa>
     eaa:	49d8                	lw	a4,20(a1)
     eac:	c418                	sw	a4,8(s0)
     eae:	fb2059e3          	blez	s2,e60 <__sflush_r+0xae>
     eb2:	541c                	lw	a5,40(s0)
     eb4:	500c                	lw	a1,32(s0)
     eb6:	86ca                	mv	a3,s2
     eb8:	864e                	mv	a2,s3
     eba:	8526                	mv	a0,s1
     ebc:	9782                	jalr	a5
     ebe:	00a04f63          	bgtz	a0,edc <__sflush_r+0x12a>
     ec2:	00c41783          	lh	a5,12(s0)
     ec6:	0407e793          	ori	a5,a5,64
     eca:	a45e                	sh	a5,12(s0)
     ecc:	557d                	li	a0,-1
     ece:	40f2                	lw	ra,28(sp)
     ed0:	4462                	lw	s0,24(sp)
     ed2:	44d2                	lw	s1,20(sp)
     ed4:	4942                	lw	s2,16(sp)
     ed6:	49b2                	lw	s3,12(sp)
     ed8:	6105                	addi	sp,sp,32
     eda:	8082                	ret
     edc:	99aa                	add	s3,s3,a0
     ede:	40a90933          	sub	s2,s2,a0
     ee2:	b7f1                	j	eae <__sflush_r+0xfc>

00000ee4 <_fflush_r>:
_fflush_r():
     ee4:	499c                	lw	a5,16(a1)
     ee6:	1141                	addi	sp,sp,-16
     ee8:	c606                	sw	ra,12(sp)
     eea:	c422                	sw	s0,8(sp)
     eec:	c226                	sw	s1,4(sp)
     eee:	eb81                	bnez	a5,efe <_fflush_r+0x1a>
     ef0:	4481                	li	s1,0
     ef2:	40b2                	lw	ra,12(sp)
     ef4:	4422                	lw	s0,8(sp)
     ef6:	8526                	mv	a0,s1
     ef8:	4492                	lw	s1,4(sp)
     efa:	0141                	addi	sp,sp,16
     efc:	8082                	ret
     efe:	84aa                	mv	s1,a0
     f00:	842e                	mv	s0,a1
     f02:	c501                	beqz	a0,f0a <_fflush_r+0x26>
     f04:	4d1c                	lw	a5,24(a0)
     f06:	e391                	bnez	a5,f0a <_fflush_r+0x26>
     f08:	2a05                	jal	1038 <__sinit>
     f0a:	00001797          	auipc	a5,0x1
     f0e:	ec278793          	addi	a5,a5,-318 # 1dcc <__sf_fake_stdin>
     f12:	02f41c63          	bne	s0,a5,f4a <_fflush_r+0x66>
     f16:	40c0                	lw	s0,4(s1)
     f18:	00c41783          	lh	a5,12(s0)
     f1c:	dbf1                	beqz	a5,ef0 <_fflush_r+0xc>
     f1e:	5078                	lw	a4,100(s0)
     f20:	8b05                	andi	a4,a4,1
     f22:	e711                	bnez	a4,f2e <_fflush_r+0x4a>
     f24:	2007f793          	andi	a5,a5,512
     f28:	e399                	bnez	a5,f2e <_fflush_r+0x4a>
     f2a:	4c28                	lw	a0,88(s0)
     f2c:	2451                	jal	11b0 <__retarget_lock_acquire_recursive>
     f2e:	8526                	mv	a0,s1
     f30:	85a2                	mv	a1,s0
     f32:	3541                	jal	db2 <__sflush_r>
     f34:	507c                	lw	a5,100(s0)
     f36:	84aa                	mv	s1,a0
     f38:	8b85                	andi	a5,a5,1
     f3a:	ffc5                	bnez	a5,ef2 <_fflush_r+0xe>
     f3c:	245e                	lhu	a5,12(s0)
     f3e:	2007f793          	andi	a5,a5,512
     f42:	fbc5                	bnez	a5,ef2 <_fflush_r+0xe>
     f44:	4c28                	lw	a0,88(s0)
     f46:	24b5                	jal	11b2 <__retarget_lock_release_recursive>
     f48:	b76d                	j	ef2 <_fflush_r+0xe>
     f4a:	00001797          	auipc	a5,0x1
     f4e:	e6278793          	addi	a5,a5,-414 # 1dac <__sf_fake_stdout>
     f52:	00f41463          	bne	s0,a5,f5a <_fflush_r+0x76>
     f56:	4480                	lw	s0,8(s1)
     f58:	b7c1                	j	f18 <_fflush_r+0x34>
     f5a:	00001797          	auipc	a5,0x1
     f5e:	e3278793          	addi	a5,a5,-462 # 1d8c <__sf_fake_stderr>
     f62:	faf41be3          	bne	s0,a5,f18 <_fflush_r+0x34>
     f66:	44c0                	lw	s0,12(s1)
     f68:	bf45                	j	f18 <_fflush_r+0x34>

00000f6a <std>:
std():
     f6a:	1141                	addi	sp,sp,-16
     f6c:	c422                	sw	s0,8(sp)
     f6e:	c606                	sw	ra,12(sp)
     f70:	842a                	mv	s0,a0
     f72:	a54e                	sh	a1,12(a0)
     f74:	a572                	sh	a2,14(a0)
     f76:	00052023          	sw	zero,0(a0)
     f7a:	00052223          	sw	zero,4(a0)
     f7e:	00052423          	sw	zero,8(a0)
     f82:	06052223          	sw	zero,100(a0)
     f86:	00052823          	sw	zero,16(a0)
     f8a:	00052a23          	sw	zero,20(a0)
     f8e:	00052c23          	sw	zero,24(a0)
     f92:	4621                	li	a2,8
     f94:	4581                	li	a1,0
     f96:	05c50513          	addi	a0,a0,92
     f9a:	fb0ff0ef          	jal	ra,74a <memset>
     f9e:	00001797          	auipc	a5,0x1
     fa2:	83278793          	addi	a5,a5,-1998 # 17d0 <__sread>
     fa6:	d05c                	sw	a5,36(s0)
     fa8:	00001797          	auipc	a5,0x1
     fac:	85278793          	addi	a5,a5,-1966 # 17fa <__swrite>
     fb0:	d41c                	sw	a5,40(s0)
     fb2:	00001797          	auipc	a5,0x1
     fb6:	88e78793          	addi	a5,a5,-1906 # 1840 <__sseek>
     fba:	d45c                	sw	a5,44(s0)
     fbc:	00001797          	auipc	a5,0x1
     fc0:	8b278793          	addi	a5,a5,-1870 # 186e <__sclose>
     fc4:	40b2                	lw	ra,12(sp)
     fc6:	d000                	sw	s0,32(s0)
     fc8:	d81c                	sw	a5,48(s0)
     fca:	4422                	lw	s0,8(sp)
     fcc:	0141                	addi	sp,sp,16
     fce:	8082                	ret

00000fd0 <_cleanup_r>:
_cleanup_r():
     fd0:	00000597          	auipc	a1,0x0
     fd4:	f1458593          	addi	a1,a1,-236 # ee4 <_fflush_r>
     fd8:	a2bd                	j	1146 <_fwalk_reent>

00000fda <__sfmoreglue>:
__sfmoreglue():
     fda:	1141                	addi	sp,sp,-16
     fdc:	c226                	sw	s1,4(sp)
     fde:	06800793          	li	a5,104
     fe2:	fff58493          	addi	s1,a1,-1
     fe6:	02f484b3          	mul	s1,s1,a5
     fea:	c04a                	sw	s2,0(sp)
     fec:	892e                	mv	s2,a1
     fee:	c422                	sw	s0,8(sp)
     ff0:	c606                	sw	ra,12(sp)
     ff2:	07448593          	addi	a1,s1,116
     ff6:	2e69                	jal	1390 <_malloc_r>
     ff8:	842a                	mv	s0,a0
     ffa:	cd01                	beqz	a0,1012 <__sfmoreglue+0x38>
     ffc:	00052023          	sw	zero,0(a0)
    1000:	01252223          	sw	s2,4(a0)
    1004:	0531                	addi	a0,a0,12
    1006:	c408                	sw	a0,8(s0)
    1008:	06848613          	addi	a2,s1,104
    100c:	4581                	li	a1,0
    100e:	f3cff0ef          	jal	ra,74a <memset>
    1012:	40b2                	lw	ra,12(sp)
    1014:	8522                	mv	a0,s0
    1016:	4422                	lw	s0,8(sp)
    1018:	4492                	lw	s1,4(sp)
    101a:	4902                	lw	s2,0(sp)
    101c:	0141                	addi	sp,sp,16
    101e:	8082                	ret

00001020 <__sfp_lock_acquire>:
__sfp_lock_acquire():
    1020:	81418513          	addi	a0,gp,-2028 # 2000070c <__lock___sfp_recursive_mutex>
    1024:	a271                	j	11b0 <__retarget_lock_acquire_recursive>

00001026 <__sfp_lock_release>:
__sfp_lock_release():
    1026:	81418513          	addi	a0,gp,-2028 # 2000070c <__lock___sfp_recursive_mutex>
    102a:	a261                	j	11b2 <__retarget_lock_release_recursive>

0000102c <__sinit_lock_acquire>:
__sinit_lock_acquire():
    102c:	81818513          	addi	a0,gp,-2024 # 20000710 <__lock___sinit_recursive_mutex>
    1030:	a241                	j	11b0 <__retarget_lock_acquire_recursive>

00001032 <__sinit_lock_release>:
__sinit_lock_release():
    1032:	81818513          	addi	a0,gp,-2024 # 20000710 <__lock___sinit_recursive_mutex>
    1036:	aab5                	j	11b2 <__retarget_lock_release_recursive>

00001038 <__sinit>:
__sinit():
    1038:	1141                	addi	sp,sp,-16
    103a:	c422                	sw	s0,8(sp)
    103c:	c606                	sw	ra,12(sp)
    103e:	842a                	mv	s0,a0
    1040:	37f5                	jal	102c <__sinit_lock_acquire>
    1042:	4c1c                	lw	a5,24(s0)
    1044:	c789                	beqz	a5,104e <__sinit+0x16>
    1046:	4422                	lw	s0,8(sp)
    1048:	40b2                	lw	ra,12(sp)
    104a:	0141                	addi	sp,sp,16
    104c:	b7dd                	j	1032 <__sinit_lock_release>
    104e:	00000797          	auipc	a5,0x0
    1052:	f8278793          	addi	a5,a5,-126 # fd0 <_cleanup_r>
    1056:	d41c                	sw	a5,40(s0)
    1058:	04042423          	sw	zero,72(s0)
    105c:	04042623          	sw	zero,76(s0)
    1060:	04042823          	sw	zero,80(s0)
    1064:	8081a783          	lw	a5,-2040(gp) # 20000700 <_global_impure_ptr>
    1068:	00879463          	bne	a5,s0,1070 <__sinit+0x38>
    106c:	4785                	li	a5,1
    106e:	cc1c                	sw	a5,24(s0)
    1070:	8522                	mv	a0,s0
    1072:	203d                	jal	10a0 <__sfp>
    1074:	c048                	sw	a0,4(s0)
    1076:	8522                	mv	a0,s0
    1078:	2025                	jal	10a0 <__sfp>
    107a:	c408                	sw	a0,8(s0)
    107c:	8522                	mv	a0,s0
    107e:	200d                	jal	10a0 <__sfp>
    1080:	c448                	sw	a0,12(s0)
    1082:	4048                	lw	a0,4(s0)
    1084:	4601                	li	a2,0
    1086:	4591                	li	a1,4
    1088:	35cd                	jal	f6a <std>
    108a:	4408                	lw	a0,8(s0)
    108c:	4605                	li	a2,1
    108e:	45a5                	li	a1,9
    1090:	3de9                	jal	f6a <std>
    1092:	4448                	lw	a0,12(s0)
    1094:	4609                	li	a2,2
    1096:	45c9                	li	a1,18
    1098:	3dc9                	jal	f6a <std>
    109a:	4785                	li	a5,1
    109c:	cc1c                	sw	a5,24(s0)
    109e:	b765                	j	1046 <__sinit+0xe>

000010a0 <__sfp>:
__sfp():
    10a0:	1141                	addi	sp,sp,-16
    10a2:	c226                	sw	s1,4(sp)
    10a4:	c04a                	sw	s2,0(sp)
    10a6:	c606                	sw	ra,12(sp)
    10a8:	c422                	sw	s0,8(sp)
    10aa:	892a                	mv	s2,a0
    10ac:	3f95                	jal	1020 <__sfp_lock_acquire>
    10ae:	8081a483          	lw	s1,-2040(gp) # 20000700 <_global_impure_ptr>
    10b2:	4c9c                	lw	a5,24(s1)
    10b4:	e399                	bnez	a5,10ba <__sfp+0x1a>
    10b6:	8526                	mv	a0,s1
    10b8:	3741                	jal	1038 <__sinit>
    10ba:	04848493          	addi	s1,s1,72
    10be:	4480                	lw	s0,8(s1)
    10c0:	40dc                	lw	a5,4(s1)
    10c2:	17fd                	addi	a5,a5,-1
    10c4:	0007d663          	bgez	a5,10d0 <__sfp+0x30>
    10c8:	409c                	lw	a5,0(s1)
    10ca:	c3bd                	beqz	a5,1130 <__sfp+0x90>
    10cc:	4084                	lw	s1,0(s1)
    10ce:	bfc5                	j	10be <__sfp+0x1e>
    10d0:	00c41703          	lh	a4,12(s0)
    10d4:	eb39                	bnez	a4,112a <__sfp+0x8a>
    10d6:	77c1                	lui	a5,0xffff0
    10d8:	0785                	addi	a5,a5,1 # ffff0001 <_eusrstack+0xdffed001>
    10da:	c45c                	sw	a5,12(s0)
    10dc:	05840513          	addi	a0,s0,88
    10e0:	06042223          	sw	zero,100(s0)
    10e4:	20e9                	jal	11ae <__retarget_lock_init_recursive>
    10e6:	3781                	jal	1026 <__sfp_lock_release>
    10e8:	4621                	li	a2,8
    10ea:	00042023          	sw	zero,0(s0)
    10ee:	00042423          	sw	zero,8(s0)
    10f2:	00042223          	sw	zero,4(s0)
    10f6:	00042823          	sw	zero,16(s0)
    10fa:	00042a23          	sw	zero,20(s0)
    10fe:	00042c23          	sw	zero,24(s0)
    1102:	4581                	li	a1,0
    1104:	05c40513          	addi	a0,s0,92
    1108:	e42ff0ef          	jal	ra,74a <memset>
    110c:	02042a23          	sw	zero,52(s0)
    1110:	02042c23          	sw	zero,56(s0)
    1114:	04042423          	sw	zero,72(s0)
    1118:	04042623          	sw	zero,76(s0)
    111c:	40b2                	lw	ra,12(sp)
    111e:	8522                	mv	a0,s0
    1120:	4422                	lw	s0,8(sp)
    1122:	4492                	lw	s1,4(sp)
    1124:	4902                	lw	s2,0(sp)
    1126:	0141                	addi	sp,sp,16
    1128:	8082                	ret
    112a:	06840413          	addi	s0,s0,104
    112e:	bf51                	j	10c2 <__sfp+0x22>
    1130:	4591                	li	a1,4
    1132:	854a                	mv	a0,s2
    1134:	355d                	jal	fda <__sfmoreglue>
    1136:	c088                	sw	a0,0(s1)
    1138:	842a                	mv	s0,a0
    113a:	f949                	bnez	a0,10cc <__sfp+0x2c>
    113c:	35ed                	jal	1026 <__sfp_lock_release>
    113e:	47b1                	li	a5,12
    1140:	00f92023          	sw	a5,0(s2)
    1144:	bfe1                	j	111c <__sfp+0x7c>

00001146 <_fwalk_reent>:
_fwalk_reent():
    1146:	7179                	addi	sp,sp,-48
    1148:	d422                	sw	s0,40(sp)
    114a:	d04a                	sw	s2,32(sp)
    114c:	ce4e                	sw	s3,28(sp)
    114e:	cc52                	sw	s4,24(sp)
    1150:	c85a                	sw	s6,16(sp)
    1152:	c65e                	sw	s7,12(sp)
    1154:	d606                	sw	ra,44(sp)
    1156:	d226                	sw	s1,36(sp)
    1158:	ca56                	sw	s5,20(sp)
    115a:	892a                	mv	s2,a0
    115c:	8a2e                	mv	s4,a1
    115e:	04850413          	addi	s0,a0,72
    1162:	4981                	li	s3,0
    1164:	4b05                	li	s6,1
    1166:	5bfd                	li	s7,-1
    1168:	4404                	lw	s1,8(s0)
    116a:	00442a83          	lw	s5,4(s0)
    116e:	1afd                	addi	s5,s5,-1 # ffff <_data_lma+0xe17b>
    1170:	020ad063          	bgez	s5,1190 <_fwalk_reent+0x4a>
    1174:	4000                	lw	s0,0(s0)
    1176:	f86d                	bnez	s0,1168 <_fwalk_reent+0x22>
    1178:	50b2                	lw	ra,44(sp)
    117a:	5422                	lw	s0,40(sp)
    117c:	5492                	lw	s1,36(sp)
    117e:	5902                	lw	s2,32(sp)
    1180:	4a62                	lw	s4,24(sp)
    1182:	4ad2                	lw	s5,20(sp)
    1184:	4b42                	lw	s6,16(sp)
    1186:	4bb2                	lw	s7,12(sp)
    1188:	854e                	mv	a0,s3
    118a:	49f2                	lw	s3,28(sp)
    118c:	6145                	addi	sp,sp,48
    118e:	8082                	ret
    1190:	24de                	lhu	a5,12(s1)
    1192:	00fb7b63          	bgeu	s6,a5,11a8 <_fwalk_reent+0x62>
    1196:	00e49783          	lh	a5,14(s1)
    119a:	01778763          	beq	a5,s7,11a8 <_fwalk_reent+0x62>
    119e:	85a6                	mv	a1,s1
    11a0:	854a                	mv	a0,s2
    11a2:	9a02                	jalr	s4
    11a4:	00a9e9b3          	or	s3,s3,a0
    11a8:	06848493          	addi	s1,s1,104
    11ac:	b7c9                	j	116e <_fwalk_reent+0x28>

000011ae <__retarget_lock_init_recursive>:
__retarget_lock_init_recursive():
    11ae:	8082                	ret

000011b0 <__retarget_lock_acquire_recursive>:
__retarget_lock_acquire_recursive():
    11b0:	8082                	ret

000011b2 <__retarget_lock_release_recursive>:
__retarget_lock_release_recursive():
    11b2:	8082                	ret

000011b4 <__swhatbuf_r>:
__swhatbuf_r():
    11b4:	7159                	addi	sp,sp,-112
    11b6:	d4a2                	sw	s0,104(sp)
    11b8:	842e                	mv	s0,a1
    11ba:	00e59583          	lh	a1,14(a1)
    11be:	d2a6                	sw	s1,100(sp)
    11c0:	d0ca                	sw	s2,96(sp)
    11c2:	d686                	sw	ra,108(sp)
    11c4:	84b2                	mv	s1,a2
    11c6:	8936                	mv	s2,a3
    11c8:	0205d263          	bgez	a1,11ec <__swhatbuf_r+0x38>
    11cc:	245e                	lhu	a5,12(s0)
    11ce:	0807f793          	andi	a5,a5,128
    11d2:	eb8d                	bnez	a5,1204 <__swhatbuf_r+0x50>
    11d4:	40000713          	li	a4,1024
    11d8:	50b6                	lw	ra,108(sp)
    11da:	5426                	lw	s0,104(sp)
    11dc:	00f92023          	sw	a5,0(s2)
    11e0:	c098                	sw	a4,0(s1)
    11e2:	5906                	lw	s2,96(sp)
    11e4:	5496                	lw	s1,100(sp)
    11e6:	4501                	li	a0,0
    11e8:	6165                	addi	sp,sp,112
    11ea:	8082                	ret
    11ec:	0030                	addi	a2,sp,8
    11ee:	2de1                	jal	18c6 <_fstat_r>
    11f0:	fc054ee3          	bltz	a0,11cc <__swhatbuf_r+0x18>
    11f4:	4732                	lw	a4,12(sp)
    11f6:	67bd                	lui	a5,0xf
    11f8:	8ff9                	and	a5,a5,a4
    11fa:	7779                	lui	a4,0xffffe
    11fc:	97ba                	add	a5,a5,a4
    11fe:	0017b793          	seqz	a5,a5
    1202:	bfc9                	j	11d4 <__swhatbuf_r+0x20>
    1204:	4781                	li	a5,0
    1206:	04000713          	li	a4,64
    120a:	b7f9                	j	11d8 <__swhatbuf_r+0x24>

0000120c <__smakebuf_r>:
__smakebuf_r():
    120c:	25de                	lhu	a5,12(a1)
    120e:	7179                	addi	sp,sp,-48
    1210:	d422                	sw	s0,40(sp)
    1212:	d606                	sw	ra,44(sp)
    1214:	d226                	sw	s1,36(sp)
    1216:	d04a                	sw	s2,32(sp)
    1218:	ce4e                	sw	s3,28(sp)
    121a:	8b89                	andi	a5,a5,2
    121c:	842e                	mv	s0,a1
    121e:	cf91                	beqz	a5,123a <__smakebuf_r+0x2e>
    1220:	04740793          	addi	a5,s0,71
    1224:	c01c                	sw	a5,0(s0)
    1226:	c81c                	sw	a5,16(s0)
    1228:	4785                	li	a5,1
    122a:	c85c                	sw	a5,20(s0)
    122c:	50b2                	lw	ra,44(sp)
    122e:	5422                	lw	s0,40(sp)
    1230:	5492                	lw	s1,36(sp)
    1232:	5902                	lw	s2,32(sp)
    1234:	49f2                	lw	s3,28(sp)
    1236:	6145                	addi	sp,sp,48
    1238:	8082                	ret
    123a:	0074                	addi	a3,sp,12
    123c:	0030                	addi	a2,sp,8
    123e:	84aa                	mv	s1,a0
    1240:	3f95                	jal	11b4 <__swhatbuf_r>
    1242:	49a2                	lw	s3,8(sp)
    1244:	892a                	mv	s2,a0
    1246:	8526                	mv	a0,s1
    1248:	85ce                	mv	a1,s3
    124a:	2299                	jal	1390 <_malloc_r>
    124c:	e919                	bnez	a0,1262 <__smakebuf_r+0x56>
    124e:	00c41783          	lh	a5,12(s0)
    1252:	2007f713          	andi	a4,a5,512
    1256:	fb79                	bnez	a4,122c <__smakebuf_r+0x20>
    1258:	9bf1                	andi	a5,a5,-4
    125a:	0027e793          	ori	a5,a5,2
    125e:	a45e                	sh	a5,12(s0)
    1260:	b7c1                	j	1220 <__smakebuf_r+0x14>
    1262:	00000797          	auipc	a5,0x0
    1266:	d6e78793          	addi	a5,a5,-658 # fd0 <_cleanup_r>
    126a:	d49c                	sw	a5,40(s1)
    126c:	245e                	lhu	a5,12(s0)
    126e:	c008                	sw	a0,0(s0)
    1270:	c808                	sw	a0,16(s0)
    1272:	0807e793          	ori	a5,a5,128
    1276:	a45e                	sh	a5,12(s0)
    1278:	47b2                	lw	a5,12(sp)
    127a:	01342a23          	sw	s3,20(s0)
    127e:	cb99                	beqz	a5,1294 <__smakebuf_r+0x88>
    1280:	00e41583          	lh	a1,14(s0)
    1284:	8526                	mv	a0,s1
    1286:	25a5                	jal	18ee <_isatty_r>
    1288:	c511                	beqz	a0,1294 <__smakebuf_r+0x88>
    128a:	245e                	lhu	a5,12(s0)
    128c:	9bf1                	andi	a5,a5,-4
    128e:	0017e793          	ori	a5,a5,1
    1292:	a45e                	sh	a5,12(s0)
    1294:	245e                	lhu	a5,12(s0)
    1296:	0127e533          	or	a0,a5,s2
    129a:	a44a                	sh	a0,12(s0)
    129c:	bf41                	j	122c <__smakebuf_r+0x20>

0000129e <_free_r>:
_free_r():
    129e:	cdd1                	beqz	a1,133a <_free_r+0x9c>
    12a0:	ffc5a783          	lw	a5,-4(a1)
    12a4:	1101                	addi	sp,sp,-32
    12a6:	cc22                	sw	s0,24(sp)
    12a8:	ce06                	sw	ra,28(sp)
    12aa:	ffc58413          	addi	s0,a1,-4
    12ae:	0007d363          	bgez	a5,12b4 <_free_r+0x16>
    12b2:	943e                	add	s0,s0,a5
    12b4:	c62a                	sw	a0,12(sp)
    12b6:	2545                	jal	1956 <__malloc_lock>
    12b8:	82018713          	addi	a4,gp,-2016 # 20000718 <__malloc_free_list>
    12bc:	431c                	lw	a5,0(a4)
    12be:	4532                	lw	a0,12(sp)
    12c0:	eb81                	bnez	a5,12d0 <_free_r+0x32>
    12c2:	00042223          	sw	zero,4(s0)
    12c6:	c300                	sw	s0,0(a4)
    12c8:	4462                	lw	s0,24(sp)
    12ca:	40f2                	lw	ra,28(sp)
    12cc:	6105                	addi	sp,sp,32
    12ce:	ad41                	j	195e <__malloc_unlock>
    12d0:	00f47d63          	bgeu	s0,a5,12ea <_free_r+0x4c>
    12d4:	4010                	lw	a2,0(s0)
    12d6:	00c406b3          	add	a3,s0,a2
    12da:	00d79663          	bne	a5,a3,12e6 <_free_r+0x48>
    12de:	4394                	lw	a3,0(a5)
    12e0:	43dc                	lw	a5,4(a5)
    12e2:	96b2                	add	a3,a3,a2
    12e4:	c014                	sw	a3,0(s0)
    12e6:	c05c                	sw	a5,4(s0)
    12e8:	bff9                	j	12c6 <_free_r+0x28>
    12ea:	873e                	mv	a4,a5
    12ec:	43dc                	lw	a5,4(a5)
    12ee:	c399                	beqz	a5,12f4 <_free_r+0x56>
    12f0:	fef47de3          	bgeu	s0,a5,12ea <_free_r+0x4c>
    12f4:	4314                	lw	a3,0(a4)
    12f6:	00d70633          	add	a2,a4,a3
    12fa:	00861f63          	bne	a2,s0,1318 <_free_r+0x7a>
    12fe:	4010                	lw	a2,0(s0)
    1300:	96b2                	add	a3,a3,a2
    1302:	c314                	sw	a3,0(a4)
    1304:	00d70633          	add	a2,a4,a3
    1308:	fcc790e3          	bne	a5,a2,12c8 <_free_r+0x2a>
    130c:	4390                	lw	a2,0(a5)
    130e:	43dc                	lw	a5,4(a5)
    1310:	96b2                	add	a3,a3,a2
    1312:	c314                	sw	a3,0(a4)
    1314:	c35c                	sw	a5,4(a4)
    1316:	bf4d                	j	12c8 <_free_r+0x2a>
    1318:	00c47563          	bgeu	s0,a2,1322 <_free_r+0x84>
    131c:	47b1                	li	a5,12
    131e:	c11c                	sw	a5,0(a0)
    1320:	b765                	j	12c8 <_free_r+0x2a>
    1322:	4010                	lw	a2,0(s0)
    1324:	00c406b3          	add	a3,s0,a2
    1328:	00d79663          	bne	a5,a3,1334 <_free_r+0x96>
    132c:	4394                	lw	a3,0(a5)
    132e:	43dc                	lw	a5,4(a5)
    1330:	96b2                	add	a3,a3,a2
    1332:	c014                	sw	a3,0(s0)
    1334:	c05c                	sw	a5,4(s0)
    1336:	c340                	sw	s0,4(a4)
    1338:	bf41                	j	12c8 <_free_r+0x2a>
    133a:	8082                	ret

0000133c <sbrk_aligned>:
sbrk_aligned():
    133c:	1141                	addi	sp,sp,-16
    133e:	c04a                	sw	s2,0(sp)
    1340:	81c18913          	addi	s2,gp,-2020 # 20000714 <__malloc_sbrk_start>
    1344:	00092783          	lw	a5,0(s2)
    1348:	c422                	sw	s0,8(sp)
    134a:	c226                	sw	s1,4(sp)
    134c:	c606                	sw	ra,12(sp)
    134e:	84aa                	mv	s1,a0
    1350:	842e                	mv	s0,a1
    1352:	e789                	bnez	a5,135c <sbrk_aligned+0x20>
    1354:	4581                	li	a1,0
    1356:	2989                	jal	17a8 <_sbrk_r>
    1358:	00a92023          	sw	a0,0(s2)
    135c:	85a2                	mv	a1,s0
    135e:	8526                	mv	a0,s1
    1360:	21a1                	jal	17a8 <_sbrk_r>
    1362:	597d                	li	s2,-1
    1364:	01251a63          	bne	a0,s2,1378 <sbrk_aligned+0x3c>
    1368:	547d                	li	s0,-1
    136a:	40b2                	lw	ra,12(sp)
    136c:	8522                	mv	a0,s0
    136e:	4422                	lw	s0,8(sp)
    1370:	4492                	lw	s1,4(sp)
    1372:	4902                	lw	s2,0(sp)
    1374:	0141                	addi	sp,sp,16
    1376:	8082                	ret
    1378:	00350413          	addi	s0,a0,3
    137c:	9871                	andi	s0,s0,-4
    137e:	fe8506e3          	beq	a0,s0,136a <sbrk_aligned+0x2e>
    1382:	40a405b3          	sub	a1,s0,a0
    1386:	8526                	mv	a0,s1
    1388:	2105                	jal	17a8 <_sbrk_r>
    138a:	ff2510e3          	bne	a0,s2,136a <sbrk_aligned+0x2e>
    138e:	bfe9                	j	1368 <sbrk_aligned+0x2c>

00001390 <_malloc_r>:
_malloc_r():
    1390:	1101                	addi	sp,sp,-32
    1392:	ca26                	sw	s1,20(sp)
    1394:	00358493          	addi	s1,a1,3
    1398:	98f1                	andi	s1,s1,-4
    139a:	c84a                	sw	s2,16(sp)
    139c:	04a1                	addi	s1,s1,8
    139e:	47b1                	li	a5,12
    13a0:	ce06                	sw	ra,28(sp)
    13a2:	cc22                	sw	s0,24(sp)
    13a4:	c64e                	sw	s3,12(sp)
    13a6:	892a                	mv	s2,a0
    13a8:	0af4f4b3          	maxu	s1,s1,a5
    13ac:	0004c463          	bltz	s1,13b4 <_malloc_r+0x24>
    13b0:	00b4fd63          	bgeu	s1,a1,13ca <_malloc_r+0x3a>
    13b4:	47b1                	li	a5,12
    13b6:	00f92023          	sw	a5,0(s2)
    13ba:	4501                	li	a0,0
    13bc:	40f2                	lw	ra,28(sp)
    13be:	4462                	lw	s0,24(sp)
    13c0:	44d2                	lw	s1,20(sp)
    13c2:	4942                	lw	s2,16(sp)
    13c4:	49b2                	lw	s3,12(sp)
    13c6:	6105                	addi	sp,sp,32
    13c8:	8082                	ret
    13ca:	2371                	jal	1956 <__malloc_lock>
    13cc:	82018993          	addi	s3,gp,-2016 # 20000718 <__malloc_free_list>
    13d0:	0009a783          	lw	a5,0(s3)
    13d4:	843e                	mv	s0,a5
    13d6:	e431                	bnez	s0,1422 <_malloc_r+0x92>
    13d8:	85a6                	mv	a1,s1
    13da:	854a                	mv	a0,s2
    13dc:	3785                	jal	133c <sbrk_aligned>
    13de:	57fd                	li	a5,-1
    13e0:	842a                	mv	s0,a0
    13e2:	0af51663          	bne	a0,a5,148e <_malloc_r+0xfe>
    13e6:	0009a403          	lw	s0,0(s3)
    13ea:	87a2                	mv	a5,s0
    13ec:	ebc1                	bnez	a5,147c <_malloc_r+0xec>
    13ee:	00042983          	lw	s3,0(s0)
    13f2:	4581                	li	a1,0
    13f4:	854a                	mv	a0,s2
    13f6:	99a2                	add	s3,s3,s0
    13f8:	2e45                	jal	17a8 <_sbrk_r>
    13fa:	08a99463          	bne	s3,a0,1482 <_malloc_r+0xf2>
    13fe:	401c                	lw	a5,0(s0)
    1400:	048d                	addi	s1,s1,3
    1402:	854a                	mv	a0,s2
    1404:	8c9d                	sub	s1,s1,a5
    1406:	98f1                	andi	s1,s1,-4
    1408:	47b1                	li	a5,12
    140a:	04a1                	addi	s1,s1,8
    140c:	0af4f4b3          	maxu	s1,s1,a5
    1410:	85a6                	mv	a1,s1
    1412:	372d                	jal	133c <sbrk_aligned>
    1414:	57fd                	li	a5,-1
    1416:	06f50663          	beq	a0,a5,1482 <_malloc_r+0xf2>
    141a:	401c                	lw	a5,0(s0)
    141c:	97a6                	add	a5,a5,s1
    141e:	c01c                	sw	a5,0(s0)
    1420:	a015                	j	1444 <_malloc_r+0xb4>
    1422:	4014                	lw	a3,0(s0)
    1424:	8e85                	sub	a3,a3,s1
    1426:	0406c863          	bltz	a3,1476 <_malloc_r+0xe6>
    142a:	472d                	li	a4,11
    142c:	02d77d63          	bgeu	a4,a3,1466 <_malloc_r+0xd6>
    1430:	c004                	sw	s1,0(s0)
    1432:	00940733          	add	a4,s0,s1
    1436:	02879663          	bne	a5,s0,1462 <_malloc_r+0xd2>
    143a:	00e9a023          	sw	a4,0(s3)
    143e:	405c                	lw	a5,4(s0)
    1440:	c314                	sw	a3,0(a4)
    1442:	c35c                	sw	a5,4(a4)
    1444:	854a                	mv	a0,s2
    1446:	2b21                	jal	195e <__malloc_unlock>
    1448:	00b40513          	addi	a0,s0,11
    144c:	00440793          	addi	a5,s0,4
    1450:	9961                	andi	a0,a0,-8
    1452:	40f50733          	sub	a4,a0,a5
    1456:	f6f503e3          	beq	a0,a5,13bc <_malloc_r+0x2c>
    145a:	943a                	add	s0,s0,a4
    145c:	8f89                	sub	a5,a5,a0
    145e:	c01c                	sw	a5,0(s0)
    1460:	bfb1                	j	13bc <_malloc_r+0x2c>
    1462:	c3d8                	sw	a4,4(a5)
    1464:	bfe9                	j	143e <_malloc_r+0xae>
    1466:	4058                	lw	a4,4(s0)
    1468:	00879563          	bne	a5,s0,1472 <_malloc_r+0xe2>
    146c:	00e9a023          	sw	a4,0(s3)
    1470:	bfd1                	j	1444 <_malloc_r+0xb4>
    1472:	c3d8                	sw	a4,4(a5)
    1474:	bfc1                	j	1444 <_malloc_r+0xb4>
    1476:	87a2                	mv	a5,s0
    1478:	4040                	lw	s0,4(s0)
    147a:	bfb1                	j	13d6 <_malloc_r+0x46>
    147c:	843e                	mv	s0,a5
    147e:	43dc                	lw	a5,4(a5)
    1480:	b7b5                	j	13ec <_malloc_r+0x5c>
    1482:	47b1                	li	a5,12
    1484:	00f92023          	sw	a5,0(s2)
    1488:	854a                	mv	a0,s2
    148a:	29d1                	jal	195e <__malloc_unlock>
    148c:	b73d                	j	13ba <_malloc_r+0x2a>
    148e:	c104                	sw	s1,0(a0)
    1490:	bf55                	j	1444 <_malloc_r+0xb4>

00001492 <__sfputc_r>:
__sfputc_r():
    1492:	461c                	lw	a5,8(a2)
    1494:	17fd                	addi	a5,a5,-1
    1496:	c61c                	sw	a5,8(a2)
    1498:	0007da63          	bgez	a5,14ac <__sfputc_r+0x1a>
    149c:	4e18                	lw	a4,24(a2)
    149e:	00e7c563          	blt	a5,a4,14a8 <__sfputc_r+0x16>
    14a2:	47a9                	li	a5,10
    14a4:	00f59463          	bne	a1,a5,14ac <__sfputc_r+0x1a>
    14a8:	f5cff06f          	j	c04 <__swbuf_r>
    14ac:	421c                	lw	a5,0(a2)
    14ae:	852e                	mv	a0,a1
    14b0:	00178713          	addi	a4,a5,1
    14b4:	c218                	sw	a4,0(a2)
    14b6:	a38c                	sb	a1,0(a5)
    14b8:	8082                	ret

000014ba <__sfputs_r>:
__sfputs_r():
    14ba:	1101                	addi	sp,sp,-32
    14bc:	cc22                	sw	s0,24(sp)
    14be:	ca26                	sw	s1,20(sp)
    14c0:	c84a                	sw	s2,16(sp)
    14c2:	c64e                	sw	s3,12(sp)
    14c4:	c452                	sw	s4,8(sp)
    14c6:	ce06                	sw	ra,28(sp)
    14c8:	892a                	mv	s2,a0
    14ca:	89ae                	mv	s3,a1
    14cc:	8432                	mv	s0,a2
    14ce:	00d604b3          	add	s1,a2,a3
    14d2:	5a7d                	li	s4,-1
    14d4:	00941463          	bne	s0,s1,14dc <__sfputs_r+0x22>
    14d8:	4501                	li	a0,0
    14da:	a801                	j	14ea <__sfputs_r+0x30>
    14dc:	200c                	lbu	a1,0(s0)
    14de:	864e                	mv	a2,s3
    14e0:	854a                	mv	a0,s2
    14e2:	3f45                	jal	1492 <__sfputc_r>
    14e4:	0405                	addi	s0,s0,1
    14e6:	ff4517e3          	bne	a0,s4,14d4 <__sfputs_r+0x1a>
    14ea:	40f2                	lw	ra,28(sp)
    14ec:	4462                	lw	s0,24(sp)
    14ee:	44d2                	lw	s1,20(sp)
    14f0:	4942                	lw	s2,16(sp)
    14f2:	49b2                	lw	s3,12(sp)
    14f4:	4a22                	lw	s4,8(sp)
    14f6:	6105                	addi	sp,sp,32
    14f8:	8082                	ret

000014fa <_vfiprintf_r>:
_vfiprintf_r():
    14fa:	7135                	addi	sp,sp,-160
    14fc:	cd22                	sw	s0,152(sp)
    14fe:	cb26                	sw	s1,148(sp)
    1500:	c94a                	sw	s2,144(sp)
    1502:	c74e                	sw	s3,140(sp)
    1504:	cf06                	sw	ra,156(sp)
    1506:	c552                	sw	s4,136(sp)
    1508:	c356                	sw	s5,132(sp)
    150a:	c15a                	sw	s6,128(sp)
    150c:	dede                	sw	s7,124(sp)
    150e:	dce2                	sw	s8,120(sp)
    1510:	89aa                	mv	s3,a0
    1512:	842e                	mv	s0,a1
    1514:	8932                	mv	s2,a2
    1516:	84b6                	mv	s1,a3
    1518:	c501                	beqz	a0,1520 <_vfiprintf_r+0x26>
    151a:	4d1c                	lw	a5,24(a0)
    151c:	e391                	bnez	a5,1520 <_vfiprintf_r+0x26>
    151e:	3e29                	jal	1038 <__sinit>
    1520:	00001797          	auipc	a5,0x1
    1524:	8ac78793          	addi	a5,a5,-1876 # 1dcc <__sf_fake_stdin>
    1528:	04f41763          	bne	s0,a5,1576 <_vfiprintf_r+0x7c>
    152c:	0049a403          	lw	s0,4(s3)
    1530:	507c                	lw	a5,100(s0)
    1532:	8b85                	andi	a5,a5,1
    1534:	e799                	bnez	a5,1542 <_vfiprintf_r+0x48>
    1536:	245e                	lhu	a5,12(s0)
    1538:	2007f793          	andi	a5,a5,512
    153c:	e399                	bnez	a5,1542 <_vfiprintf_r+0x48>
    153e:	4c28                	lw	a0,88(s0)
    1540:	3985                	jal	11b0 <__retarget_lock_acquire_recursive>
    1542:	245e                	lhu	a5,12(s0)
    1544:	8ba1                	andi	a5,a5,8
    1546:	c399                	beqz	a5,154c <_vfiprintf_r+0x52>
    1548:	481c                	lw	a5,16(s0)
    154a:	efb9                	bnez	a5,15a8 <_vfiprintf_r+0xae>
    154c:	85a2                	mv	a1,s0
    154e:	854e                	mv	a0,s3
    1550:	f70ff0ef          	jal	ra,cc0 <__swsetup_r>
    1554:	c931                	beqz	a0,15a8 <_vfiprintf_r+0xae>
    1556:	507c                	lw	a5,100(s0)
    1558:	8b85                	andi	a5,a5,1
    155a:	c3a1                	beqz	a5,159a <_vfiprintf_r+0xa0>
    155c:	557d                	li	a0,-1
    155e:	40fa                	lw	ra,156(sp)
    1560:	446a                	lw	s0,152(sp)
    1562:	44da                	lw	s1,148(sp)
    1564:	494a                	lw	s2,144(sp)
    1566:	49ba                	lw	s3,140(sp)
    1568:	4a2a                	lw	s4,136(sp)
    156a:	4a9a                	lw	s5,132(sp)
    156c:	4b0a                	lw	s6,128(sp)
    156e:	5bf6                	lw	s7,124(sp)
    1570:	5c66                	lw	s8,120(sp)
    1572:	610d                	addi	sp,sp,160
    1574:	8082                	ret
    1576:	00001797          	auipc	a5,0x1
    157a:	83678793          	addi	a5,a5,-1994 # 1dac <__sf_fake_stdout>
    157e:	00f41563          	bne	s0,a5,1588 <_vfiprintf_r+0x8e>
    1582:	0089a403          	lw	s0,8(s3)
    1586:	b76d                	j	1530 <_vfiprintf_r+0x36>
    1588:	00001797          	auipc	a5,0x1
    158c:	80478793          	addi	a5,a5,-2044 # 1d8c <__sf_fake_stderr>
    1590:	faf410e3          	bne	s0,a5,1530 <_vfiprintf_r+0x36>
    1594:	00c9a403          	lw	s0,12(s3)
    1598:	bf61                	j	1530 <_vfiprintf_r+0x36>
    159a:	245e                	lhu	a5,12(s0)
    159c:	2007f793          	andi	a5,a5,512
    15a0:	ffd5                	bnez	a5,155c <_vfiprintf_r+0x62>
    15a2:	4c28                	lw	a0,88(s0)
    15a4:	3139                	jal	11b2 <__retarget_lock_release_recursive>
    15a6:	bf5d                	j	155c <_vfiprintf_r+0x62>
    15a8:	02000793          	li	a5,32
    15ac:	02f104a3          	sb	a5,41(sp)
    15b0:	03000793          	li	a5,48
    15b4:	d202                	sw	zero,36(sp)
    15b6:	02f10523          	sb	a5,42(sp)
    15ba:	c626                	sw	s1,12(sp)
    15bc:	02500b93          	li	s7,37
    15c0:	00001a97          	auipc	s5,0x1
    15c4:	82ca8a93          	addi	s5,s5,-2004 # 1dec <__sf_fake_stdin+0x20>
    15c8:	4b29                	li	s6,10
    15ca:	84ca                	mv	s1,s2
    15cc:	209c                	lbu	a5,0(s1)
    15ce:	c399                	beqz	a5,15d4 <_vfiprintf_r+0xda>
    15d0:	09779963          	bne	a5,s7,1662 <_vfiprintf_r+0x168>
    15d4:	41248c33          	sub	s8,s1,s2
    15d8:	01248d63          	beq	s1,s2,15f2 <_vfiprintf_r+0xf8>
    15dc:	86e2                	mv	a3,s8
    15de:	864a                	mv	a2,s2
    15e0:	85a2                	mv	a1,s0
    15e2:	854e                	mv	a0,s3
    15e4:	3dd9                	jal	14ba <__sfputs_r>
    15e6:	57fd                	li	a5,-1
    15e8:	18f50663          	beq	a0,a5,1774 <_vfiprintf_r+0x27a>
    15ec:	5792                	lw	a5,36(sp)
    15ee:	97e2                	add	a5,a5,s8
    15f0:	d23e                	sw	a5,36(sp)
    15f2:	209c                	lbu	a5,0(s1)
    15f4:	18078063          	beqz	a5,1774 <_vfiprintf_r+0x27a>
    15f8:	57fd                	li	a5,-1
    15fa:	00148913          	addi	s2,s1,1
    15fe:	c802                	sw	zero,16(sp)
    1600:	ce02                	sw	zero,28(sp)
    1602:	ca3e                	sw	a5,20(sp)
    1604:	cc02                	sw	zero,24(sp)
    1606:	040109a3          	sb	zero,83(sp)
    160a:	d482                	sw	zero,104(sp)
    160c:	00094583          	lbu	a1,0(s2)
    1610:	4615                	li	a2,5
    1612:	8556                	mv	a0,s5
    1614:	262d                	jal	193e <memchr>
    1616:	47c2                	lw	a5,16(sp)
    1618:	00190493          	addi	s1,s2,1
    161c:	e529                	bnez	a0,1666 <_vfiprintf_r+0x16c>
    161e:	0107f713          	andi	a4,a5,16
    1622:	c709                	beqz	a4,162c <_vfiprintf_r+0x132>
    1624:	02000713          	li	a4,32
    1628:	04e109a3          	sb	a4,83(sp)
    162c:	0087f713          	andi	a4,a5,8
    1630:	c709                	beqz	a4,163a <_vfiprintf_r+0x140>
    1632:	02b00713          	li	a4,43
    1636:	04e109a3          	sb	a4,83(sp)
    163a:	00094683          	lbu	a3,0(s2)
    163e:	02a00713          	li	a4,42
    1642:	02e68963          	beq	a3,a4,1674 <_vfiprintf_r+0x17a>
    1646:	47f2                	lw	a5,28(sp)
    1648:	84ca                	mv	s1,s2
    164a:	4681                	li	a3,0
    164c:	4625                	li	a2,9
    164e:	2098                	lbu	a4,0(s1)
    1650:	00148593          	addi	a1,s1,1
    1654:	fd070713          	addi	a4,a4,-48 # ffffdfd0 <_eusrstack+0xdfffafd0>
    1658:	06e67263          	bgeu	a2,a4,16bc <_vfiprintf_r+0x1c2>
    165c:	c685                	beqz	a3,1684 <_vfiprintf_r+0x18a>
    165e:	ce3e                	sw	a5,28(sp)
    1660:	a015                	j	1684 <_vfiprintf_r+0x18a>
    1662:	0485                	addi	s1,s1,1
    1664:	b7a5                	j	15cc <_vfiprintf_r+0xd2>
    1666:	41550533          	sub	a0,a0,s5
    166a:	28a797b3          	bset	a5,a5,a0
    166e:	8926                	mv	s2,s1
    1670:	c83e                	sw	a5,16(sp)
    1672:	bf69                	j	160c <_vfiprintf_r+0x112>
    1674:	4732                	lw	a4,12(sp)
    1676:	00470693          	addi	a3,a4,4
    167a:	4318                	lw	a4,0(a4)
    167c:	c636                	sw	a3,12(sp)
    167e:	02074863          	bltz	a4,16ae <_vfiprintf_r+0x1b4>
    1682:	ce3a                	sw	a4,28(sp)
    1684:	2098                	lbu	a4,0(s1)
    1686:	02e00793          	li	a5,46
    168a:	04f71c63          	bne	a4,a5,16e2 <_vfiprintf_r+0x1e8>
    168e:	3098                	lbu	a4,1(s1)
    1690:	02a00793          	li	a5,42
    1694:	02f71a63          	bne	a4,a5,16c8 <_vfiprintf_r+0x1ce>
    1698:	47b2                	lw	a5,12(sp)
    169a:	0489                	addi	s1,s1,2
    169c:	00478713          	addi	a4,a5,4
    16a0:	439c                	lw	a5,0(a5)
    16a2:	c63a                	sw	a4,12(sp)
    16a4:	577d                	li	a4,-1
    16a6:	0ae7e7b3          	max	a5,a5,a4
    16aa:	ca3e                	sw	a5,20(sp)
    16ac:	a81d                	j	16e2 <_vfiprintf_r+0x1e8>
    16ae:	40e00733          	neg	a4,a4
    16b2:	0027e793          	ori	a5,a5,2
    16b6:	ce3a                	sw	a4,28(sp)
    16b8:	c83e                	sw	a5,16(sp)
    16ba:	b7e9                	j	1684 <_vfiprintf_r+0x18a>
    16bc:	036787b3          	mul	a5,a5,s6
    16c0:	84ae                	mv	s1,a1
    16c2:	4685                	li	a3,1
    16c4:	97ba                	add	a5,a5,a4
    16c6:	b761                	j	164e <_vfiprintf_r+0x154>
    16c8:	0485                	addi	s1,s1,1
    16ca:	ca02                	sw	zero,20(sp)
    16cc:	4681                	li	a3,0
    16ce:	4781                	li	a5,0
    16d0:	4625                	li	a2,9
    16d2:	2098                	lbu	a4,0(s1)
    16d4:	00148593          	addi	a1,s1,1
    16d8:	fd070713          	addi	a4,a4,-48
    16dc:	06e67263          	bgeu	a2,a4,1740 <_vfiprintf_r+0x246>
    16e0:	f6e9                	bnez	a3,16aa <_vfiprintf_r+0x1b0>
    16e2:	208c                	lbu	a1,0(s1)
    16e4:	460d                	li	a2,3
    16e6:	00000517          	auipc	a0,0x0
    16ea:	70e50513          	addi	a0,a0,1806 # 1df4 <__sf_fake_stdin+0x28>
    16ee:	2c81                	jal	193e <memchr>
    16f0:	cd11                	beqz	a0,170c <_vfiprintf_r+0x212>
    16f2:	00000797          	auipc	a5,0x0
    16f6:	70278793          	addi	a5,a5,1794 # 1df4 <__sf_fake_stdin+0x28>
    16fa:	8d1d                	sub	a0,a0,a5
    16fc:	47c2                	lw	a5,16(sp)
    16fe:	04000713          	li	a4,64
    1702:	00a71733          	sll	a4,a4,a0
    1706:	8fd9                	or	a5,a5,a4
    1708:	0485                	addi	s1,s1,1
    170a:	c83e                	sw	a5,16(sp)
    170c:	208c                	lbu	a1,0(s1)
    170e:	4619                	li	a2,6
    1710:	00000517          	auipc	a0,0x0
    1714:	6e850513          	addi	a0,a0,1768 # 1df8 <__sf_fake_stdin+0x2c>
    1718:	00148913          	addi	s2,s1,1
    171c:	02b10423          	sb	a1,40(sp)
    1720:	2c39                	jal	193e <memchr>
    1722:	c92d                	beqz	a0,1794 <_vfiprintf_r+0x29a>
    1724:	00000793          	li	a5,0
    1728:	e795                	bnez	a5,1754 <_vfiprintf_r+0x25a>
    172a:	4742                	lw	a4,16(sp)
    172c:	47b2                	lw	a5,12(sp)
    172e:	10077713          	andi	a4,a4,256
    1732:	cf09                	beqz	a4,174c <_vfiprintf_r+0x252>
    1734:	0791                	addi	a5,a5,4
    1736:	c63e                	sw	a5,12(sp)
    1738:	5792                	lw	a5,36(sp)
    173a:	97d2                	add	a5,a5,s4
    173c:	d23e                	sw	a5,36(sp)
    173e:	b571                	j	15ca <_vfiprintf_r+0xd0>
    1740:	036787b3          	mul	a5,a5,s6
    1744:	84ae                	mv	s1,a1
    1746:	4685                	li	a3,1
    1748:	97ba                	add	a5,a5,a4
    174a:	b761                	j	16d2 <_vfiprintf_r+0x1d8>
    174c:	079d                	addi	a5,a5,7
    174e:	9be1                	andi	a5,a5,-8
    1750:	07a1                	addi	a5,a5,8
    1752:	b7d5                	j	1736 <_vfiprintf_r+0x23c>
    1754:	0078                	addi	a4,sp,12
    1756:	00000697          	auipc	a3,0x0
    175a:	d6468693          	addi	a3,a3,-668 # 14ba <__sfputs_r>
    175e:	8622                	mv	a2,s0
    1760:	080c                	addi	a1,sp,16
    1762:	854e                	mv	a0,s3
    1764:	00000097          	auipc	ra,0x0
    1768:	000000e7          	jalr	zero # 0 <_sinit>
    176c:	57fd                	li	a5,-1
    176e:	8a2a                	mv	s4,a0
    1770:	fcf514e3          	bne	a0,a5,1738 <_vfiprintf_r+0x23e>
    1774:	507c                	lw	a5,100(s0)
    1776:	8b85                	andi	a5,a5,1
    1778:	e799                	bnez	a5,1786 <_vfiprintf_r+0x28c>
    177a:	245e                	lhu	a5,12(s0)
    177c:	2007f793          	andi	a5,a5,512
    1780:	e399                	bnez	a5,1786 <_vfiprintf_r+0x28c>
    1782:	4c28                	lw	a0,88(s0)
    1784:	343d                	jal	11b2 <__retarget_lock_release_recursive>
    1786:	245e                	lhu	a5,12(s0)
    1788:	0407f793          	andi	a5,a5,64
    178c:	dc0798e3          	bnez	a5,155c <_vfiprintf_r+0x62>
    1790:	5512                	lw	a0,36(sp)
    1792:	b3f1                	j	155e <_vfiprintf_r+0x64>
    1794:	0078                	addi	a4,sp,12
    1796:	00000697          	auipc	a3,0x0
    179a:	d2468693          	addi	a3,a3,-732 # 14ba <__sfputs_r>
    179e:	8622                	mv	a2,s0
    17a0:	080c                	addi	a1,sp,16
    17a2:	854e                	mv	a0,s3
    17a4:	24f1                	jal	1a70 <_printf_i>
    17a6:	b7d9                	j	176c <_vfiprintf_r+0x272>

000017a8 <_sbrk_r>:
_sbrk_r():
    17a8:	1141                	addi	sp,sp,-16
    17aa:	c422                	sw	s0,8(sp)
    17ac:	842a                	mv	s0,a0
    17ae:	852e                	mv	a0,a1
    17b0:	8201a223          	sw	zero,-2012(gp) # 2000071c <errno>
    17b4:	c606                	sw	ra,12(sp)
    17b6:	a28ff0ef          	jal	ra,9de <_sbrk>
    17ba:	57fd                	li	a5,-1
    17bc:	00f51663          	bne	a0,a5,17c8 <_sbrk_r+0x20>
    17c0:	8241a783          	lw	a5,-2012(gp) # 2000071c <errno>
    17c4:	c391                	beqz	a5,17c8 <_sbrk_r+0x20>
    17c6:	c01c                	sw	a5,0(s0)
    17c8:	40b2                	lw	ra,12(sp)
    17ca:	4422                	lw	s0,8(sp)
    17cc:	0141                	addi	sp,sp,16
    17ce:	8082                	ret

000017d0 <__sread>:
__sread():
    17d0:	1141                	addi	sp,sp,-16
    17d2:	c422                	sw	s0,8(sp)
    17d4:	842e                	mv	s0,a1
    17d6:	00e59583          	lh	a1,14(a1)
    17da:	c606                	sw	ra,12(sp)
    17dc:	2331                	jal	1ce8 <_read_r>
    17de:	00054963          	bltz	a0,17f0 <__sread+0x20>
    17e2:	487c                	lw	a5,84(s0)
    17e4:	97aa                	add	a5,a5,a0
    17e6:	c87c                	sw	a5,84(s0)
    17e8:	40b2                	lw	ra,12(sp)
    17ea:	4422                	lw	s0,8(sp)
    17ec:	0141                	addi	sp,sp,16
    17ee:	8082                	ret
    17f0:	245e                	lhu	a5,12(s0)
    17f2:	48c79793          	bclri	a5,a5,0xc
    17f6:	a45e                	sh	a5,12(s0)
    17f8:	bfc5                	j	17e8 <__sread+0x18>

000017fa <__swrite>:
__swrite():
    17fa:	25de                	lhu	a5,12(a1)
    17fc:	1101                	addi	sp,sp,-32
    17fe:	cc22                	sw	s0,24(sp)
    1800:	ca26                	sw	s1,20(sp)
    1802:	c84a                	sw	s2,16(sp)
    1804:	c64e                	sw	s3,12(sp)
    1806:	ce06                	sw	ra,28(sp)
    1808:	1007f793          	andi	a5,a5,256
    180c:	84aa                	mv	s1,a0
    180e:	842e                	mv	s0,a1
    1810:	8932                	mv	s2,a2
    1812:	89b6                	mv	s3,a3
    1814:	c791                	beqz	a5,1820 <__swrite+0x26>
    1816:	00e59583          	lh	a1,14(a1)
    181a:	4689                	li	a3,2
    181c:	4601                	li	a2,0
    181e:	28dd                	jal	1914 <_lseek_r>
    1820:	245e                	lhu	a5,12(s0)
    1822:	00e41583          	lh	a1,14(s0)
    1826:	40f2                	lw	ra,28(sp)
    1828:	48c79793          	bclri	a5,a5,0xc
    182c:	a45e                	sh	a5,12(s0)
    182e:	4462                	lw	s0,24(sp)
    1830:	86ce                	mv	a3,s3
    1832:	864a                	mv	a2,s2
    1834:	49b2                	lw	s3,12(sp)
    1836:	4942                	lw	s2,16(sp)
    1838:	8526                	mv	a0,s1
    183a:	44d2                	lw	s1,20(sp)
    183c:	6105                	addi	sp,sp,32
    183e:	a81d                	j	1874 <_write_r>

00001840 <__sseek>:
__sseek():
    1840:	1141                	addi	sp,sp,-16
    1842:	c422                	sw	s0,8(sp)
    1844:	842e                	mv	s0,a1
    1846:	00e59583          	lh	a1,14(a1)
    184a:	c606                	sw	ra,12(sp)
    184c:	20e1                	jal	1914 <_lseek_r>
    184e:	577d                	li	a4,-1
    1850:	245e                	lhu	a5,12(s0)
    1852:	00e51963          	bne	a0,a4,1864 <__sseek+0x24>
    1856:	48c79793          	bclri	a5,a5,0xc
    185a:	a45e                	sh	a5,12(s0)
    185c:	40b2                	lw	ra,12(sp)
    185e:	4422                	lw	s0,8(sp)
    1860:	0141                	addi	sp,sp,16
    1862:	8082                	ret
    1864:	28c79793          	bseti	a5,a5,0xc
    1868:	c868                	sw	a0,84(s0)
    186a:	a45e                	sh	a5,12(s0)
    186c:	bfc5                	j	185c <__sseek+0x1c>

0000186e <__sclose>:
__sclose():
    186e:	00e59583          	lh	a1,14(a1)
    1872:	a03d                	j	18a0 <_close_r>

00001874 <_write_r>:
_write_r():
    1874:	1141                	addi	sp,sp,-16
    1876:	c422                	sw	s0,8(sp)
    1878:	842a                	mv	s0,a0
    187a:	852e                	mv	a0,a1
    187c:	85b2                	mv	a1,a2
    187e:	8636                	mv	a2,a3
    1880:	8201a223          	sw	zero,-2012(gp) # 2000071c <errno>
    1884:	c606                	sw	ra,12(sp)
    1886:	932ff0ef          	jal	ra,9b8 <_write>
    188a:	57fd                	li	a5,-1
    188c:	00f51663          	bne	a0,a5,1898 <_write_r+0x24>
    1890:	8241a783          	lw	a5,-2012(gp) # 2000071c <errno>
    1894:	c391                	beqz	a5,1898 <_write_r+0x24>
    1896:	c01c                	sw	a5,0(s0)
    1898:	40b2                	lw	ra,12(sp)
    189a:	4422                	lw	s0,8(sp)
    189c:	0141                	addi	sp,sp,16
    189e:	8082                	ret

000018a0 <_close_r>:
_close_r():
    18a0:	1141                	addi	sp,sp,-16
    18a2:	c422                	sw	s0,8(sp)
    18a4:	842a                	mv	s0,a0
    18a6:	852e                	mv	a0,a1
    18a8:	8201a223          	sw	zero,-2012(gp) # 2000071c <errno>
    18ac:	c606                	sw	ra,12(sp)
    18ae:	2195                	jal	1d12 <_close>
    18b0:	57fd                	li	a5,-1
    18b2:	00f51663          	bne	a0,a5,18be <_close_r+0x1e>
    18b6:	8241a783          	lw	a5,-2012(gp) # 2000071c <errno>
    18ba:	c391                	beqz	a5,18be <_close_r+0x1e>
    18bc:	c01c                	sw	a5,0(s0)
    18be:	40b2                	lw	ra,12(sp)
    18c0:	4422                	lw	s0,8(sp)
    18c2:	0141                	addi	sp,sp,16
    18c4:	8082                	ret

000018c6 <_fstat_r>:
_fstat_r():
    18c6:	1141                	addi	sp,sp,-16
    18c8:	c422                	sw	s0,8(sp)
    18ca:	842a                	mv	s0,a0
    18cc:	852e                	mv	a0,a1
    18ce:	85b2                	mv	a1,a2
    18d0:	8201a223          	sw	zero,-2012(gp) # 2000071c <errno>
    18d4:	c606                	sw	ra,12(sp)
    18d6:	21a1                	jal	1d1e <_fstat>
    18d8:	57fd                	li	a5,-1
    18da:	00f51663          	bne	a0,a5,18e6 <_fstat_r+0x20>
    18de:	8241a783          	lw	a5,-2012(gp) # 2000071c <errno>
    18e2:	c391                	beqz	a5,18e6 <_fstat_r+0x20>
    18e4:	c01c                	sw	a5,0(s0)
    18e6:	40b2                	lw	ra,12(sp)
    18e8:	4422                	lw	s0,8(sp)
    18ea:	0141                	addi	sp,sp,16
    18ec:	8082                	ret

000018ee <_isatty_r>:
_isatty_r():
    18ee:	1141                	addi	sp,sp,-16
    18f0:	c422                	sw	s0,8(sp)
    18f2:	842a                	mv	s0,a0
    18f4:	852e                	mv	a0,a1
    18f6:	8201a223          	sw	zero,-2012(gp) # 2000071c <errno>
    18fa:	c606                	sw	ra,12(sp)
    18fc:	213d                	jal	1d2a <_isatty>
    18fe:	57fd                	li	a5,-1
    1900:	00f51663          	bne	a0,a5,190c <_isatty_r+0x1e>
    1904:	8241a783          	lw	a5,-2012(gp) # 2000071c <errno>
    1908:	c391                	beqz	a5,190c <_isatty_r+0x1e>
    190a:	c01c                	sw	a5,0(s0)
    190c:	40b2                	lw	ra,12(sp)
    190e:	4422                	lw	s0,8(sp)
    1910:	0141                	addi	sp,sp,16
    1912:	8082                	ret

00001914 <_lseek_r>:
_lseek_r():
    1914:	1141                	addi	sp,sp,-16
    1916:	c422                	sw	s0,8(sp)
    1918:	842a                	mv	s0,a0
    191a:	852e                	mv	a0,a1
    191c:	85b2                	mv	a1,a2
    191e:	8636                	mv	a2,a3
    1920:	8201a223          	sw	zero,-2012(gp) # 2000071c <errno>
    1924:	c606                	sw	ra,12(sp)
    1926:	2901                	jal	1d36 <_lseek>
    1928:	57fd                	li	a5,-1
    192a:	00f51663          	bne	a0,a5,1936 <_lseek_r+0x22>
    192e:	8241a783          	lw	a5,-2012(gp) # 2000071c <errno>
    1932:	c391                	beqz	a5,1936 <_lseek_r+0x22>
    1934:	c01c                	sw	a5,0(s0)
    1936:	40b2                	lw	ra,12(sp)
    1938:	4422                	lw	s0,8(sp)
    193a:	0141                	addi	sp,sp,16
    193c:	8082                	ret

0000193e <memchr>:
memchr():
    193e:	0ff5f593          	zext.b	a1,a1
    1942:	962a                	add	a2,a2,a0
    1944:	00c51463          	bne	a0,a2,194c <memchr+0xe>
    1948:	4501                	li	a0,0
    194a:	8082                	ret
    194c:	211c                	lbu	a5,0(a0)
    194e:	feb78ee3          	beq	a5,a1,194a <memchr+0xc>
    1952:	0505                	addi	a0,a0,1
    1954:	bfc5                	j	1944 <memchr+0x6>

00001956 <__malloc_lock>:
__malloc_lock():
    1956:	81018513          	addi	a0,gp,-2032 # 20000708 <__lock___malloc_recursive_mutex>
    195a:	857ff06f          	j	11b0 <__retarget_lock_acquire_recursive>

0000195e <__malloc_unlock>:
__malloc_unlock():
    195e:	81018513          	addi	a0,gp,-2032 # 20000708 <__lock___malloc_recursive_mutex>
    1962:	851ff06f          	j	11b2 <__retarget_lock_release_recursive>

00001966 <_printf_common>:
_printf_common():
    1966:	7179                	addi	sp,sp,-48
    1968:	ca56                	sw	s5,20(sp)
    196a:	499c                	lw	a5,16(a1)
    196c:	8aba                	mv	s5,a4
    196e:	4598                	lw	a4,8(a1)
    1970:	d422                	sw	s0,40(sp)
    1972:	d04a                	sw	s2,32(sp)
    1974:	ce4e                	sw	s3,28(sp)
    1976:	cc52                	sw	s4,24(sp)
    1978:	d606                	sw	ra,44(sp)
    197a:	d226                	sw	s1,36(sp)
    197c:	c85a                	sw	s6,16(sp)
    197e:	c65e                	sw	s7,12(sp)
    1980:	0ae7e7b3          	max	a5,a5,a4
    1984:	c21c                	sw	a5,0(a2)
    1986:	0435c703          	lbu	a4,67(a1)
    198a:	89aa                	mv	s3,a0
    198c:	842e                	mv	s0,a1
    198e:	8932                	mv	s2,a2
    1990:	8a36                	mv	s4,a3
    1992:	c319                	beqz	a4,1998 <_printf_common+0x32>
    1994:	0785                	addi	a5,a5,1
    1996:	c21c                	sw	a5,0(a2)
    1998:	401c                	lw	a5,0(s0)
    199a:	0207f793          	andi	a5,a5,32
    199e:	c791                	beqz	a5,19aa <_printf_common+0x44>
    19a0:	00092783          	lw	a5,0(s2)
    19a4:	0789                	addi	a5,a5,2
    19a6:	00f92023          	sw	a5,0(s2)
    19aa:	4004                	lw	s1,0(s0)
    19ac:	8899                	andi	s1,s1,6
    19ae:	e891                	bnez	s1,19c2 <_printf_common+0x5c>
    19b0:	01940b13          	addi	s6,s0,25
    19b4:	5bfd                	li	s7,-1
    19b6:	445c                	lw	a5,12(s0)
    19b8:	00092703          	lw	a4,0(s2)
    19bc:	8f99                	sub	a5,a5,a4
    19be:	04f4cc63          	blt	s1,a5,1a16 <_printf_common+0xb0>
    19c2:	04344783          	lbu	a5,67(s0)
    19c6:	00f036b3          	snez	a3,a5
    19ca:	401c                	lw	a5,0(s0)
    19cc:	0207f793          	andi	a5,a5,32
    19d0:	eba5                	bnez	a5,1a40 <_printf_common+0xda>
    19d2:	04340613          	addi	a2,s0,67
    19d6:	85d2                	mv	a1,s4
    19d8:	854e                	mv	a0,s3
    19da:	9a82                	jalr	s5
    19dc:	57fd                	li	a5,-1
    19de:	04f50363          	beq	a0,a5,1a24 <_printf_common+0xbe>
    19e2:	401c                	lw	a5,0(s0)
    19e4:	4711                	li	a4,4
    19e6:	4481                	li	s1,0
    19e8:	8b99                	andi	a5,a5,6
    19ea:	00e79963          	bne	a5,a4,19fc <_printf_common+0x96>
    19ee:	00092783          	lw	a5,0(s2)
    19f2:	4444                	lw	s1,12(s0)
    19f4:	8c9d                	sub	s1,s1,a5
    19f6:	4781                	li	a5,0
    19f8:	0af4e4b3          	max	s1,s1,a5
    19fc:	441c                	lw	a5,8(s0)
    19fe:	4818                	lw	a4,16(s0)
    1a00:	00f75463          	bge	a4,a5,1a08 <_printf_common+0xa2>
    1a04:	8f99                	sub	a5,a5,a4
    1a06:	94be                	add	s1,s1,a5
    1a08:	4901                	li	s2,0
    1a0a:	0469                	addi	s0,s0,26
    1a0c:	5b7d                	li	s6,-1
    1a0e:	05249863          	bne	s1,s2,1a5e <_printf_common+0xf8>
    1a12:	4501                	li	a0,0
    1a14:	a809                	j	1a26 <_printf_common+0xc0>
    1a16:	4685                	li	a3,1
    1a18:	865a                	mv	a2,s6
    1a1a:	85d2                	mv	a1,s4
    1a1c:	854e                	mv	a0,s3
    1a1e:	9a82                	jalr	s5
    1a20:	01751e63          	bne	a0,s7,1a3c <_printf_common+0xd6>
    1a24:	557d                	li	a0,-1
    1a26:	50b2                	lw	ra,44(sp)
    1a28:	5422                	lw	s0,40(sp)
    1a2a:	5492                	lw	s1,36(sp)
    1a2c:	5902                	lw	s2,32(sp)
    1a2e:	49f2                	lw	s3,28(sp)
    1a30:	4a62                	lw	s4,24(sp)
    1a32:	4ad2                	lw	s5,20(sp)
    1a34:	4b42                	lw	s6,16(sp)
    1a36:	4bb2                	lw	s7,12(sp)
    1a38:	6145                	addi	sp,sp,48
    1a3a:	8082                	ret
    1a3c:	0485                	addi	s1,s1,1
    1a3e:	bfa5                	j	19b6 <_printf_common+0x50>
    1a40:	00d40733          	add	a4,s0,a3
    1a44:	03000613          	li	a2,48
    1a48:	04c701a3          	sb	a2,67(a4)
    1a4c:	04544703          	lbu	a4,69(s0)
    1a50:	00168793          	addi	a5,a3,1
    1a54:	97a2                	add	a5,a5,s0
    1a56:	0689                	addi	a3,a3,2
    1a58:	04e781a3          	sb	a4,67(a5)
    1a5c:	bf9d                	j	19d2 <_printf_common+0x6c>
    1a5e:	4685                	li	a3,1
    1a60:	8622                	mv	a2,s0
    1a62:	85d2                	mv	a1,s4
    1a64:	854e                	mv	a0,s3
    1a66:	9a82                	jalr	s5
    1a68:	fb650ee3          	beq	a0,s6,1a24 <_printf_common+0xbe>
    1a6c:	0905                	addi	s2,s2,1
    1a6e:	b745                	j	1a0e <_printf_common+0xa8>

00001a70 <_printf_i>:
_printf_i():
    1a70:	7179                	addi	sp,sp,-48
    1a72:	d422                	sw	s0,40(sp)
    1a74:	d04a                	sw	s2,32(sp)
    1a76:	ce4e                	sw	s3,28(sp)
    1a78:	cc52                	sw	s4,24(sp)
    1a7a:	d606                	sw	ra,44(sp)
    1a7c:	d226                	sw	s1,36(sp)
    1a7e:	ca56                	sw	s5,20(sp)
    1a80:	c85a                	sw	s6,16(sp)
    1a82:	0185c803          	lbu	a6,24(a1)
    1a86:	07800793          	li	a5,120
    1a8a:	892a                	mv	s2,a0
    1a8c:	842e                	mv	s0,a1
    1a8e:	89b2                	mv	s3,a2
    1a90:	8a36                	mv	s4,a3
    1a92:	0307e263          	bltu	a5,a6,1ab6 <_printf_i+0x46>
    1a96:	06200793          	li	a5,98
    1a9a:	04358693          	addi	a3,a1,67
    1a9e:	0307e163          	bltu	a5,a6,1ac0 <_printf_i+0x50>
    1aa2:	1c080b63          	beqz	a6,1c78 <_printf_i+0x208>
    1aa6:	05800793          	li	a5,88
    1aaa:	00000617          	auipc	a2,0x0
    1aae:	35660613          	addi	a2,a2,854 # 1e00 <__sf_fake_stdin+0x34>
    1ab2:	14f80763          	beq	a6,a5,1c00 <_printf_i+0x190>
    1ab6:	04240493          	addi	s1,s0,66
    1aba:	05040123          	sb	a6,66(s0)
    1abe:	a815                	j	1af2 <_printf_i+0x82>
    1ac0:	f9d80793          	addi	a5,a6,-99
    1ac4:	0ff7f793          	zext.b	a5,a5
    1ac8:	4655                	li	a2,21
    1aca:	fef666e3          	bltu	a2,a5,1ab6 <_printf_i+0x46>
    1ace:	00000617          	auipc	a2,0x0
    1ad2:	35a60613          	addi	a2,a2,858 # 1e28 <__sf_fake_stdin+0x5c>
    1ad6:	20c7c7b3          	sh2add	a5,a5,a2
    1ada:	439c                	lw	a5,0(a5)
    1adc:	97b2                	add	a5,a5,a2
    1ade:	8782                	jr	a5
    1ae0:	431c                	lw	a5,0(a4)
    1ae2:	04258493          	addi	s1,a1,66
    1ae6:	00478693          	addi	a3,a5,4
    1aea:	439c                	lw	a5,0(a5)
    1aec:	c314                	sw	a3,0(a4)
    1aee:	04f58123          	sb	a5,66(a1)
    1af2:	4785                	li	a5,1
    1af4:	a265                	j	1c9c <_printf_i+0x22c>
    1af6:	4190                	lw	a2,0(a1)
    1af8:	431c                	lw	a5,0(a4)
    1afa:	08067513          	andi	a0,a2,128
    1afe:	00478593          	addi	a1,a5,4
    1b02:	c129                	beqz	a0,1b44 <_printf_i+0xd4>
    1b04:	439c                	lw	a5,0(a5)
    1b06:	c30c                	sw	a1,0(a4)
    1b08:	4058                	lw	a4,4(s0)
    1b0a:	1207de63          	bgez	a5,1c46 <_printf_i+0x1d6>
    1b0e:	02d00593          	li	a1,45
    1b12:	04b401a3          	sb	a1,67(s0)
    1b16:	c418                	sw	a4,8(s0)
    1b18:	02075e63          	bgez	a4,1b54 <_printf_i+0xe4>
    1b1c:	40f007b3          	neg	a5,a5
    1b20:	00000617          	auipc	a2,0x0
    1b24:	2e060613          	addi	a2,a2,736 # 1e00 <__sf_fake_stdin+0x34>
    1b28:	4829                	li	a6,10
    1b2a:	84b6                	mv	s1,a3
    1b2c:	0307f733          	remu	a4,a5,a6
    1b30:	14fd                	addi	s1,s1,-1
    1b32:	9732                	add	a4,a4,a2
    1b34:	2318                	lbu	a4,0(a4)
    1b36:	a098                	sb	a4,0(s1)
    1b38:	873e                	mv	a4,a5
    1b3a:	0307d7b3          	divu	a5,a5,a6
    1b3e:	ff0777e3          	bgeu	a4,a6,1b2c <_printf_i+0xbc>
    1b42:	a085                	j	1ba2 <_printf_i+0x132>
    1b44:	439c                	lw	a5,0(a5)
    1b46:	04067513          	andi	a0,a2,64
    1b4a:	c30c                	sw	a1,0(a4)
    1b4c:	dd55                	beqz	a0,1b08 <_printf_i+0x98>
    1b4e:	60579793          	sext.h	a5,a5
    1b52:	bf5d                	j	1b08 <_printf_i+0x98>
    1b54:	9a6d                	andi	a2,a2,-5
    1b56:	c010                	sw	a2,0(s0)
    1b58:	b7d1                	j	1b1c <_printf_i+0xac>
    1b5a:	4190                	lw	a2,0(a1)
    1b5c:	431c                	lw	a5,0(a4)
    1b5e:	08067513          	andi	a0,a2,128
    1b62:	00478593          	addi	a1,a5,4
    1b66:	c501                	beqz	a0,1b6e <_printf_i+0xfe>
    1b68:	c30c                	sw	a1,0(a4)
    1b6a:	439c                	lw	a5,0(a5)
    1b6c:	a031                	j	1b78 <_printf_i+0x108>
    1b6e:	04067613          	andi	a2,a2,64
    1b72:	c30c                	sw	a1,0(a4)
    1b74:	da7d                	beqz	a2,1b6a <_printf_i+0xfa>
    1b76:	239e                	lhu	a5,0(a5)
    1b78:	06f00713          	li	a4,111
    1b7c:	00000617          	auipc	a2,0x0
    1b80:	28460613          	addi	a2,a2,644 # 1e00 <__sf_fake_stdin+0x34>
    1b84:	0ae81f63          	bne	a6,a4,1c42 <_printf_i+0x1d2>
    1b88:	4821                	li	a6,8
    1b8a:	040401a3          	sb	zero,67(s0)
    1b8e:	4058                	lw	a4,4(s0)
    1b90:	c418                	sw	a4,8(s0)
    1b92:	f8074ce3          	bltz	a4,1b2a <_printf_i+0xba>
    1b96:	400c                	lw	a1,0(s0)
    1b98:	99ed                	andi	a1,a1,-5
    1b9a:	c00c                	sw	a1,0(s0)
    1b9c:	f7d9                	bnez	a5,1b2a <_printf_i+0xba>
    1b9e:	84b6                	mv	s1,a3
    1ba0:	f749                	bnez	a4,1b2a <_printf_i+0xba>
    1ba2:	47a1                	li	a5,8
    1ba4:	00f81e63          	bne	a6,a5,1bc0 <_printf_i+0x150>
    1ba8:	401c                	lw	a5,0(s0)
    1baa:	8b85                	andi	a5,a5,1
    1bac:	cb91                	beqz	a5,1bc0 <_printf_i+0x150>
    1bae:	4058                	lw	a4,4(s0)
    1bb0:	481c                	lw	a5,16(s0)
    1bb2:	00e7c763          	blt	a5,a4,1bc0 <_printf_i+0x150>
    1bb6:	03000793          	li	a5,48
    1bba:	fef48fa3          	sb	a5,-1(s1)
    1bbe:	14fd                	addi	s1,s1,-1
    1bc0:	8e85                	sub	a3,a3,s1
    1bc2:	c814                	sw	a3,16(s0)
    1bc4:	8752                	mv	a4,s4
    1bc6:	86ce                	mv	a3,s3
    1bc8:	0070                	addi	a2,sp,12
    1bca:	85a2                	mv	a1,s0
    1bcc:	854a                	mv	a0,s2
    1bce:	3b61                	jal	1966 <_printf_common>
    1bd0:	5afd                	li	s5,-1
    1bd2:	0d551963          	bne	a0,s5,1ca4 <_printf_i+0x234>
    1bd6:	557d                	li	a0,-1
    1bd8:	50b2                	lw	ra,44(sp)
    1bda:	5422                	lw	s0,40(sp)
    1bdc:	5492                	lw	s1,36(sp)
    1bde:	5902                	lw	s2,32(sp)
    1be0:	49f2                	lw	s3,28(sp)
    1be2:	4a62                	lw	s4,24(sp)
    1be4:	4ad2                	lw	s5,20(sp)
    1be6:	4b42                	lw	s6,16(sp)
    1be8:	6145                	addi	sp,sp,48
    1bea:	8082                	ret
    1bec:	419c                	lw	a5,0(a1)
    1bee:	0207e793          	ori	a5,a5,32
    1bf2:	c19c                	sw	a5,0(a1)
    1bf4:	07800813          	li	a6,120
    1bf8:	00000617          	auipc	a2,0x0
    1bfc:	21c60613          	addi	a2,a2,540 # 1e14 <__sf_fake_stdin+0x48>
    1c00:	050402a3          	sb	a6,69(s0)
    1c04:	400c                	lw	a1,0(s0)
    1c06:	431c                	lw	a5,0(a4)
    1c08:	0805f813          	andi	a6,a1,128
    1c0c:	00478513          	addi	a0,a5,4
    1c10:	00080563          	beqz	a6,1c1a <_printf_i+0x1aa>
    1c14:	c308                	sw	a0,0(a4)
    1c16:	439c                	lw	a5,0(a5)
    1c18:	a039                	j	1c26 <_printf_i+0x1b6>
    1c1a:	0405f813          	andi	a6,a1,64
    1c1e:	c308                	sw	a0,0(a4)
    1c20:	fe080be3          	beqz	a6,1c16 <_printf_i+0x1a6>
    1c24:	239e                	lhu	a5,0(a5)
    1c26:	0015f713          	andi	a4,a1,1
    1c2a:	c701                	beqz	a4,1c32 <_printf_i+0x1c2>
    1c2c:	0205e593          	ori	a1,a1,32
    1c30:	c00c                	sw	a1,0(s0)
    1c32:	c399                	beqz	a5,1c38 <_printf_i+0x1c8>
    1c34:	4841                	li	a6,16
    1c36:	bf91                	j	1b8a <_printf_i+0x11a>
    1c38:	4018                	lw	a4,0(s0)
    1c3a:	fdf77713          	andi	a4,a4,-33
    1c3e:	c018                	sw	a4,0(s0)
    1c40:	bfd5                	j	1c34 <_printf_i+0x1c4>
    1c42:	4829                	li	a6,10
    1c44:	b799                	j	1b8a <_printf_i+0x11a>
    1c46:	00000617          	auipc	a2,0x0
    1c4a:	1ba60613          	addi	a2,a2,442 # 1e00 <__sf_fake_stdin+0x34>
    1c4e:	4829                	li	a6,10
    1c50:	bf3d                	j	1b8e <_printf_i+0x11e>
    1c52:	4190                	lw	a2,0(a1)
    1c54:	431c                	lw	a5,0(a4)
    1c56:	49cc                	lw	a1,20(a1)
    1c58:	08067813          	andi	a6,a2,128
    1c5c:	00478513          	addi	a0,a5,4
    1c60:	00080663          	beqz	a6,1c6c <_printf_i+0x1fc>
    1c64:	c308                	sw	a0,0(a4)
    1c66:	439c                	lw	a5,0(a5)
    1c68:	c38c                	sw	a1,0(a5)
    1c6a:	a039                	j	1c78 <_printf_i+0x208>
    1c6c:	c308                	sw	a0,0(a4)
    1c6e:	04067613          	andi	a2,a2,64
    1c72:	439c                	lw	a5,0(a5)
    1c74:	da75                	beqz	a2,1c68 <_printf_i+0x1f8>
    1c76:	a38e                	sh	a1,0(a5)
    1c78:	00042823          	sw	zero,16(s0)
    1c7c:	84b6                	mv	s1,a3
    1c7e:	b799                	j	1bc4 <_printf_i+0x154>
    1c80:	431c                	lw	a5,0(a4)
    1c82:	41d0                	lw	a2,4(a1)
    1c84:	4581                	li	a1,0
    1c86:	00478693          	addi	a3,a5,4
    1c8a:	c314                	sw	a3,0(a4)
    1c8c:	4384                	lw	s1,0(a5)
    1c8e:	8526                	mv	a0,s1
    1c90:	317d                	jal	193e <memchr>
    1c92:	c501                	beqz	a0,1c9a <_printf_i+0x22a>
    1c94:	409507b3          	sub	a5,a0,s1
    1c98:	c05c                	sw	a5,4(s0)
    1c9a:	405c                	lw	a5,4(s0)
    1c9c:	c81c                	sw	a5,16(s0)
    1c9e:	040401a3          	sb	zero,67(s0)
    1ca2:	b70d                	j	1bc4 <_printf_i+0x154>
    1ca4:	4814                	lw	a3,16(s0)
    1ca6:	8626                	mv	a2,s1
    1ca8:	85ce                	mv	a1,s3
    1caa:	854a                	mv	a0,s2
    1cac:	9a02                	jalr	s4
    1cae:	f35504e3          	beq	a0,s5,1bd6 <_printf_i+0x166>
    1cb2:	401c                	lw	a5,0(s0)
    1cb4:	8b89                	andi	a5,a5,2
    1cb6:	e785                	bnez	a5,1cde <_printf_i+0x26e>
    1cb8:	4448                	lw	a0,12(s0)
    1cba:	47b2                	lw	a5,12(sp)
    1cbc:	0af56533          	max	a0,a0,a5
    1cc0:	bf21                	j	1bd8 <_printf_i+0x168>
    1cc2:	4685                	li	a3,1
    1cc4:	8656                	mv	a2,s5
    1cc6:	85ce                	mv	a1,s3
    1cc8:	854a                	mv	a0,s2
    1cca:	9a02                	jalr	s4
    1ccc:	f16505e3          	beq	a0,s6,1bd6 <_printf_i+0x166>
    1cd0:	0485                	addi	s1,s1,1
    1cd2:	445c                	lw	a5,12(s0)
    1cd4:	4732                	lw	a4,12(sp)
    1cd6:	8f99                	sub	a5,a5,a4
    1cd8:	fef4c5e3          	blt	s1,a5,1cc2 <_printf_i+0x252>
    1cdc:	bff1                	j	1cb8 <_printf_i+0x248>
    1cde:	4481                	li	s1,0
    1ce0:	01940a93          	addi	s5,s0,25
    1ce4:	5b7d                	li	s6,-1
    1ce6:	b7f5                	j	1cd2 <_printf_i+0x262>

00001ce8 <_read_r>:
_read_r():
    1ce8:	1141                	addi	sp,sp,-16
    1cea:	c422                	sw	s0,8(sp)
    1cec:	842a                	mv	s0,a0
    1cee:	852e                	mv	a0,a1
    1cf0:	85b2                	mv	a1,a2
    1cf2:	8636                	mv	a2,a3
    1cf4:	8201a223          	sw	zero,-2012(gp) # 2000071c <errno>
    1cf8:	c606                	sw	ra,12(sp)
    1cfa:	20a1                	jal	1d42 <_read>
    1cfc:	57fd                	li	a5,-1
    1cfe:	00f51663          	bne	a0,a5,1d0a <_read_r+0x22>
    1d02:	8241a783          	lw	a5,-2012(gp) # 2000071c <errno>
    1d06:	c391                	beqz	a5,1d0a <_read_r+0x22>
    1d08:	c01c                	sw	a5,0(s0)
    1d0a:	40b2                	lw	ra,12(sp)
    1d0c:	4422                	lw	s0,8(sp)
    1d0e:	0141                	addi	sp,sp,16
    1d10:	8082                	ret

00001d12 <_close>:
_close():
    1d12:	05800793          	li	a5,88
    1d16:	82f1a223          	sw	a5,-2012(gp) # 2000071c <errno>
    1d1a:	557d                	li	a0,-1
    1d1c:	8082                	ret

00001d1e <_fstat>:
_fstat():
    1d1e:	05800793          	li	a5,88
    1d22:	82f1a223          	sw	a5,-2012(gp) # 2000071c <errno>
    1d26:	557d                	li	a0,-1
    1d28:	8082                	ret

00001d2a <_isatty>:
_isatty():
    1d2a:	05800793          	li	a5,88
    1d2e:	82f1a223          	sw	a5,-2012(gp) # 2000071c <errno>
    1d32:	4501                	li	a0,0
    1d34:	8082                	ret

00001d36 <_lseek>:
_lseek():
    1d36:	05800793          	li	a5,88
    1d3a:	82f1a223          	sw	a5,-2012(gp) # 2000071c <errno>
    1d3e:	557d                	li	a0,-1
    1d40:	8082                	ret

00001d42 <_read>:
_read():
    1d42:	05800793          	li	a5,88
    1d46:	82f1a223          	sw	a5,-2012(gp) # 2000071c <errno>
    1d4a:	557d                	li	a0,-1
    1d4c:	8082                	ret
    1d4e:	0000                	unimp
    1d50:	72617453          	.4byte	0x72617453
    1d54:	2074                	lbu	a3,6(s0)
    1d56:	4340                	lw	s0,4(a4)
    1d58:	6968                	.2byte	0x6968
    1d5a:	4970                	lw	a2,84(a0)
    1d5c:	3d44                	lbu	s1,29(a0)
    1d5e:	3025                	jal	1586 <_vfiprintf_r+0x8c>
    1d60:	5832                	lw	a6,44(sp)
    1d62:	000a                	c.slli	zero,0x2
    1d64:	4441                	li	s0,16
    1d66:	62345f43          	.4byte	0x62345f43
    1d6a:	7469                	lui	s0,0xffffa
    1d6c:	535f 6d61 6c70      	.byte	0x5f, 0x53, 0x61, 0x6d, 0x70, 0x6c
    1d72:	2065                	jal	1e1a <__sf_fake_stdin+0x4e>
    1d74:	6425                	lui	s0,0x9
    1d76:	000a                	c.slli	zero,0x2
    1d78:	eb84                	.2byte	0xeb84
    1d7a:	ffff                	.2byte	0xffff
    1d7c:	eb9c                	.2byte	0xeb9c
    1d7e:	ffff                	.2byte	0xffff
    1d80:	ebc0                	.2byte	0xebc0
    1d82:	ffff                	.2byte	0xffff
    1d84:	ebca                	.2byte	0xebca
    1d86:	ffff                	.2byte	0xffff
    1d88:	ebe0                	.2byte	0xebe0
    1d8a:	ffff                	.2byte	0xffff

00001d8c <__sf_fake_stderr>:
	...

00001dac <__sf_fake_stdout>:
	...

00001dcc <__sf_fake_stdin>:
	...
    1dec:	2d23 2b30 0020 0000 6c68 004c 6665 4567     #-0+ ...hlL.efgE
    1dfc:	4746 0000 3130 3332 3534 3736 3938 4241     FG..0123456789AB
    1e0c:	4443 4645 0000 0000 3130 3332 3534 3736     CDEF....01234567
    1e1c:	3938 6261 6463 6665 0000 0000 fcb8 ffff     89abcdef........
    1e2c:	fcce ffff fc8e ffff fc8e ffff fc8e ffff     ................
    1e3c:	fc8e ffff fcce ffff fc8e ffff fc8e ffff     ................
    1e4c:	fc8e ffff fc8e ffff fe2a ffff fd32 ffff     ........*...2...
    1e5c:	fdc4 ffff fc8e ffff fc8e ffff fe58 ffff     ............X...
    1e6c:	fc8e ffff fd32 ffff fc8e ffff fc8e ffff     ....2...........
    1e7c:	fdcc ffff                                   ....

Disassembly of section .vector_handler:

00001e80 <BB_IRQHandler>:
ENDOCE_IRQHandler():
c:\Users\seanw\mounriver-studio-projects\CH570D-ADC-Soil\obj/../Startup/startup_CH572.S:111
	j 1b
    1e80:	a001                	j	1e80 <BB_IRQHandler>
