
CH570D-power_profiling_dummy_operations.elf:     file format elf32-littleriscv
CH570D-power_profiling_dummy_operations.elf
architecture: riscv:rv32, flags 0x00000112:
EXEC_P, HAS_SYMS, D_PAGED
start address 0x00000000

Program Header:
0x70000003 off    0x000102f8 vaddr 0x00000000 paddr 0x00000000 align 2**0
         filesz 0x00000051 memsz 0x00000000 flags r--
    LOAD off    0x00001000 vaddr 0x00000000 paddr 0x00000000 align 2**12
         filesz 0x00000004 memsz 0x00000004 flags r-x
    LOAD off    0x00002000 vaddr 0x20000000 paddr 0x00000004 align 2**12
         filesz 0x00000998 memsz 0x00000998 flags r-x
    LOAD off    0x0000299c vaddr 0x0000099c paddr 0x0000099c align 2**12
         filesz 0x00001b7e memsz 0x00001b80 flags rwx
    LOAD off    0x00004998 vaddr 0x20000998 paddr 0x0000251c align 2**12
         filesz 0x0000006c memsz 0x00000088 flags rw-

Sections:
Idx Name                 Size      VMA       LMA       File off  Algn  Flags
  0 .init                00000004  00000000  00000000  00001000  2**1  CONTENTS, ALLOC, LOAD, READONLY, CODE
  1 .highcode_initlalign 00000000  00000004  00000004  00004a04  2**0  CONTENTS
  2 .highcodelalign      00000000  00000004  00000004  00004a04  2**0  CONTENTS
  3 .highcode            00000998  20000000  00000004  00002000  2**1  CONTENTS, ALLOC, LOAD, READONLY, CODE
  4 .text                00001b7c  0000099c  0000099c  0000299c  2**2  CONTENTS, ALLOC, LOAD, READONLY, CODE
  5 .vector_handler      00000002  00002518  00002518  00004518  2**0  CONTENTS, ALLOC, LOAD, READONLY, CODE
  6 .fini                00000002  0000251a  0000251a  0000451a  2**0  ALLOC, CODE
  7 .dlalign             00000000  0000251c  0000251c  00004a04  2**0  CONTENTS
  8 .data                0000006c  20000998  0000251c  00004998  2**2  CONTENTS, ALLOC, LOAD, DATA
  9 .bss                 0000001c  20000a04  00002588  00004a04  2**2  ALLOC
 10 .stack               00000000  20003000  20003000  00004a04  2**0  CONTENTS
 11 .debug_info          000036e9  00000000  00000000  00004a04  2**0  CONTENTS, READONLY, DEBUGGING, OCTETS
 12 .debug_abbrev        00000ecb  00000000  00000000  000080ed  2**0  CONTENTS, READONLY, DEBUGGING, OCTETS
 13 .debug_loclists      00001251  00000000  00000000  00008fb8  2**0  CONTENTS, READONLY, DEBUGGING, OCTETS
 14 .debug_aranges       00000258  00000000  00000000  0000a210  2**3  CONTENTS, READONLY, DEBUGGING, OCTETS
 15 .debug_rnglists      0000035f  00000000  00000000  0000a468  2**0  CONTENTS, READONLY, DEBUGGING, OCTETS
 16 .debug_line          000046b5  00000000  00000000  0000a7c7  2**0  CONTENTS, READONLY, DEBUGGING, OCTETS
 17 .debug_str           00000f5e  00000000  00000000  0000ee7c  2**0  CONTENTS, READONLY, DEBUGGING, OCTETS
 18 .debug_line_str      000004ba  00000000  00000000  0000fdda  2**0  CONTENTS, READONLY, DEBUGGING, OCTETS
 19 .comment             00000064  00000000  00000000  00010294  2**0  CONTENTS, READONLY
 20 .riscv.attributes    00000051  00000000  00000000  000102f8  2**0  CONTENTS, READONLY
 21 .debug_frame         00000520  00000000  00000000  0001034c  2**2  CONTENTS, READONLY, DEBUGGING, OCTETS
SYMBOL TABLE:
00000000 l    d  .init	00000000 .init
00000004 l    d  .highcode_initlalign	00000000 .highcode_initlalign
00000004 l    d  .highcodelalign	00000000 .highcodelalign
20000000 l    d  .highcode	00000000 .highcode
0000099c l    d  .text	00000000 .text
00002518 l    d  .vector_handler	00000000 .vector_handler
0000251a l    d  .fini	00000000 .fini
0000251c l    d  .dlalign	00000000 .dlalign
20000998 l    d  .data	00000000 .data
20000a04 l    d  .bss	00000000 .bss
20003000 l    d  .stack	00000000 .stack
00000000 l    d  .debug_info	00000000 .debug_info
00000000 l    d  .debug_abbrev	00000000 .debug_abbrev
00000000 l    d  .debug_loclists	00000000 .debug_loclists
00000000 l    d  .debug_aranges	00000000 .debug_aranges
00000000 l    d  .debug_rnglists	00000000 .debug_rnglists
00000000 l    d  .debug_line	00000000 .debug_line
00000000 l    d  .debug_str	00000000 .debug_str
00000000 l    d  .debug_line_str	00000000 .debug_line_str
00000000 l    d  .comment	00000000 .comment
00000000 l    d  .riscv.attributes	00000000 .riscv.attributes
00000000 l    d  .debug_frame	00000000 .debug_frame
00000000 l    df *ABS*	00000000 startup_CH572.o
00002518 l       .vector_handler	00000000 ENDOCE_IRQHandler
00000000 l    df *ABS*	00000000 Main.c
00000000 l    df *ABS*	00000000 CH57x_pwr.c
00000000 l    df *ABS*	00000000 CH57x_sys.c
200009f8 l     O .data	00000004 curbrk.0
00000000 l    df *ABS*	00000000 ISP572.c
200006ca l       .highcode	00000000 .loop52
200006d8 l       .highcode	00000000 .loop63
200006e6 l       .highcode	00000000 .loop74
200007e6 l       .highcode	00000000 .loop247
00000000 l    df *ABS*	00000000 lib_a-memset.o
00000000 l    df *ABS*	00000000 CH57x_clk.c
00000000 l    df *ABS*	00000000 CH57x_gpio.c
00000000 l    df *ABS*	00000000 CH57x_uart.c
00000000 l    df *ABS*	00000000 lib_a-printf.o
00000000 l    df *ABS*	00000000 lib_a-puts.o
00000000 l    df *ABS*	00000000 lib_a-wbuf.o
00000000 l    df *ABS*	00000000 lib_a-wsetup.o
00000000 l    df *ABS*	00000000 lib_a-fflush.o
00000000 l    df *ABS*	00000000 lib_a-findfp.o
00001530 l     F .text	00000066 std
00000000 l    df *ABS*	00000000 lib_a-fwalk.o
00000000 l    df *ABS*	00000000 lib_a-lock.o
00000000 l    df *ABS*	00000000 lib_a-makebuf.o
00000000 l    df *ABS*	00000000 lib_a-nano-freer.o
00000000 l    df *ABS*	00000000 lib_a-nano-mallocr.o
00001902 l     F .text	00000054 sbrk_aligned
00000000 l    df *ABS*	00000000 lib_a-nano-vfprintf.o
00001a58 l     F .text	00000028 __sfputc_r
00000000 l    df *ABS*	00000000 lib_a-sbrkr.o
00000000 l    df *ABS*	00000000 lib_a-stdio.o
00000000 l    df *ABS*	00000000 lib_a-writer.o
00000000 l    df *ABS*	00000000 lib_a-closer.o
00000000 l    df *ABS*	00000000 lib_a-fstatr.o
00000000 l    df *ABS*	00000000 lib_a-isattyr.o
00000000 l    df *ABS*	00000000 lib_a-lseekr.o
00000000 l    df *ABS*	00000000 lib_a-memchr.o
00000000 l    df *ABS*	00000000 lib_a-mlock.o
00000000 l    df *ABS*	00000000 lib_a-nano-vfprintf_i.o
00000000 l    df *ABS*	00000000 lib_a-readr.o
00000000 l    df *ABS*	00000000 close.o
00000000 l    df *ABS*	00000000 fstat.o
00000000 l    df *ABS*	00000000 isatty.o
00000000 l    df *ABS*	00000000 lseek.o
00000000 l    df *ABS*	00000000 read.o
00000000 l    df *ABS*	00000000 lib_a-impure.o
20000998 l     O .data	00000060 impure_data
00001eb4 g     F .text	00000026 _isatty_r
000010ba g     F .text	00000104 _puts_r
00001eda g     F .text	0000002a _lseek_r
200006e6 g     F .highcode	0000000e FLASH_ROM_OUT
00002518  w      .vector_handler	00000000 CMP_IRQHandler
0000107c g     F .text	0000003e printf
200011f8 g       .data	00000000 __global_pointer$
00001e06 g     F .text	0000002e __sseek
000015fe g     F .text	00000068 __sinit
000011ca g     F .text	000000bc __swbuf_r
20000656 g     F .highcode	0000000e mDelayuS
200005d2  w    F .highcode	00000084 HardFault_Handler
000015a0 g     F .text	00000046 __sfmoreglue
00001f24 g     F .text	00000008 __malloc_unlock
00002518  w      .vector_handler	00000000 GPIOA_IRQHandler
00002518  w      .vector_handler	00000000 SysTick_Handler
00002518  w      .vector_handler	00000000 NMI_Handler
00002518  w      .vector_handler	00000000 UART_IRQHandler
20000216 g     F .highcode	0000017c LowPower_Sleep
00001e8c g     F .text	00000028 _fstat_r
20000a1c g     O .bss	00000004 errno
200007aa g     F .highcode	00000060 FLASH_CMD_ROM_WRITE
20000a04 g       .bss	00000000 _sbss
200006d8 g     F .highcode	0000000e FLASH_ROM_IN
00000eec g     F .text	00000032 UART_DefInit
00000c22 g     F .text	00000050 HSECFG_Capacitance
00001596 g     F .text	0000000a _cleanup_r
000011be g     F .text	0000000c puts
00002518  w      .vector_handler	00000000 SWI_Handler
000022e4 g     F .text	0000000c _fstat
00000004 g       .init	00000000 _einit
00000c72 g     F .text	0000001a RTC_GetITFlag
00002518  w      .vector_handler	00000000 BB_IRQHandler
00000f46 g     F .text	00000136 FLASH_EEPROM_CMD
00002518  w      .vector_handler	00000000 Break_Point_Handler
20000774 g     F .highcode	00000036 FLASH_START
00001d6e g     F .text	00000028 _sbrk_r
000022ae g     F .text	0000002a _read_r
200006b6 g     F .highcode	00000014 FLASH_ROM_BEG
2000080a g     F .highcode	00000072 FLASH_CMD_ROM_ERASE
20000664 g     F .highcode	0000001e mDelaymS
00002518  w      .vector_handler	00000000 Ecall_M_Mode_Handler
000022f0 g     F .text	0000000c _isatty
20000a10 g     O .bss	00000001 __lock___sinit_recursive_mutex
20000a00 g     O .data	00000004 _global_impure_ptr
200006f4 g     F .highcode	00000048 FLASH_ROM_ADDR
00000e94 g     F .text	00000028 _sbrk
00000a86 g     F .text	00000058 RTC_Init_Wakeup
20000090 g     F .highcode	0000001e RTC_IRQHandler
20000a20 g       .bss	00000000 _ebss
00002518  w      .vector_handler	00000000 SPI_IRQHandler
20000a08 g     O .bss	00000001 __lock___malloc_recursive_mutex
2000073c g     F .highcode	00000038 FLASH_ROM_WAIT
00000f1e g     F .text	00000028 UART_Remap
00002424 g     O .text	00000020 __sf_fake_stderr
20000000 g       .highcode	00000000 _vector_base
00001778 g     F .text	00000002 __retarget_lock_release_recursive
00002518  w      .vector_handler	00000000 PWMX_IRQHandler
00001a80 g     F .text	00000040 __sfputs_r
000015e6 g     F .text	00000006 __sfp_lock_acquire
00001f04 g     F .text	00000018 memchr
00001864 g     F .text	0000009e _free_r
00000a5e g     F .text	00000028 DebugInit
00000000 g       .init	00000000 _start
000022fc g     F .text	0000000c _lseek
20000000 g       .highcode	00000000 _highcode_vma_start
200000ee g     F .highcode	00000128 LowPower_Halt
00000d2e g     F .text	000000e6 PWR_PeriphWakeUpCfg
00001e66 g     F .text	00000026 _close_r
00002518  w      .vector_handler	00000000 KEYSCAN_IRQHandler
20000998 g       .data	00000000 _data_vma
20000392 g     F .highcode	00000240 SetSysClock
00002518  w      .vector_handler	00000000 USB_IRQHandler
00001286 g     F .text	000000f2 __swsetup_r
2000093e g     F .highcode	0000003e FLASH_CMD_GET_UNIQUE_ID
00001666 g     F .text	000000a6 __sfp
200008cc g     F .highcode	00000012 FLASH_CMD_ROM_PWR
000015f8 g     F .text	00000006 __sinit_lock_release
00001d96 g     F .text	0000002a __sread
00001f1c g     F .text	00000008 __malloc_lock
000014aa g     F .text	00000086 _fflush_r
00002464 g     O .text	00000020 __sf_fake_stdin
00001776 g     F .text	00000002 __retarget_lock_acquire_recursive
00002518  w      .vector_handler	00000000 I2C_IRQHandler
00000a4e g     F .text	00000010 memset
00000ade g     F .text	000000f6 main
00001774 g     F .text	00000002 __retarget_lock_init_recursive
00001e34 g     F .text	00000006 __sclose
00001956 g     F .text	00000102 _malloc_r
00000004 g       .highcodelalign	00000000 _highcode_lma
0000107c g     F .text	0000003e iprintf
00000bd4 g     F .text	0000004e HSECFG_Current
00002518  w      .vector_handler	00000000 LLE_IRQHandler
00000000 g       .init	00000000 _sinit
00001e3a g     F .text	0000002c _write_r
2000097c g     F .highcode	0000001a FLASH_CMD_ROM_SW_RESET
00002518  w      .vector_handler	00000000 TMR_IRQHandler
00001f2c g     F .text	0000010a _printf_common
200009fc g     O .data	00000004 _impure_ptr
00001378 g     F .text	00000132 __sflush_r
20000a04 g     O .bss	00000004 Freq_LSI
00002518  w      .vector_handler	00000000 WDOG_BAT_IRQHandler
00002518  w      .vector_handler	00000000 Ecall_U_Mode_Handler
20003000 g       .stack	00000000 _eusrstack
00000cac g     F .text	00000082 GPIOA_ModeCfg
0000177a g     F .text	00000058 __swhatbuf_r
00000e14 g     F .text	0000005a GetSysClock
00000c8c g     F .text	00000020 RTC_ClearITFlag
20000682 g     F .highcode	00000034 FLASH_ROM_BEG_FF
200008de g     F .highcode	00000060 FLASH_CMD_GET_ROM_INFO
00000e6e g     F .text	00000026 _write
20000a04 g       .data	00000000 _edata
20000a20 g       .bss	00000000 _end
20000998 g       .highcode	00000000 _highcode_vma_end
0000251c g       .dlalign	00000000 _data_lma
00001dc0 g     F .text	00000046 __swrite
00001ac0 g     F .text	000002ae _vfiprintf_r
0000170c g     F .text	00000068 _fwalk_reent
000015ec g     F .text	00000006 __sfp_lock_release
00002444 g     O .text	00000020 __sf_fake_stdout
00002308 g     F .text	0000000c _read
0000099c  w      .text	00000000 handle_reset
000017d2 g     F .text	00000092 __smakebuf_r
00002036 g     F .text	00000278 _printf_i
20000a14 g     O .bss	00000004 __malloc_sbrk_start
00000ebc g     F .text	00000030 UART_BaudRateCfg
200006ca g     F .highcode	0000000e FLASH_ROM_END
20000a18 g     O .bss	00000004 __malloc_free_list
200000ae g     F .highcode	00000040 LowPower_Idle
00001ac0 g     F .text	000002ae _vfprintf_r
2000087c g     F .highcode	00000050 FLASH_CMD_ROM_VERIFY
20000a0c g     O .bss	00000001 __lock___sfp_recursive_mutex
000022d8 g     F .text	0000000c _close
000015f2 g     F .text	00000006 __sinit_lock_acquire



Disassembly of section .init:

00000000 <_sinit>:
_start():
c:\Users\seanw\mounriver-studio-projects\CH570D-power_profiling_dummy_operations\obj/../Startup/startup_CH572.S:18
	.section	.init,"ax",@progbits
	.global	_start
 	.global	_vector_base
	.align	1
_start:
	j	handle_reset
   0:	19d0006f          	j	99c <handle_reset>

Disassembly of section .highcode:

20000000 <_highcode_vma_start>:
	...
_vector_base():
20000008:	00002518          	.word	0x00002518
2000000c:	200005d2          	.word	0x200005d2
20000010:	f3f9bda9          	.word	0xf3f9bda9
20000014:	00002518          	.word	0x00002518
	...
20000020:	00002518          	.word	0x00002518
20000024:	00002518          	.word	0x00002518
	...
20000030:	00002518          	.word	0x00002518
20000034:	00000000          	.word	0x00000000
20000038:	00002518          	.word	0x00002518
	...
20000044:	00002518          	.word	0x00002518
20000048:	00000000          	.word	0x00000000
2000004c:	00002518          	.word	0x00002518
20000050:	00002518          	.word	0x00002518
20000054:	00002518          	.word	0x00002518
20000058:	00002518          	.word	0x00002518
2000005c:	00000000          	.word	0x00000000
20000060:	00002518          	.word	0x00002518
	...
2000006c:	00002518          	.word	0x00002518
20000070:	20000090          	.word	0x20000090
20000074:	00002518          	.word	0x00002518
20000078:	00002518          	.word	0x00002518
2000007c:	00002518          	.word	0x00002518
20000080:	00000000          	.word	0x00000000
20000084:	00002518          	.word	0x00002518
20000088:	00000000          	.word	0x00000000
2000008c:	00002518          	.word	0x00002518

20000090 <RTC_IRQHandler>:
RTC_IRQHandler():
c:\Users\seanw\mounriver-studio-projects\CH570D-power_profiling_dummy_operations\obj/../src/Main.c:126
__INTERRUPT
__HIGH_CODE
void RTC_IRQHandler(void)
{
    // Check if the interrupt was caused by the trigger event
    if (RTC_GetITFlag(RB_RTC_TRIG_FLAG))
20000090:	08000513          	li	a0,128
20000094:	e0001097          	auipc	ra,0xe0001
20000098:	bde080e7          	jalr	-1058(ra) # c72 <RTC_GetITFlag>
2000009c:	c519                	beqz	a0,200000aa <RTC_IRQHandler+0x1a>
c:\Users\seanw\mounriver-studio-projects\CH570D-power_profiling_dummy_operations\obj/../src/Main.c:128
    {
        RTC_ClearITFlag(RB_RTC_TRIG_FLAG); // IMPORTANT: Clear the flag to allow future wake-ups
2000009e:	08000513          	li	a0,128
200000a2:	e0001097          	auipc	ra,0xe0001
200000a6:	bea080e7          	jalr	-1046(ra) # c8c <RTC_ClearITFlag>
c:\Users\seanw\mounriver-studio-projects\CH570D-power_profiling_dummy_operations\obj/../src/Main.c:130
    }
}
200000aa:	30200073          	mret

200000ae <LowPower_Idle>:
LowPower_Idle():
c:\Users\seanw\mounriver-studio-projects\CH570D-power_profiling_dummy_operations\obj/../StdPeriphDriver/CH57x_pwr.c:130
 *
 * @return  none
 */
__HIGH_CODE
void LowPower_Idle(void)
{
200000ae:	1141                	addi	sp,sp,-16
c:\Users\seanw\mounriver-studio-projects\CH570D-power_profiling_dummy_operations\obj/../StdPeriphDriver/CH57x_pwr.c:131
    FLASH_ROM_SW_RESET();
200000b0:	4681                	li	a3,0
200000b2:	4601                	li	a2,0
200000b4:	4581                	li	a1,0
200000b6:	4511                	li	a0,4
c:\Users\seanw\mounriver-studio-projects\CH570D-power_profiling_dummy_operations\obj/../StdPeriphDriver/CH57x_pwr.c:130
{
200000b8:	c606                	sw	ra,12(sp)
c:\Users\seanw\mounriver-studio-projects\CH570D-power_profiling_dummy_operations\obj/../StdPeriphDriver/CH57x_pwr.c:131
    FLASH_ROM_SW_RESET();
200000ba:	e0001097          	auipc	ra,0xe0001
200000be:	e8c080e7          	jalr	-372(ra) # f46 <FLASH_EEPROM_CMD>
c:\Users\seanw\mounriver-studio-projects\CH570D-power_profiling_dummy_operations\obj/../StdPeriphDriver/CH57x_pwr.c:132
    R8_FLASH_CTRL = 0x04; //flash关闭
200000c2:	400027b7          	lui	a5,0x40002
200000c6:	4711                	li	a4,4
200000c8:	80e78323          	sb	a4,-2042(a5) # 40001806 <_eusrstack+0x1fffe806>
c:\Users\seanw\mounriver-studio-projects\CH570D-power_profiling_dummy_operations\obj/../StdPeriphDriver/CH57x_pwr.c:134

    PFIC->SCTLR &= ~(1 << 2); // sleep
200000cc:	e000f7b7          	lui	a5,0xe000f
200000d0:	d0078793          	addi	a5,a5,-768 # e000ed00 <_eusrstack+0xc000bd00>
200000d4:	4b98                	lw	a4,16(a5)
200000d6:	9b6d                	andi	a4,a4,-5
200000d8:	cb98                	sw	a4,16(a5)
__WFI():
c:/Users/seanw/mounriver-studio-projects/CH570D-power_profiling_dummy_operations/RVMSIS/core_riscv.h:348
 *
 * @brief   Wait for Interrupt
 */
__attribute__((always_inline)) RV_STATIC_INLINE void __WFI(void)
{
    PFIC->SCTLR &= ~(1 << 3); // wfi
200000da:	4b98                	lw	a4,16(a5)
200000dc:	9b5d                	andi	a4,a4,-9
200000de:	cb98                	sw	a4,16(a5)
c:/Users/seanw/mounriver-studio-projects/CH570D-power_profiling_dummy_operations/RVMSIS/core_riscv.h:349
    __asm__ volatile("wfi");
200000e0:	10500073          	wfi
LowPower_Idle():
c:\Users\seanw\mounriver-studio-projects\CH570D-power_profiling_dummy_operations\obj/../StdPeriphDriver/CH57x_pwr.c:136
    __WFI();
    __nop();
200000e4:	0001                	nop
c:\Users\seanw\mounriver-studio-projects\CH570D-power_profiling_dummy_operations\obj/../StdPeriphDriver/CH57x_pwr.c:137
    __nop();
200000e6:	0001                	nop
c:\Users\seanw\mounriver-studio-projects\CH570D-power_profiling_dummy_operations\obj/../StdPeriphDriver/CH57x_pwr.c:138
}
200000e8:	40b2                	lw	ra,12(sp)
200000ea:	0141                	addi	sp,sp,16
200000ec:	8082                	ret

200000ee <LowPower_Halt>:
LowPower_Halt():
c:\Users\seanw\mounriver-studio-projects\CH570D-power_profiling_dummy_operations\obj/../StdPeriphDriver/CH57x_pwr.c:151
 *
 * @return  none
 */
__HIGH_CODE
void LowPower_Halt(void)
{
200000ee:	1101                	addi	sp,sp,-32
c:\Users\seanw\mounriver-studio-projects\CH570D-power_profiling_dummy_operations\obj/../StdPeriphDriver/CH57x_pwr.c:154
    uint8_t x32Mpw;

    FLASH_ROM_SW_RESET();
200000f0:	4681                	li	a3,0
200000f2:	4601                	li	a2,0
200000f4:	4581                	li	a1,0
200000f6:	4511                	li	a0,4
c:\Users\seanw\mounriver-studio-projects\CH570D-power_profiling_dummy_operations\obj/../StdPeriphDriver/CH57x_pwr.c:151
{
200000f8:	ce06                	sw	ra,28(sp)
c:\Users\seanw\mounriver-studio-projects\CH570D-power_profiling_dummy_operations\obj/../StdPeriphDriver/CH57x_pwr.c:154
    FLASH_ROM_SW_RESET();
200000fa:	e0001097          	auipc	ra,0xe0001
200000fe:	e4c080e7          	jalr	-436(ra) # f46 <FLASH_EEPROM_CMD>
c:\Users\seanw\mounriver-studio-projects\CH570D-power_profiling_dummy_operations\obj/../StdPeriphDriver/CH57x_pwr.c:155
    R8_FLASH_CTRL = 0x04; //flash关闭
20000102:	400027b7          	lui	a5,0x40002
20000106:	4711                	li	a4,4
20000108:	80e78323          	sb	a4,-2042(a5) # 40001806 <_eusrstack+0x1fffe806>
c:\Users\seanw\mounriver-studio-projects\CH570D-power_profiling_dummy_operations\obj/../StdPeriphDriver/CH57x_pwr.c:156
    x32Mpw = R8_XT32M_TUNE;
2000010c:	400017b7          	lui	a5,0x40001
20000110:	04e7c683          	lbu	a3,78(a5) # 4000104e <_eusrstack+0x1fffe04e>
c:\Users\seanw\mounriver-studio-projects\CH570D-power_profiling_dummy_operations\obj/../StdPeriphDriver/CH57x_pwr.c:157
    if(!(R8_HFCK_PWR_CTRL&RB_CLK_XT32M_KEEP))
20000114:	27bc                	lbu	a5,10(a5)
c:\Users\seanw\mounriver-studio-projects\CH570D-power_profiling_dummy_operations\obj/../StdPeriphDriver/CH57x_pwr.c:156
    x32Mpw = R8_XT32M_TUNE;
20000116:	0ff6f693          	zext.b	a3,a3
c:\Users\seanw\mounriver-studio-projects\CH570D-power_profiling_dummy_operations\obj/../StdPeriphDriver/CH57x_pwr.c:157
    if(!(R8_HFCK_PWR_CTRL&RB_CLK_XT32M_KEEP))
2000011a:	8ba1                	andi	a5,a5,8
2000011c:	e399                	bnez	a5,20000122 <LowPower_Halt+0x34>
c:\Users\seanw\mounriver-studio-projects\CH570D-power_profiling_dummy_operations\obj/../StdPeriphDriver/CH57x_pwr.c:159
    {
        x32Mpw = (x32Mpw & 0xfc) | 0x03; // 150%额定电流
2000011e:	0036e693          	ori	a3,a3,3
__risc_v_disable_irq():
c:/Users/seanw/mounriver-studio-projects/CH570D-power_profiling_dummy_operations/RVMSIS/core_riscv.h:154
    __asm volatile("csrrc %0, 0x800, %1" : \
20000122:	08800713          	li	a4,136
20000126:	800737f3          	csrrc	a5,0x800,a4
c:/Users/seanw/mounriver-studio-projects/CH570D-power_profiling_dummy_operations/RVMSIS/core_riscv.h:156
    return result & 0x88;
2000012a:	0887f793          	andi	a5,a5,136
LowPower_Halt():
c:\Users\seanw\mounriver-studio-projects\CH570D-power_profiling_dummy_operations\obj/../StdPeriphDriver/CH57x_pwr.c:162
    }

    sys_safe_access_enable();
2000012e:	c03e                	sw	a5,0(sp)
20000130:	0000100f          	fence.i
20000134:	400017b7          	lui	a5,0x40001
20000138:	05700593          	li	a1,87
2000013c:	04b78023          	sb	a1,64(a5) # 40001040 <_eusrstack+0x1fffe040>
20000140:	fa800613          	li	a2,-88
20000144:	04c78023          	sb	a2,64(a5)
20000148:	0000100f          	fence.i
c:\Users\seanw\mounriver-studio-projects\CH570D-power_profiling_dummy_operations\obj/../StdPeriphDriver/CH57x_pwr.c:163
    R8_BAT_DET_CTRL = 0; // 关闭电压监控
2000014c:	02078223          	sb	zero,36(a5)
c:\Users\seanw\mounriver-studio-projects\CH570D-power_profiling_dummy_operations\obj/../StdPeriphDriver/CH57x_pwr.c:164
    sys_safe_access_disable();
20000150:	04078023          	sb	zero,64(a5)
20000154:	4502                	lw	a0,0(sp)
__risc_v_enable_irq():
c:/Users/seanw/mounriver-studio-projects/CH570D-power_profiling_dummy_operations/RVMSIS/core_riscv.h:138
    __asm volatile("csrrs %0, 0x800, %1" : \
20000156:	80052573          	csrrs	a0,0x800,a0
LowPower_Halt():
c:\Users\seanw\mounriver-studio-projects\CH570D-power_profiling_dummy_operations\obj/../StdPeriphDriver/CH57x_pwr.c:164
2000015a:	0000100f          	fence.i
__risc_v_disable_irq():
c:/Users/seanw/mounriver-studio-projects/CH570D-power_profiling_dummy_operations/RVMSIS/core_riscv.h:154
    __asm volatile("csrrc %0, 0x800, %1" : \
2000015e:	80073573          	csrrc	a0,0x800,a4
c:/Users/seanw/mounriver-studio-projects/CH570D-power_profiling_dummy_operations/RVMSIS/core_riscv.h:156
    return result & 0x88;
20000162:	08857513          	andi	a0,a0,136
LowPower_Halt():
c:\Users\seanw\mounriver-studio-projects\CH570D-power_profiling_dummy_operations\obj/../StdPeriphDriver/CH57x_pwr.c:165
    sys_safe_access_enable();
20000166:	c22a                	sw	a0,4(sp)
20000168:	0000100f          	fence.i
2000016c:	04b78023          	sb	a1,64(a5)
20000170:	04c78023          	sb	a2,64(a5)
20000174:	0000100f          	fence.i
c:\Users\seanw\mounriver-studio-projects\CH570D-power_profiling_dummy_operations\obj/../StdPeriphDriver/CH57x_pwr.c:166
    R8_XT32M_TUNE = x32Mpw;
20000178:	04d78723          	sb	a3,78(a5)
c:\Users\seanw\mounriver-studio-projects\CH570D-power_profiling_dummy_operations\obj/../StdPeriphDriver/CH57x_pwr.c:167
    sys_safe_access_disable();
2000017c:	04078023          	sb	zero,64(a5)
20000180:	4692                	lw	a3,4(sp)
__risc_v_enable_irq():
c:/Users/seanw/mounriver-studio-projects/CH570D-power_profiling_dummy_operations/RVMSIS/core_riscv.h:138
    __asm volatile("csrrs %0, 0x800, %1" : \
20000182:	8006a6f3          	csrrs	a3,0x800,a3
LowPower_Halt():
c:\Users\seanw\mounriver-studio-projects\CH570D-power_profiling_dummy_operations\obj/../StdPeriphDriver/CH57x_pwr.c:167
20000186:	0000100f          	fence.i
__risc_v_disable_irq():
c:/Users/seanw/mounriver-studio-projects/CH570D-power_profiling_dummy_operations/RVMSIS/core_riscv.h:154
    __asm volatile("csrrc %0, 0x800, %1" : \
2000018a:	800736f3          	csrrc	a3,0x800,a4
c:/Users/seanw/mounriver-studio-projects/CH570D-power_profiling_dummy_operations/RVMSIS/core_riscv.h:156
    return result & 0x88;
2000018e:	0886f693          	andi	a3,a3,136
LowPower_Halt():
c:\Users\seanw\mounriver-studio-projects\CH570D-power_profiling_dummy_operations\obj/../StdPeriphDriver/CH57x_pwr.c:168
    sys_safe_access_enable();
20000192:	c436                	sw	a3,8(sp)
20000194:	0000100f          	fence.i
20000198:	04b78023          	sb	a1,64(a5)
2000019c:	04c78023          	sb	a2,64(a5)
200001a0:	0000100f          	fence.i
c:\Users\seanw\mounriver-studio-projects\CH570D-power_profiling_dummy_operations\obj/../StdPeriphDriver/CH57x_pwr.c:169
    R8_PLL_CONFIG |= (1 << 5);
200001a4:	04b7c683          	lbu	a3,75(a5)
200001a8:	0206e693          	ori	a3,a3,32
200001ac:	04d785a3          	sb	a3,75(a5)
c:\Users\seanw\mounriver-studio-projects\CH570D-power_profiling_dummy_operations\obj/../StdPeriphDriver/CH57x_pwr.c:170
    sys_safe_access_disable();
200001b0:	04078023          	sb	zero,64(a5)
200001b4:	46a2                	lw	a3,8(sp)
__risc_v_enable_irq():
c:/Users/seanw/mounriver-studio-projects/CH570D-power_profiling_dummy_operations/RVMSIS/core_riscv.h:138
    __asm volatile("csrrs %0, 0x800, %1" : \
200001b6:	8006a6f3          	csrrs	a3,0x800,a3
LowPower_Halt():
c:\Users\seanw\mounriver-studio-projects\CH570D-power_profiling_dummy_operations\obj/../StdPeriphDriver/CH57x_pwr.c:170
200001ba:	0000100f          	fence.i
c:\Users\seanw\mounriver-studio-projects\CH570D-power_profiling_dummy_operations\obj/../StdPeriphDriver/CH57x_pwr.c:172

    PFIC->SCTLR |= (1 << 2); //deep sleep
200001be:	e000f6b7          	lui	a3,0xe000f
200001c2:	d0068693          	addi	a3,a3,-768 # e000ed00 <_eusrstack+0xc000bd00>
200001c6:	4a88                	lw	a0,16(a3)
200001c8:	00456513          	ori	a0,a0,4
200001cc:	ca88                	sw	a0,16(a3)
__WFI():
c:/Users/seanw/mounriver-studio-projects/CH570D-power_profiling_dummy_operations/RVMSIS/core_riscv.h:348
    PFIC->SCTLR &= ~(1 << 3); // wfi
200001ce:	4a88                	lw	a0,16(a3)
200001d0:	995d                	andi	a0,a0,-9
200001d2:	ca88                	sw	a0,16(a3)
c:/Users/seanw/mounriver-studio-projects/CH570D-power_profiling_dummy_operations/RVMSIS/core_riscv.h:349
    __asm__ volatile("wfi");
200001d4:	10500073          	wfi
LowPower_Halt():
c:\Users\seanw\mounriver-studio-projects\CH570D-power_profiling_dummy_operations\obj/../StdPeriphDriver/CH57x_pwr.c:174
    __WFI();
    __nop();
200001d8:	0001                	nop
c:\Users\seanw\mounriver-studio-projects\CH570D-power_profiling_dummy_operations\obj/../StdPeriphDriver/CH57x_pwr.c:175
    __nop();
200001da:	0001                	nop
__risc_v_disable_irq():
c:/Users/seanw/mounriver-studio-projects/CH570D-power_profiling_dummy_operations/RVMSIS/core_riscv.h:154
    __asm volatile("csrrc %0, 0x800, %1" : \
200001dc:	80073773          	csrrc	a4,0x800,a4
c:/Users/seanw/mounriver-studio-projects/CH570D-power_profiling_dummy_operations/RVMSIS/core_riscv.h:156
    return result & 0x88;
200001e0:	08877713          	andi	a4,a4,136
LowPower_Halt():
c:\Users\seanw\mounriver-studio-projects\CH570D-power_profiling_dummy_operations\obj/../StdPeriphDriver/CH57x_pwr.c:176
    sys_safe_access_enable();
200001e4:	c63a                	sw	a4,12(sp)
200001e6:	0000100f          	fence.i
200001ea:	04b78023          	sb	a1,64(a5)
200001ee:	04c78023          	sb	a2,64(a5)
200001f2:	0000100f          	fence.i
c:\Users\seanw\mounriver-studio-projects\CH570D-power_profiling_dummy_operations\obj/../StdPeriphDriver/CH57x_pwr.c:177
    R8_PLL_CONFIG &= ~(1 << 5);
200001f6:	04b7c703          	lbu	a4,75(a5)
200001fa:	0df77713          	andi	a4,a4,223
200001fe:	04e785a3          	sb	a4,75(a5)
c:\Users\seanw\mounriver-studio-projects\CH570D-power_profiling_dummy_operations\obj/../StdPeriphDriver/CH57x_pwr.c:178
    sys_safe_access_disable();
20000202:	04078023          	sb	zero,64(a5)
20000206:	47b2                	lw	a5,12(sp)
__risc_v_enable_irq():
c:/Users/seanw/mounriver-studio-projects/CH570D-power_profiling_dummy_operations/RVMSIS/core_riscv.h:138
    __asm volatile("csrrs %0, 0x800, %1" : \
20000208:	8007a7f3          	csrrs	a5,0x800,a5
LowPower_Halt():
c:\Users\seanw\mounriver-studio-projects\CH570D-power_profiling_dummy_operations\obj/../StdPeriphDriver/CH57x_pwr.c:178
2000020c:	0000100f          	fence.i
c:\Users\seanw\mounriver-studio-projects\CH570D-power_profiling_dummy_operations\obj/../StdPeriphDriver/CH57x_pwr.c:179
}
20000210:	40f2                	lw	ra,28(sp)
20000212:	6105                	addi	sp,sp,32
20000214:	8082                	ret

20000216 <LowPower_Sleep>:
LowPower_Sleep():
c:\Users\seanw\mounriver-studio-projects\CH570D-power_profiling_dummy_operations\obj/../StdPeriphDriver/CH57x_pwr.c:199
    uint8_t x32Mpw;
    uint16_t power_plan;
    uint8_t clk_sys_cfg;
    uint16_t hfck_pwr_ctrl;

    clk_sys_cfg = R8_CLK_SYS_CFG;
20000216:	400017b7          	lui	a5,0x40001
2000021a:	0087c803          	lbu	a6,8(a5) # 40001008 <_eusrstack+0x1fffe008>
c:\Users\seanw\mounriver-studio-projects\CH570D-power_profiling_dummy_operations\obj/../StdPeriphDriver/CH57x_pwr.c:200
    hfck_pwr_ctrl = R8_HFCK_PWR_CTRL;
2000021e:	27b8                	lbu	a4,10(a5)
c:\Users\seanw\mounriver-studio-projects\CH570D-power_profiling_dummy_operations\obj/../StdPeriphDriver/CH57x_pwr.c:201
    x32Mpw = R8_XT32M_TUNE;
20000220:	04e7c583          	lbu	a1,78(a5)
c:\Users\seanw\mounriver-studio-projects\CH570D-power_profiling_dummy_operations\obj/../StdPeriphDriver/CH57x_pwr.c:193
{
20000224:	1101                	addi	sp,sp,-32
c:\Users\seanw\mounriver-studio-projects\CH570D-power_profiling_dummy_operations\obj/../StdPeriphDriver/CH57x_pwr.c:199
    clk_sys_cfg = R8_CLK_SYS_CFG;
20000226:	0ff87813          	zext.b	a6,a6
c:\Users\seanw\mounriver-studio-projects\CH570D-power_profiling_dummy_operations\obj/../StdPeriphDriver/CH57x_pwr.c:202
    x32Mpw = (x32Mpw & 0xfc) | 0x03; // 150%额定电流
2000022a:	0035e593          	ori	a1,a1,3
__risc_v_disable_irq():
c:/Users/seanw/mounriver-studio-projects/CH570D-power_profiling_dummy_operations/RVMSIS/core_riscv.h:154
    __asm volatile("csrrc %0, 0x800, %1" : \
2000022e:	08800713          	li	a4,136
20000232:	800736f3          	csrrc	a3,0x800,a4
c:/Users/seanw/mounriver-studio-projects/CH570D-power_profiling_dummy_operations/RVMSIS/core_riscv.h:156
    return result & 0x88;
20000236:	0886f693          	andi	a3,a3,136
LowPower_Sleep():
c:\Users\seanw\mounriver-studio-projects\CH570D-power_profiling_dummy_operations\obj/../StdPeriphDriver/CH57x_pwr.c:204

    sys_safe_access_enable();
2000023a:	c436                	sw	a3,8(sp)
2000023c:	0000100f          	fence.i
20000240:	05700613          	li	a2,87
20000244:	04c78023          	sb	a2,64(a5)
20000248:	fa800693          	li	a3,-88
2000024c:	04d78023          	sb	a3,64(a5)
20000250:	0000100f          	fence.i
c:\Users\seanw\mounriver-studio-projects\CH570D-power_profiling_dummy_operations\obj/../StdPeriphDriver/CH57x_pwr.c:205
    R8_BAT_DET_CTRL = 0; // 关闭电压监控
20000254:	02078223          	sb	zero,36(a5)
c:\Users\seanw\mounriver-studio-projects\CH570D-power_profiling_dummy_operations\obj/../StdPeriphDriver/CH57x_pwr.c:206
    sys_safe_access_disable();
20000258:	04078023          	sb	zero,64(a5)
2000025c:	48a2                	lw	a7,8(sp)
__risc_v_enable_irq():
c:/Users/seanw/mounriver-studio-projects/CH570D-power_profiling_dummy_operations/RVMSIS/core_riscv.h:138
    __asm volatile("csrrs %0, 0x800, %1" : \
2000025e:	8008a8f3          	csrrs	a7,0x800,a7
LowPower_Sleep():
c:\Users\seanw\mounriver-studio-projects\CH570D-power_profiling_dummy_operations\obj/../StdPeriphDriver/CH57x_pwr.c:206
20000262:	0000100f          	fence.i
__risc_v_disable_irq():
c:/Users/seanw/mounriver-studio-projects/CH570D-power_profiling_dummy_operations/RVMSIS/core_riscv.h:154
    __asm volatile("csrrc %0, 0x800, %1" : \
20000266:	800738f3          	csrrc	a7,0x800,a4
c:/Users/seanw/mounriver-studio-projects/CH570D-power_profiling_dummy_operations/RVMSIS/core_riscv.h:156
    return result & 0x88;
2000026a:	0888f893          	andi	a7,a7,136
LowPower_Sleep():
c:\Users\seanw\mounriver-studio-projects\CH570D-power_profiling_dummy_operations\obj/../StdPeriphDriver/CH57x_pwr.c:207
    sys_safe_access_enable();
2000026e:	c646                	sw	a7,12(sp)
20000270:	0000100f          	fence.i
20000274:	04c78023          	sb	a2,64(a5)
20000278:	04d78023          	sb	a3,64(a5)
2000027c:	0000100f          	fence.i
c:\Users\seanw\mounriver-studio-projects\CH570D-power_profiling_dummy_operations\obj/../StdPeriphDriver/CH57x_pwr.c:208
    R8_XT32M_TUNE = x32Mpw;
20000280:	04b78723          	sb	a1,78(a5)
c:\Users\seanw\mounriver-studio-projects\CH570D-power_profiling_dummy_operations\obj/../StdPeriphDriver/CH57x_pwr.c:209
    sys_safe_access_disable();
20000284:	04078023          	sb	zero,64(a5)
20000288:	45b2                	lw	a1,12(sp)
__risc_v_enable_irq():
c:/Users/seanw/mounriver-studio-projects/CH570D-power_profiling_dummy_operations/RVMSIS/core_riscv.h:138
    __asm volatile("csrrs %0, 0x800, %1" : \
2000028a:	8005a5f3          	csrrs	a1,0x800,a1
LowPower_Sleep():
c:\Users\seanw\mounriver-studio-projects\CH570D-power_profiling_dummy_operations\obj/../StdPeriphDriver/CH57x_pwr.c:209
2000028e:	0000100f          	fence.i
c:\Users\seanw\mounriver-studio-projects\CH570D-power_profiling_dummy_operations\obj/../StdPeriphDriver/CH57x_pwr.c:211

    PFIC->SCTLR |= (1 << 2); //deep sleep
20000292:	e000f5b7          	lui	a1,0xe000f
20000296:	d0058593          	addi	a1,a1,-768 # e000ed00 <_eusrstack+0xc000bd00>
2000029a:	0105a883          	lw	a7,16(a1)
2000029e:	0048e893          	ori	a7,a7,4
200002a2:	0115a823          	sw	a7,16(a1)
c:\Users\seanw\mounriver-studio-projects\CH570D-power_profiling_dummy_operations\obj/../StdPeriphDriver/CH57x_pwr.c:213

    power_plan |= RB_PWR_PLAN_EN | RB_PWR_CORE | rm | (2<<11);
200002a6:	78e5                	lui	a7,0xffff9
200002a8:	0891                	addi	a7,a7,4 # ffff9004 <_eusrstack+0xdfff6004>
200002aa:	01156533          	or	a0,a0,a7
200002ae:	08054533          	zext.h	a0,a0
__risc_v_disable_irq():
c:/Users/seanw/mounriver-studio-projects/CH570D-power_profiling_dummy_operations/RVMSIS/core_riscv.h:154
    __asm volatile("csrrc %0, 0x800, %1" : \
200002b2:	800738f3          	csrrc	a7,0x800,a4
c:/Users/seanw/mounriver-studio-projects/CH570D-power_profiling_dummy_operations/RVMSIS/core_riscv.h:156
    return result & 0x88;
200002b6:	0888f893          	andi	a7,a7,136
LowPower_Sleep():
c:\Users\seanw\mounriver-studio-projects\CH570D-power_profiling_dummy_operations\obj/../StdPeriphDriver/CH57x_pwr.c:215

    sys_safe_access_enable();
200002ba:	c846                	sw	a7,16(sp)
200002bc:	0000100f          	fence.i
200002c0:	04c78023          	sb	a2,64(a5)
200002c4:	04d78023          	sb	a3,64(a5)
200002c8:	0000100f          	fence.i
c:\Users\seanw\mounriver-studio-projects\CH570D-power_profiling_dummy_operations\obj/../StdPeriphDriver/CH57x_pwr.c:218

    // 需要测试周期数 目前用的3584
    R8_SLP_POWER_CTRL |= 0x40;
200002cc:	00f7c883          	lbu	a7,15(a5)
200002d0:	0408e893          	ori	a7,a7,64
200002d4:	011787a3          	sb	a7,15(a5)
c:\Users\seanw\mounriver-studio-projects\CH570D-power_profiling_dummy_operations\obj/../StdPeriphDriver/CH57x_pwr.c:220

    R16_POWER_PLAN = power_plan;
200002d8:	b38a                	sh	a0,32(a5)
c:\Users\seanw\mounriver-studio-projects\CH570D-power_profiling_dummy_operations\obj/../StdPeriphDriver/CH57x_pwr.c:221
    sys_safe_access_disable();
200002da:	04078023          	sb	zero,64(a5)
200002de:	4542                	lw	a0,16(sp)
__risc_v_enable_irq():
c:/Users/seanw/mounriver-studio-projects/CH570D-power_profiling_dummy_operations/RVMSIS/core_riscv.h:138
    __asm volatile("csrrs %0, 0x800, %1" : \
200002e0:	80052573          	csrrs	a0,0x800,a0
LowPower_Sleep():
c:\Users\seanw\mounriver-studio-projects\CH570D-power_profiling_dummy_operations\obj/../StdPeriphDriver/CH57x_pwr.c:221
200002e4:	0000100f          	fence.i
__risc_v_disable_irq():
c:/Users/seanw/mounriver-studio-projects/CH570D-power_profiling_dummy_operations/RVMSIS/core_riscv.h:154
    __asm volatile("csrrc %0, 0x800, %1" : \
200002e8:	80073573          	csrrc	a0,0x800,a4
c:/Users/seanw/mounriver-studio-projects/CH570D-power_profiling_dummy_operations/RVMSIS/core_riscv.h:156
    return result & 0x88;
200002ec:	08857513          	andi	a0,a0,136
LowPower_Sleep():
c:\Users\seanw\mounriver-studio-projects\CH570D-power_profiling_dummy_operations\obj/../StdPeriphDriver/CH57x_pwr.c:222
    sys_safe_access_enable();
200002f0:	ca2a                	sw	a0,20(sp)
200002f2:	0000100f          	fence.i
200002f6:	04c78023          	sb	a2,64(a5)
200002fa:	04d78023          	sb	a3,64(a5)
200002fe:	0000100f          	fence.i
c:\Users\seanw\mounriver-studio-projects\CH570D-power_profiling_dummy_operations\obj/../StdPeriphDriver/CH57x_pwr.c:223
    R8_CLK_SYS_CFG = CLK_SOURCE_HSE_PLL_24MHz;
20000302:	05900513          	li	a0,89
20000306:	a788                	sb	a0,8(a5)
c:\Users\seanw\mounriver-studio-projects\CH570D-power_profiling_dummy_operations\obj/../StdPeriphDriver/CH57x_pwr.c:224
    sys_safe_access_disable();
20000308:	04078023          	sb	zero,64(a5)
2000030c:	4552                	lw	a0,20(sp)
__risc_v_enable_irq():
c:/Users/seanw/mounriver-studio-projects/CH570D-power_profiling_dummy_operations/RVMSIS/core_riscv.h:138
    __asm volatile("csrrs %0, 0x800, %1" : \
2000030e:	80052573          	csrrs	a0,0x800,a0
LowPower_Sleep():
c:\Users\seanw\mounriver-studio-projects\CH570D-power_profiling_dummy_operations\obj/../StdPeriphDriver/CH57x_pwr.c:224
20000312:	0000100f          	fence.i
__WFI():
c:/Users/seanw/mounriver-studio-projects/CH570D-power_profiling_dummy_operations/RVMSIS/core_riscv.h:348
    PFIC->SCTLR &= ~(1 << 3); // wfi
20000316:	4988                	lw	a0,16(a1)
20000318:	995d                	andi	a0,a0,-9
2000031a:	c988                	sw	a0,16(a1)
c:/Users/seanw/mounriver-studio-projects/CH570D-power_profiling_dummy_operations/RVMSIS/core_riscv.h:349
    __asm__ volatile("wfi");
2000031c:	10500073          	wfi
LowPower_Sleep():
c:\Users\seanw\mounriver-studio-projects\CH570D-power_profiling_dummy_operations\obj/../StdPeriphDriver/CH57x_pwr.c:236
//    sys_safe_access_enable();
//    R8_PLL_CONFIG |= (1 << 5);
//    sys_safe_access_disable();

    __WFI();
    __nop();
20000320:	0001                	nop
c:\Users\seanw\mounriver-studio-projects\CH570D-power_profiling_dummy_operations\obj/../StdPeriphDriver/CH57x_pwr.c:237
    __nop();
20000322:	0001                	nop
__risc_v_disable_irq():
c:/Users/seanw/mounriver-studio-projects/CH570D-power_profiling_dummy_operations/RVMSIS/core_riscv.h:154
    __asm volatile("csrrc %0, 0x800, %1" : \
20000324:	800735f3          	csrrc	a1,0x800,a4
c:/Users/seanw/mounriver-studio-projects/CH570D-power_profiling_dummy_operations/RVMSIS/core_riscv.h:156
    return result & 0x88;
20000328:	0885f593          	andi	a1,a1,136
LowPower_Sleep():
c:\Users\seanw\mounriver-studio-projects\CH570D-power_profiling_dummy_operations\obj/../StdPeriphDriver/CH57x_pwr.c:239

    sys_safe_access_enable();
2000032c:	cc2e                	sw	a1,24(sp)
2000032e:	0000100f          	fence.i
20000332:	04c78023          	sb	a2,64(a5)
20000336:	04d78023          	sb	a3,64(a5)
2000033a:	0000100f          	fence.i
c:\Users\seanw\mounriver-studio-projects\CH570D-power_profiling_dummy_operations\obj/../StdPeriphDriver/CH57x_pwr.c:240
    R8_CLK_SYS_CFG = clk_sys_cfg;
2000033e:	01078423          	sb	a6,8(a5)
c:\Users\seanw\mounriver-studio-projects\CH570D-power_profiling_dummy_operations\obj/../StdPeriphDriver/CH57x_pwr.c:242
//    R8_HFCK_PWR_CTRL = hfck_pwr_ctrl;
    sys_safe_access_disable();
20000342:	04078023          	sb	zero,64(a5)
20000346:	45e2                	lw	a1,24(sp)
__risc_v_enable_irq():
c:/Users/seanw/mounriver-studio-projects/CH570D-power_profiling_dummy_operations/RVMSIS/core_riscv.h:138
    __asm volatile("csrrs %0, 0x800, %1" : \
20000348:	8005a5f3          	csrrs	a1,0x800,a1
LowPower_Sleep():
c:\Users\seanw\mounriver-studio-projects\CH570D-power_profiling_dummy_operations\obj/../StdPeriphDriver/CH57x_pwr.c:242
2000034c:	0000100f          	fence.i
__risc_v_disable_irq():
c:/Users/seanw/mounriver-studio-projects/CH570D-power_profiling_dummy_operations/RVMSIS/core_riscv.h:154
    __asm volatile("csrrc %0, 0x800, %1" : \
20000350:	80073773          	csrrc	a4,0x800,a4
c:/Users/seanw/mounriver-studio-projects/CH570D-power_profiling_dummy_operations/RVMSIS/core_riscv.h:156
    return result & 0x88;
20000354:	08877713          	andi	a4,a4,136
LowPower_Sleep():
c:\Users\seanw\mounriver-studio-projects\CH570D-power_profiling_dummy_operations\obj/../StdPeriphDriver/CH57x_pwr.c:243
    sys_safe_access_enable();
20000358:	ce3a                	sw	a4,28(sp)
2000035a:	0000100f          	fence.i
2000035e:	04c78023          	sb	a2,64(a5)
20000362:	04d78023          	sb	a3,64(a5)
20000366:	0000100f          	fence.i
c:\Users\seanw\mounriver-studio-projects\CH570D-power_profiling_dummy_operations\obj/../StdPeriphDriver/CH57x_pwr.c:244
    R16_POWER_PLAN &= ~RB_PWR_PLAN_EN;
2000036a:	339a                	lhu	a4,32(a5)
c:\Users\seanw\mounriver-studio-projects\CH570D-power_profiling_dummy_operations\obj/../StdPeriphDriver/CH57x_pwr.c:245
    R16_POWER_PLAN &= ~RB_XT_PRE_EN;
2000036c:	76f1                	lui	a3,0xffffc
2000036e:	16fd                	addi	a3,a3,-1 # ffffbfff <_eusrstack+0xdfff8fff>
c:\Users\seanw\mounriver-studio-projects\CH570D-power_profiling_dummy_operations\obj/../StdPeriphDriver/CH57x_pwr.c:244
    R16_POWER_PLAN &= ~RB_PWR_PLAN_EN;
20000370:	0746                	slli	a4,a4,0x11
20000372:	8345                	srli	a4,a4,0x11
20000374:	b39a                	sh	a4,32(a5)
c:\Users\seanw\mounriver-studio-projects\CH570D-power_profiling_dummy_operations\obj/../StdPeriphDriver/CH57x_pwr.c:245
    R16_POWER_PLAN &= ~RB_XT_PRE_EN;
20000376:	339a                	lhu	a4,32(a5)
20000378:	8f75                	and	a4,a4,a3
2000037a:	b39a                	sh	a4,32(a5)
c:\Users\seanw\mounriver-studio-projects\CH570D-power_profiling_dummy_operations\obj/../StdPeriphDriver/CH57x_pwr.c:246
    sys_safe_access_disable();
2000037c:	04078023          	sb	zero,64(a5)
20000380:	47f2                	lw	a5,28(sp)
__risc_v_enable_irq():
c:/Users/seanw/mounriver-studio-projects/CH570D-power_profiling_dummy_operations/RVMSIS/core_riscv.h:138
    __asm volatile("csrrs %0, 0x800, %1" : \
20000382:	8007a7f3          	csrrs	a5,0x800,a5
LowPower_Sleep():
c:\Users\seanw\mounriver-studio-projects\CH570D-power_profiling_dummy_operations\obj/../StdPeriphDriver/CH57x_pwr.c:246
20000386:	0000100f          	fence.i
c:\Users\seanw\mounriver-studio-projects\CH570D-power_profiling_dummy_operations\obj/../StdPeriphDriver/CH57x_pwr.c:250
//    sys_safe_access_enable();
//    R8_PLL_CONFIG &= ~(1 << 5);
//    sys_safe_access_disable();
    DelayUs(40);
2000038a:	02800513          	li	a0,40
c:\Users\seanw\mounriver-studio-projects\CH570D-power_profiling_dummy_operations\obj/../StdPeriphDriver/CH57x_pwr.c:251
}
2000038e:	6105                	addi	sp,sp,32
c:\Users\seanw\mounriver-studio-projects\CH570D-power_profiling_dummy_operations\obj/../StdPeriphDriver/CH57x_pwr.c:250
    DelayUs(40);
20000390:	a4d9                	j	20000656 <mDelayuS>

20000392 <SetSysClock>:
SetSysClock():
c:\Users\seanw\mounriver-studio-projects\CH570D-power_profiling_dummy_operations\obj/../StdPeriphDriver/CH57x_sys.c:31
{
    uint16_t clk_sys_cfg;
    uint8_t i;
    uint8_t x32M_c;

    if(sc == RB_CLK_SYS_MOD)  // LSI
20000392:	0c000793          	li	a5,192
c:\Users\seanw\mounriver-studio-projects\CH570D-power_profiling_dummy_operations\obj/../StdPeriphDriver/CH57x_sys.c:26
{
20000396:	1101                	addi	sp,sp,-32
c:\Users\seanw\mounriver-studio-projects\CH570D-power_profiling_dummy_operations\obj/../StdPeriphDriver/CH57x_sys.c:31
    if(sc == RB_CLK_SYS_MOD)  // LSI
20000398:	04f51463          	bne	a0,a5,200003e0 <SetSysClock+0x4e>
__risc_v_disable_irq():
c:/Users/seanw/mounriver-studio-projects/CH570D-power_profiling_dummy_operations/RVMSIS/core_riscv.h:154
    __asm volatile("csrrc %0, 0x800, %1" : \
2000039c:	08800793          	li	a5,136
200003a0:	8007b7f3          	csrrc	a5,0x800,a5
c:/Users/seanw/mounriver-studio-projects/CH570D-power_profiling_dummy_operations/RVMSIS/core_riscv.h:156
    return result & 0x88;
200003a4:	0887f793          	andi	a5,a5,136
SetSysClock():
c:\Users\seanw\mounriver-studio-projects\CH570D-power_profiling_dummy_operations\obj/../StdPeriphDriver/CH57x_sys.c:33
    {
        sys_safe_access_enable();
200003a8:	c03e                	sw	a5,0(sp)
200003aa:	0000100f          	fence.i
200003ae:	400017b7          	lui	a5,0x40001
200003b2:	05700713          	li	a4,87
200003b6:	04e78023          	sb	a4,64(a5) # 40001040 <_eusrstack+0x1fffe040>
200003ba:	fa800713          	li	a4,-88
200003be:	04e78023          	sb	a4,64(a5)
200003c2:	0000100f          	fence.i
c:\Users\seanw\mounriver-studio-projects\CH570D-power_profiling_dummy_operations\obj/../StdPeriphDriver/CH57x_sys.c:34
        R8_CLK_SYS_CFG |= RB_CLK_SYS_MOD;
200003c6:	2798                	lbu	a4,8(a5)
200003c8:	0c076713          	ori	a4,a4,192
200003cc:	a798                	sb	a4,8(a5)
c:\Users\seanw\mounriver-studio-projects\CH570D-power_profiling_dummy_operations\obj/../StdPeriphDriver/CH57x_sys.c:35
        sys_safe_access_disable();
200003ce:	04078023          	sb	zero,64(a5)
200003d2:	4782                	lw	a5,0(sp)
__risc_v_enable_irq():
c:/Users/seanw/mounriver-studio-projects/CH570D-power_profiling_dummy_operations/RVMSIS/core_riscv.h:138
    __asm volatile("csrrs %0, 0x800, %1" : \
200003d4:	8007a7f3          	csrrs	a5,0x800,a5
SetSysClock():
c:\Users\seanw\mounriver-studio-projects\CH570D-power_profiling_dummy_operations\obj/../StdPeriphDriver/CH57x_sys.c:86
            }
        }

        sys_safe_access_enable();
        R8_CLK_SYS_CFG = sc;
        sys_safe_access_disable();
200003d8:	0000100f          	fence.i
c:\Users\seanw\mounriver-studio-projects\CH570D-power_profiling_dummy_operations\obj/../StdPeriphDriver/CH57x_sys.c:88
    }
}
200003dc:	6105                	addi	sp,sp,32
200003de:	8082                	ret
c:\Users\seanw\mounriver-studio-projects\CH570D-power_profiling_dummy_operations\obj/../StdPeriphDriver/CH57x_sys.c:39
        if(!(R8_HFCK_PWR_CTRL & RB_CLK_XT32M_PON))
200003e0:	400017b7          	lui	a5,0x40001
200003e4:	27b8                	lbu	a4,10(a5)
200003e6:	8b11                	andi	a4,a4,4
200003e8:	eb69                	bnez	a4,200004ba <SetSysClock+0x128>
c:\Users\seanw\mounriver-studio-projects\CH570D-power_profiling_dummy_operations\obj/../StdPeriphDriver/CH57x_sys.c:41
            x32M_c = R8_XT32M_TUNE;
200003ea:	04e7c683          	lbu	a3,78(a5) # 4000104e <_eusrstack+0x1fffe04e>
__risc_v_disable_irq():
c:/Users/seanw/mounriver-studio-projects/CH570D-power_profiling_dummy_operations/RVMSIS/core_riscv.h:154
    __asm volatile("csrrc %0, 0x800, %1" : \
200003ee:	08800713          	li	a4,136
SetSysClock():
c:\Users\seanw\mounriver-studio-projects\CH570D-power_profiling_dummy_operations\obj/../StdPeriphDriver/CH57x_sys.c:41
200003f2:	0ff6f693          	zext.b	a3,a3
__risc_v_disable_irq():
c:/Users/seanw/mounriver-studio-projects/CH570D-power_profiling_dummy_operations/RVMSIS/core_riscv.h:154
200003f6:	80073673          	csrrc	a2,0x800,a4
c:/Users/seanw/mounriver-studio-projects/CH570D-power_profiling_dummy_operations/RVMSIS/core_riscv.h:156
    return result & 0x88;
200003fa:	08867613          	andi	a2,a2,136
SetSysClock():
c:\Users\seanw\mounriver-studio-projects\CH570D-power_profiling_dummy_operations\obj/../StdPeriphDriver/CH57x_sys.c:42
            sys_safe_access_enable();
200003fe:	c232                	sw	a2,4(sp)
20000400:	0000100f          	fence.i
20000404:	05700813          	li	a6,87
20000408:	05078023          	sb	a6,64(a5)
2000040c:	fa800593          	li	a1,-88
20000410:	04b78023          	sb	a1,64(a5)
20000414:	0000100f          	fence.i
c:\Users\seanw\mounriver-studio-projects\CH570D-power_profiling_dummy_operations\obj/../StdPeriphDriver/CH57x_sys.c:43
            R8_XT32M_TUNE |= 0x03;
20000418:	04e7c603          	lbu	a2,78(a5)
2000041c:	00366613          	ori	a2,a2,3
20000420:	04c78723          	sb	a2,78(a5)
c:\Users\seanw\mounriver-studio-projects\CH570D-power_profiling_dummy_operations\obj/../StdPeriphDriver/CH57x_sys.c:44
            R8_HFCK_PWR_CTRL |= RB_CLK_XT32M_PON;
20000424:	27b0                	lbu	a2,10(a5)
20000426:	00466613          	ori	a2,a2,4
2000042a:	a7b0                	sb	a2,10(a5)
c:\Users\seanw\mounriver-studio-projects\CH570D-power_profiling_dummy_operations\obj/../StdPeriphDriver/CH57x_sys.c:45
            sys_safe_access_disable();
2000042c:	04078023          	sb	zero,64(a5)
20000430:	4612                	lw	a2,4(sp)
__risc_v_enable_irq():
c:/Users/seanw/mounriver-studio-projects/CH570D-power_profiling_dummy_operations/RVMSIS/core_riscv.h:138
    __asm volatile("csrrs %0, 0x800, %1" : \
20000432:	80062673          	csrrs	a2,0x800,a2
SetSysClock():
c:\Users\seanw\mounriver-studio-projects\CH570D-power_profiling_dummy_operations\obj/../StdPeriphDriver/CH57x_sys.c:45
20000436:	0000100f          	fence.i
c:\Users\seanw\mounriver-studio-projects\CH570D-power_profiling_dummy_operations\obj/../StdPeriphDriver/CH57x_sys.c:46
            clk_sys_cfg = R8_CLK_SYS_CFG;
2000043a:	2790                	lbu	a2,8(a5)
2000043c:	0ff67613          	zext.b	a2,a2
__risc_v_disable_irq():
c:/Users/seanw/mounriver-studio-projects/CH570D-power_profiling_dummy_operations/RVMSIS/core_riscv.h:154
    __asm volatile("csrrc %0, 0x800, %1" : \
20000440:	80073773          	csrrc	a4,0x800,a4
c:/Users/seanw/mounriver-studio-projects/CH570D-power_profiling_dummy_operations/RVMSIS/core_riscv.h:156
    return result & 0x88;
20000444:	08877713          	andi	a4,a4,136
SetSysClock():
c:\Users\seanw\mounriver-studio-projects\CH570D-power_profiling_dummy_operations\obj/../StdPeriphDriver/CH57x_sys.c:47
            sys_safe_access_enable();
20000448:	c43a                	sw	a4,8(sp)
2000044a:	0000100f          	fence.i
2000044e:	05078023          	sb	a6,64(a5)
20000452:	04b78023          	sb	a1,64(a5)
20000456:	0000100f          	fence.i
c:\Users\seanw\mounriver-studio-projects\CH570D-power_profiling_dummy_operations\obj/../StdPeriphDriver/CH57x_sys.c:48
            R8_CLK_SYS_CFG |= 0xC0;
2000045a:	2798                	lbu	a4,8(a5)
2000045c:	0c076713          	ori	a4,a4,192
20000460:	a798                	sb	a4,8(a5)
c:\Users\seanw\mounriver-studio-projects\CH570D-power_profiling_dummy_operations\obj/../StdPeriphDriver/CH57x_sys.c:49
            sys_safe_access_disable();
20000462:	04078023          	sb	zero,64(a5)
20000466:	47a2                	lw	a5,8(sp)
__risc_v_enable_irq():
c:/Users/seanw/mounriver-studio-projects/CH570D-power_profiling_dummy_operations/RVMSIS/core_riscv.h:138
    __asm volatile("csrrs %0, 0x800, %1" : \
20000468:	8007a7f3          	csrrs	a5,0x800,a5
SetSysClock():
c:\Users\seanw\mounriver-studio-projects\CH570D-power_profiling_dummy_operations\obj/../StdPeriphDriver/CH57x_sys.c:49
2000046c:	0000100f          	fence.i
20000470:	47a5                	li	a5,9
c:\Users\seanw\mounriver-studio-projects\CH570D-power_profiling_dummy_operations\obj/../StdPeriphDriver/CH57x_sys.c:52 (discriminator 3)
                __nop();
20000472:	0001                	nop
c:\Users\seanw\mounriver-studio-projects\CH570D-power_profiling_dummy_operations\obj/../StdPeriphDriver/CH57x_sys.c:50 (discriminator 3)
            for(i=0; i<9; i++)
20000474:	17fd                	addi	a5,a5,-1
20000476:	0ff7f793          	zext.b	a5,a5
2000047a:	ffe5                	bnez	a5,20000472 <SetSysClock+0xe0>
__risc_v_disable_irq():
c:/Users/seanw/mounriver-studio-projects/CH570D-power_profiling_dummy_operations/RVMSIS/core_riscv.h:154
    __asm volatile("csrrc %0, 0x800, %1" : \
2000047c:	08800793          	li	a5,136
20000480:	8007b7f3          	csrrc	a5,0x800,a5
c:/Users/seanw/mounriver-studio-projects/CH570D-power_profiling_dummy_operations/RVMSIS/core_riscv.h:156
    return result & 0x88;
20000484:	0887f793          	andi	a5,a5,136
SetSysClock():
c:\Users\seanw\mounriver-studio-projects\CH570D-power_profiling_dummy_operations\obj/../StdPeriphDriver/CH57x_sys.c:54
            sys_safe_access_enable();
20000488:	c63e                	sw	a5,12(sp)
2000048a:	0000100f          	fence.i
2000048e:	400017b7          	lui	a5,0x40001
20000492:	05700713          	li	a4,87
20000496:	04e78023          	sb	a4,64(a5) # 40001040 <_eusrstack+0x1fffe040>
2000049a:	fa800713          	li	a4,-88
2000049e:	04e78023          	sb	a4,64(a5)
200004a2:	0000100f          	fence.i
c:\Users\seanw\mounriver-studio-projects\CH570D-power_profiling_dummy_operations\obj/../StdPeriphDriver/CH57x_sys.c:55
            R8_CLK_SYS_CFG = clk_sys_cfg;
200004a6:	a790                	sb	a2,8(a5)
c:\Users\seanw\mounriver-studio-projects\CH570D-power_profiling_dummy_operations\obj/../StdPeriphDriver/CH57x_sys.c:56
            R8_XT32M_TUNE = x32M_c;
200004a8:	04d78723          	sb	a3,78(a5)
c:\Users\seanw\mounriver-studio-projects\CH570D-power_profiling_dummy_operations\obj/../StdPeriphDriver/CH57x_sys.c:57
            sys_safe_access_disable();
200004ac:	04078023          	sb	zero,64(a5)
200004b0:	47b2                	lw	a5,12(sp)
__risc_v_enable_irq():
c:/Users/seanw/mounriver-studio-projects/CH570D-power_profiling_dummy_operations/RVMSIS/core_riscv.h:138
    __asm volatile("csrrs %0, 0x800, %1" : \
200004b2:	8007a7f3          	csrrs	a5,0x800,a5
SetSysClock():
c:\Users\seanw\mounriver-studio-projects\CH570D-power_profiling_dummy_operations\obj/../StdPeriphDriver/CH57x_sys.c:57
200004b6:	0000100f          	fence.i
c:\Users\seanw\mounriver-studio-projects\CH570D-power_profiling_dummy_operations\obj/../StdPeriphDriver/CH57x_sys.c:60
        if((sc & RB_CLK_SYS_MOD) == 0x40) // PLL div
200004ba:	0c057793          	andi	a5,a0,192
200004be:	04000713          	li	a4,64
200004c2:	08e79963          	bne	a5,a4,20000554 <SetSysClock+0x1c2>
__risc_v_disable_irq():
c:/Users/seanw/mounriver-studio-projects/CH570D-power_profiling_dummy_operations/RVMSIS/core_riscv.h:154
    __asm volatile("csrrc %0, 0x800, %1" : \
200004c6:	08800793          	li	a5,136
200004ca:	8007b7f3          	csrrc	a5,0x800,a5
c:/Users/seanw/mounriver-studio-projects/CH570D-power_profiling_dummy_operations/RVMSIS/core_riscv.h:156
    return result & 0x88;
200004ce:	0887f793          	andi	a5,a5,136
SetSysClock():
c:\Users\seanw\mounriver-studio-projects\CH570D-power_profiling_dummy_operations\obj/../StdPeriphDriver/CH57x_sys.c:62
            sys_safe_access_enable();
200004d2:	c83e                	sw	a5,16(sp)
200004d4:	0000100f          	fence.i
200004d8:	400017b7          	lui	a5,0x40001
200004dc:	05700713          	li	a4,87
200004e0:	04e78023          	sb	a4,64(a5) # 40001040 <_eusrstack+0x1fffe040>
200004e4:	fa800713          	li	a4,-88
200004e8:	04e78023          	sb	a4,64(a5)
200004ec:	0000100f          	fence.i
c:\Users\seanw\mounriver-studio-projects\CH570D-power_profiling_dummy_operations\obj/../StdPeriphDriver/CH57x_sys.c:63
            R8_HFCK_PWR_CTRL |= RB_CLK_PLL_PON;
200004f0:	27b8                	lbu	a4,10(a5)
c:\Users\seanw\mounriver-studio-projects\CH570D-power_profiling_dummy_operations\obj/../StdPeriphDriver/CH57x_sys.c:64
            R8_FLASH_CFG = 0X01;
200004f2:	4685                	li	a3,1
c:\Users\seanw\mounriver-studio-projects\CH570D-power_profiling_dummy_operations\obj/../StdPeriphDriver/CH57x_sys.c:63
            R8_HFCK_PWR_CTRL |= RB_CLK_PLL_PON;
200004f4:	01076713          	ori	a4,a4,16
200004f8:	a7b8                	sb	a4,10(a5)
c:\Users\seanw\mounriver-studio-projects\CH570D-power_profiling_dummy_operations\obj/../StdPeriphDriver/CH57x_sys.c:64
            R8_FLASH_CFG = 0X01;
200004fa:	40002737          	lui	a4,0x40002
200004fe:	80d703a3          	sb	a3,-2041(a4) # 40001807 <_eusrstack+0x1fffe807>
c:\Users\seanw\mounriver-studio-projects\CH570D-power_profiling_dummy_operations\obj/../StdPeriphDriver/CH57x_sys.c:65
            R8_FLASH_SCK |= 1<<4; //50M
20000502:	80574683          	lbu	a3,-2043(a4)
20000506:	0106e693          	ori	a3,a3,16
2000050a:	80d702a3          	sb	a3,-2043(a4)
c:\Users\seanw\mounriver-studio-projects\CH570D-power_profiling_dummy_operations\obj/../StdPeriphDriver/CH57x_sys.c:66
            sys_safe_access_disable();
2000050e:	04078023          	sb	zero,64(a5)
20000512:	47c2                	lw	a5,16(sp)
__risc_v_enable_irq():
c:/Users/seanw/mounriver-studio-projects/CH570D-power_profiling_dummy_operations/RVMSIS/core_riscv.h:138
    __asm volatile("csrrs %0, 0x800, %1" : \
20000514:	8007a7f3          	csrrs	a5,0x800,a5
SetSysClock():
c:\Users\seanw\mounriver-studio-projects\CH570D-power_profiling_dummy_operations\obj/../StdPeriphDriver/CH57x_sys.c:80
                sys_safe_access_disable();
20000518:	0000100f          	fence.i
__risc_v_disable_irq():
c:/Users/seanw/mounriver-studio-projects/CH570D-power_profiling_dummy_operations/RVMSIS/core_riscv.h:154
    __asm volatile("csrrc %0, 0x800, %1" : \
2000051c:	08800793          	li	a5,136
20000520:	8007b7f3          	csrrc	a5,0x800,a5
c:/Users/seanw/mounriver-studio-projects/CH570D-power_profiling_dummy_operations/RVMSIS/core_riscv.h:156
    return result & 0x88;
20000524:	0887f793          	andi	a5,a5,136
SetSysClock():
c:\Users\seanw\mounriver-studio-projects\CH570D-power_profiling_dummy_operations\obj/../StdPeriphDriver/CH57x_sys.c:84
        sys_safe_access_enable();
20000528:	ce3e                	sw	a5,28(sp)
2000052a:	0000100f          	fence.i
2000052e:	400017b7          	lui	a5,0x40001
20000532:	05700713          	li	a4,87
20000536:	04e78023          	sb	a4,64(a5) # 40001040 <_eusrstack+0x1fffe040>
2000053a:	fa800713          	li	a4,-88
2000053e:	04e78023          	sb	a4,64(a5)
20000542:	0000100f          	fence.i
c:\Users\seanw\mounriver-studio-projects\CH570D-power_profiling_dummy_operations\obj/../StdPeriphDriver/CH57x_sys.c:85
        R8_CLK_SYS_CFG = sc;
20000546:	0ff57513          	zext.b	a0,a0
2000054a:	a788                	sb	a0,8(a5)
c:\Users\seanw\mounriver-studio-projects\CH570D-power_profiling_dummy_operations\obj/../StdPeriphDriver/CH57x_sys.c:86
        sys_safe_access_disable();
2000054c:	04078023          	sb	zero,64(a5)
20000550:	47f2                	lw	a5,28(sp)
20000552:	b549                	j	200003d4 <SetSysClock+0x42>
c:\Users\seanw\mounriver-studio-projects\CH570D-power_profiling_dummy_operations\obj/../StdPeriphDriver/CH57x_sys.c:70
            if((sc&0x1F) )
20000554:	01f57793          	andi	a5,a0,31
20000558:	cf9d                	beqz	a5,20000596 <SetSysClock+0x204>
__risc_v_disable_irq():
c:/Users/seanw/mounriver-studio-projects/CH570D-power_profiling_dummy_operations/RVMSIS/core_riscv.h:154
    __asm volatile("csrrc %0, 0x800, %1" : \
2000055a:	08800793          	li	a5,136
2000055e:	8007b7f3          	csrrc	a5,0x800,a5
c:/Users/seanw/mounriver-studio-projects/CH570D-power_profiling_dummy_operations/RVMSIS/core_riscv.h:156
    return result & 0x88;
20000562:	0887f793          	andi	a5,a5,136
SetSysClock():
c:\Users\seanw\mounriver-studio-projects\CH570D-power_profiling_dummy_operations\obj/../StdPeriphDriver/CH57x_sys.c:72
                sys_safe_access_enable();
20000566:	ca3e                	sw	a5,20(sp)
20000568:	0000100f          	fence.i
2000056c:	400017b7          	lui	a5,0x40001
20000570:	05700713          	li	a4,87
20000574:	04e78023          	sb	a4,64(a5) # 40001040 <_eusrstack+0x1fffe040>
20000578:	fa800713          	li	a4,-88
2000057c:	04e78023          	sb	a4,64(a5)
20000580:	0000100f          	fence.i
c:\Users\seanw\mounriver-studio-projects\CH570D-power_profiling_dummy_operations\obj/../StdPeriphDriver/CH57x_sys.c:73
                R8_FLASH_CFG = 0X02;
20000584:	40002737          	lui	a4,0x40002
20000588:	4689                	li	a3,2
2000058a:	80d703a3          	sb	a3,-2041(a4) # 40001807 <_eusrstack+0x1fffe807>
c:\Users\seanw\mounriver-studio-projects\CH570D-power_profiling_dummy_operations\obj/../StdPeriphDriver/CH57x_sys.c:74
                sys_safe_access_disable();
2000058e:	04078023          	sb	zero,64(a5)
20000592:	47d2                	lw	a5,20(sp)
__risc_v_enable_irq():
c:/Users/seanw/mounriver-studio-projects/CH570D-power_profiling_dummy_operations/RVMSIS/core_riscv.h:138
    __asm volatile("csrrs %0, 0x800, %1" : \
20000594:	b741                	j	20000514 <SetSysClock+0x182>
__risc_v_disable_irq():
c:/Users/seanw/mounriver-studio-projects/CH570D-power_profiling_dummy_operations/RVMSIS/core_riscv.h:154
    __asm volatile("csrrc %0, 0x800, %1" : \
20000596:	08800793          	li	a5,136
2000059a:	8007b7f3          	csrrc	a5,0x800,a5
c:/Users/seanw/mounriver-studio-projects/CH570D-power_profiling_dummy_operations/RVMSIS/core_riscv.h:156
    return result & 0x88;
2000059e:	0887f793          	andi	a5,a5,136
SetSysClock():
c:\Users\seanw\mounriver-studio-projects\CH570D-power_profiling_dummy_operations\obj/../StdPeriphDriver/CH57x_sys.c:78
                sys_safe_access_enable();
200005a2:	cc3e                	sw	a5,24(sp)
200005a4:	0000100f          	fence.i
200005a8:	400017b7          	lui	a5,0x40001
200005ac:	05700713          	li	a4,87
200005b0:	04e78023          	sb	a4,64(a5) # 40001040 <_eusrstack+0x1fffe040>
200005b4:	fa800713          	li	a4,-88
200005b8:	04e78023          	sb	a4,64(a5)
200005bc:	0000100f          	fence.i
c:\Users\seanw\mounriver-studio-projects\CH570D-power_profiling_dummy_operations\obj/../StdPeriphDriver/CH57x_sys.c:79
                R8_FLASH_CFG = 0X07;
200005c0:	40002737          	lui	a4,0x40002
200005c4:	469d                	li	a3,7
200005c6:	80d703a3          	sb	a3,-2041(a4) # 40001807 <_eusrstack+0x1fffe807>
c:\Users\seanw\mounriver-studio-projects\CH570D-power_profiling_dummy_operations\obj/../StdPeriphDriver/CH57x_sys.c:80
                sys_safe_access_disable();
200005ca:	04078023          	sb	zero,64(a5)
200005ce:	47e2                	lw	a5,24(sp)
200005d0:	b791                	j	20000514 <SetSysClock+0x182>

200005d2 <HardFault_Handler>:
HardFault_Handler():
c:\Users\seanw\mounriver-studio-projects\CH570D-power_profiling_dummy_operations\obj/../StdPeriphDriver/CH57x_sys.c:283
 */
__INTERRUPT
__HIGH_CODE
__attribute__((weak))
void HardFault_Handler(void)
{
200005d2:	1141                	addi	sp,sp,-16
c:\Users\seanw\mounriver-studio-projects\CH570D-power_profiling_dummy_operations\obj/../StdPeriphDriver/CH57x_sys.c:284
    FLASH_ROM_SW_RESET();
200005d4:	4681                	li	a3,0
200005d6:	4601                	li	a2,0
200005d8:	4581                	li	a1,0
200005da:	4511                	li	a0,4
200005dc:	e0001097          	auipc	ra,0xe0001
200005e0:	96a080e7          	jalr	-1686(ra) # f46 <FLASH_EEPROM_CMD>
__risc_v_disable_irq():
c:/Users/seanw/mounriver-studio-projects/CH570D-power_profiling_dummy_operations/RVMSIS/core_riscv.h:154
    __asm volatile("csrrc %0, 0x800, %1" : \
200005e4:	08800713          	li	a4,136
200005e8:	800737f3          	csrrc	a5,0x800,a4
c:/Users/seanw/mounriver-studio-projects/CH570D-power_profiling_dummy_operations/RVMSIS/core_riscv.h:156
    return result & 0x88;
200005ec:	0887f793          	andi	a5,a5,136
HardFault_Handler():
c:\Users\seanw\mounriver-studio-projects\CH570D-power_profiling_dummy_operations\obj/../StdPeriphDriver/CH57x_sys.c:285
    sys_safe_access_enable();
200005f0:	c43e                	sw	a5,8(sp)
200005f2:	0000100f          	fence.i
200005f6:	400017b7          	lui	a5,0x40001
200005fa:	05700613          	li	a2,87
200005fe:	04c78023          	sb	a2,64(a5) # 40001040 <_eusrstack+0x1fffe040>
20000602:	fa800693          	li	a3,-88
20000606:	04d78023          	sb	a3,64(a5)
2000060a:	0000100f          	fence.i
c:\Users\seanw\mounriver-studio-projects\CH570D-power_profiling_dummy_operations\obj/../StdPeriphDriver/CH57x_sys.c:286
    R16_INT_LSI_TUNE = 0xFFFF;
2000060e:	55fd                	li	a1,-1
20000610:	b7ce                	sh	a1,44(a5)
c:\Users\seanw\mounriver-studio-projects\CH570D-power_profiling_dummy_operations\obj/../StdPeriphDriver/CH57x_sys.c:287
    sys_safe_access_disable();
20000612:	04078023          	sb	zero,64(a5)
20000616:	45a2                	lw	a1,8(sp)
__risc_v_enable_irq():
c:/Users/seanw/mounriver-studio-projects/CH570D-power_profiling_dummy_operations/RVMSIS/core_riscv.h:138
    __asm volatile("csrrs %0, 0x800, %1" : \
20000618:	8005a5f3          	csrrs	a1,0x800,a1
HardFault_Handler():
c:\Users\seanw\mounriver-studio-projects\CH570D-power_profiling_dummy_operations\obj/../StdPeriphDriver/CH57x_sys.c:287
2000061c:	0000100f          	fence.i
__risc_v_disable_irq():
c:/Users/seanw/mounriver-studio-projects/CH570D-power_profiling_dummy_operations/RVMSIS/core_riscv.h:154
    __asm volatile("csrrc %0, 0x800, %1" : \
20000620:	80073773          	csrrc	a4,0x800,a4
c:/Users/seanw/mounriver-studio-projects/CH570D-power_profiling_dummy_operations/RVMSIS/core_riscv.h:156
    return result & 0x88;
20000624:	08877713          	andi	a4,a4,136
HardFault_Handler():
c:\Users\seanw\mounriver-studio-projects\CH570D-power_profiling_dummy_operations\obj/../StdPeriphDriver/CH57x_sys.c:288
    sys_safe_access_enable();
20000628:	c63a                	sw	a4,12(sp)
2000062a:	0000100f          	fence.i
2000062e:	04c78023          	sb	a2,64(a5)
20000632:	04d78023          	sb	a3,64(a5)
20000636:	0000100f          	fence.i
c:\Users\seanw\mounriver-studio-projects\CH570D-power_profiling_dummy_operations\obj/../StdPeriphDriver/CH57x_sys.c:289
    R8_RST_WDOG_CTRL |= RB_SOFTWARE_RESET;
2000063a:	0467c703          	lbu	a4,70(a5)
2000063e:	00176713          	ori	a4,a4,1
20000642:	04e78323          	sb	a4,70(a5)
c:\Users\seanw\mounriver-studio-projects\CH570D-power_profiling_dummy_operations\obj/../StdPeriphDriver/CH57x_sys.c:290
    sys_safe_access_disable();
20000646:	04078023          	sb	zero,64(a5)
2000064a:	47b2                	lw	a5,12(sp)
__risc_v_enable_irq():
c:/Users/seanw/mounriver-studio-projects/CH570D-power_profiling_dummy_operations/RVMSIS/core_riscv.h:138
    __asm volatile("csrrs %0, 0x800, %1" : \
2000064c:	8007a7f3          	csrrs	a5,0x800,a5
HardFault_Handler():
c:\Users\seanw\mounriver-studio-projects\CH570D-power_profiling_dummy_operations\obj/../StdPeriphDriver/CH57x_sys.c:290
20000650:	0000100f          	fence.i
c:\Users\seanw\mounriver-studio-projects\CH570D-power_profiling_dummy_operations\obj/../StdPeriphDriver/CH57x_sys.c:291 (discriminator 1)
    while(1);
20000654:	a001                	j	20000654 <HardFault_Handler+0x82>

20000656 <mDelayuS>:
mDelayuS():
c:\Users\seanw\mounriver-studio-projects\CH570D-power_profiling_dummy_operations\obj/../StdPeriphDriver/CH57x_sys.c:308
__HIGH_CODE
void mDelayuS(uint16_t t)
{
    uint32_t i;
#if(FREQ_SYS == 100000000)
    i = t * 25;
20000656:	47e5                	li	a5,25
20000658:	02f50533          	mul	a0,a0,a5
c:\Users\seanw\mounriver-studio-projects\CH570D-power_profiling_dummy_operations\obj/../StdPeriphDriver/CH57x_sys.c:351 (discriminator 1)
        __nop();
    };
#else
    do
    {
        __nop();
2000065c:	0001                	nop
c:\Users\seanw\mounriver-studio-projects\CH570D-power_profiling_dummy_operations\obj/../StdPeriphDriver/CH57x_sys.c:352 (discriminator 1)
    }while(--i);
2000065e:	157d                	addi	a0,a0,-1
20000660:	fd75                	bnez	a0,2000065c <mDelayuS+0x6>
c:\Users\seanw\mounriver-studio-projects\CH570D-power_profiling_dummy_operations\obj/../StdPeriphDriver/CH57x_sys.c:354
#endif
}
20000662:	8082                	ret

20000664 <mDelaymS>:
mDelaymS():
c:\Users\seanw\mounriver-studio-projects\CH570D-power_profiling_dummy_operations\obj/../StdPeriphDriver/CH57x_sys.c:367
 *
 * @return  none
 */
__HIGH_CODE
void mDelaymS(uint16_t t)
{
20000664:	1141                	addi	sp,sp,-16
20000666:	c422                	sw	s0,8(sp)
20000668:	c606                	sw	ra,12(sp)
2000066a:	842a                	mv	s0,a0
c:\Users\seanw\mounriver-studio-projects\CH570D-power_profiling_dummy_operations\obj/../StdPeriphDriver/CH57x_sys.c:370 (discriminator 1)
    do
    {
        mDelayuS(1000);
2000066c:	3e800513          	li	a0,1000
c:\Users\seanw\mounriver-studio-projects\CH570D-power_profiling_dummy_operations\obj/../StdPeriphDriver/CH57x_sys.c:371 (discriminator 1)
    }while(--t);
20000670:	147d                	addi	s0,s0,-1
c:\Users\seanw\mounriver-studio-projects\CH570D-power_profiling_dummy_operations\obj/../StdPeriphDriver/CH57x_sys.c:370 (discriminator 1)
        mDelayuS(1000);
20000672:	37d5                	jal	20000656 <mDelayuS>
c:\Users\seanw\mounriver-studio-projects\CH570D-power_profiling_dummy_operations\obj/../StdPeriphDriver/CH57x_sys.c:371 (discriminator 1)
    }while(--t);
20000674:	08044433          	zext.h	s0,s0
20000678:	f875                	bnez	s0,2000066c <mDelaymS+0x8>
c:\Users\seanw\mounriver-studio-projects\CH570D-power_profiling_dummy_operations\obj/../StdPeriphDriver/CH57x_sys.c:372
}
2000067a:	40b2                	lw	ra,12(sp)
2000067c:	4422                	lw	s0,8(sp)
2000067e:	0141                	addi	sp,sp,16
20000680:	8082                	ret

20000682 <FLASH_ROM_BEG_FF>:
FLASH_ROM_BEG_FF():
20000682:	80040323          	sb	zero,-2042(s0)
20000686:	4715                	li	a4,5
20000688:	87a2                	mv	a5,s0
2000068a:	80e40323          	sb	a4,-2042(s0)
2000068e:	0001                	nop
20000690:	0001                	nop
20000692:	80a40223          	sb	a0,-2044(s0)
20000696:	8067c703          	lbu	a4,-2042(a5)
2000069a:	0762                	slli	a4,a4,0x18
2000069c:	8761                	srai	a4,a4,0x18
2000069e:	fe074ce3          	bltz	a4,20000696 <FLASH_ROM_BEG_FF+0x14>
200006a2:	80a78223          	sb	a0,-2044(a5)
200006a6:	8722                	mv	a4,s0
200006a8:	80674783          	lbu	a5,-2042(a4)
200006ac:	07e2                	slli	a5,a5,0x18
200006ae:	87e1                	srai	a5,a5,0x18
200006b0:	fe07cce3          	bltz	a5,200006a8 <FLASH_ROM_BEG_FF+0x26>
200006b4:	8082                	ret

200006b6 <FLASH_ROM_BEG>:
FLASH_ROM_BEG():
200006b6:	80040323          	sb	zero,-2042(s0)
200006ba:	4715                	li	a4,5
200006bc:	80e40323          	sb	a4,-2042(s0)
200006c0:	0001                	nop
200006c2:	0001                	nop
200006c4:	80a40223          	sb	a0,-2044(s0)
200006c8:	8082                	ret

200006ca <FLASH_ROM_END>:
FLASH_ROM_END():
200006ca:	80640783          	lb	a5,-2042(s0)
200006ce:	fe07cee3          	bltz	a5,200006ca <FLASH_ROM_END>
200006d2:	80040323          	sb	zero,-2042(s0)
200006d6:	8082                	ret

200006d8 <FLASH_ROM_IN>:
FLASH_ROM_IN():
200006d8:	80640783          	lb	a5,-2042(s0)
200006dc:	fe07cee3          	bltz	a5,200006d8 <FLASH_ROM_IN>
200006e0:	80444503          	lbu	a0,-2044(s0)
200006e4:	8082                	ret

200006e6 <FLASH_ROM_OUT>:
FLASH_ROM_OUT():
200006e6:	80640783          	lb	a5,-2042(s0)
200006ea:	fe07cee3          	bltz	a5,200006e6 <FLASH_ROM_OUT>
200006ee:	80a40223          	sb	a0,-2044(s0)
200006f2:	8082                	ret

200006f4 <FLASH_ROM_ADDR>:
FLASH_ROM_ADDR():
200006f4:	1141                	addi	sp,sp,-16
200006f6:	c426                	sw	s1,8(sp)
200006f8:	c24a                	sw	s2,4(sp)
200006fa:	c04e                	sw	s3,0(sp)
200006fc:	c606                	sw	ra,12(sp)
200006fe:	0bf57713          	andi	a4,a0,191
20000702:	47ad                	li	a5,11
20000704:	89aa                	mv	s3,a0
20000706:	892e                	mv	s2,a1
20000708:	4495                	li	s1,5
2000070a:	00f70663          	beq	a4,a5,20000716 <FLASH_ROM_ADDR+0x22>
2000070e:	4519                	li	a0,6
20000710:	375d                	jal	200006b6 <FLASH_ROM_BEG>
20000712:	3f65                	jal	200006ca <FLASH_ROM_END>
20000714:	448d                	li	s1,3
20000716:	854e                	mv	a0,s3
20000718:	3f79                	jal	200006b6 <FLASH_ROM_BEG>
2000071a:	59fd                	li	s3,-1
2000071c:	14fd                	addi	s1,s1,-1
2000071e:	01349863          	bne	s1,s3,2000072e <FLASH_ROM_ADDR+0x3a>
20000722:	40b2                	lw	ra,12(sp)
20000724:	44a2                	lw	s1,8(sp)
20000726:	4912                	lw	s2,4(sp)
20000728:	4982                	lw	s3,0(sp)
2000072a:	0141                	addi	sp,sp,16
2000072c:	8082                	ret
2000072e:	01095513          	srli	a0,s2,0x10
20000732:	0ff57513          	zext.b	a0,a0
20000736:	3f45                	jal	200006e6 <FLASH_ROM_OUT>
20000738:	0922                	slli	s2,s2,0x8
2000073a:	b7cd                	j	2000071c <FLASH_ROM_ADDR+0x28>

2000073c <FLASH_ROM_WAIT>:
FLASH_ROM_WAIT():
2000073c:	1101                	addi	sp,sp,-32
2000073e:	cc26                	sw	s1,24(sp)
20000740:	ce06                	sw	ra,28(sp)
20000742:	000804b7          	lui	s1,0x80
20000746:	3751                	jal	200006ca <FLASH_ROM_END>
20000748:	4515                	li	a0,5
2000074a:	37b5                	jal	200006b6 <FLASH_ROM_BEG>
2000074c:	3771                	jal	200006d8 <FLASH_ROM_IN>
2000074e:	3769                	jal	200006d8 <FLASH_ROM_IN>
20000750:	c62a                	sw	a0,12(sp)
20000752:	3fa5                	jal	200006ca <FLASH_ROM_END>
20000754:	4532                	lw	a0,12(sp)
20000756:	00157793          	andi	a5,a0,1
2000075a:	eb89                	bnez	a5,2000076c <FLASH_ROM_WAIT+0x30>
2000075c:	00156513          	ori	a0,a0,1
20000760:	0ff57513          	zext.b	a0,a0
20000764:	40f2                	lw	ra,28(sp)
20000766:	44e2                	lw	s1,24(sp)
20000768:	6105                	addi	sp,sp,32
2000076a:	8082                	ret
2000076c:	14fd                	addi	s1,s1,-1 # 7ffff <_data_lma+0x7dae3>
2000076e:	fce9                	bnez	s1,20000748 <FLASH_ROM_WAIT+0xc>
20000770:	4501                	li	a0,0
20000772:	bfcd                	j	20000764 <FLASH_ROM_WAIT+0x28>

20000774 <FLASH_START>:
FLASH_START():
20000774:	1141                	addi	sp,sp,-16
20000776:	c606                	sw	ra,12(sp)
20000778:	400017b7          	lui	a5,0x40001
2000077c:	05700713          	li	a4,87
20000780:	04e78023          	sb	a4,64(a5) # 40001040 <_eusrstack+0x1fffe040>
20000784:	fa800713          	li	a4,-88
20000788:	04e78023          	sb	a4,64(a5)
2000078c:	0447c703          	lbu	a4,68(a5)
20000790:	0ff00513          	li	a0,255
20000794:	0e076713          	ori	a4,a4,224
20000798:	04e78223          	sb	a4,68(a5)
2000079c:	4791                	li	a5,4
2000079e:	80f40323          	sb	a5,-2042(s0)
200007a2:	35c5                	jal	20000682 <FLASH_ROM_BEG_FF>
200007a4:	40b2                	lw	ra,12(sp)
200007a6:	0141                	addi	sp,sp,16
200007a8:	b70d                	j	200006ca <FLASH_ROM_END>

200007aa <FLASH_CMD_ROM_WRITE>:
FLASH_CMD_ROM_WRITE():
200007aa:	1101                	addi	sp,sp,-32
200007ac:	cc26                	sw	s1,24(sp)
200007ae:	ca4a                	sw	s2,20(sp)
200007b0:	c84e                	sw	s3,16(sp)
200007b2:	c652                	sw	s4,12(sp)
200007b4:	ce06                	sw	ra,28(sp)
200007b6:	892a                	mv	s2,a0
200007b8:	89ae                	mv	s3,a1
200007ba:	84b2                	mv	s1,a2
200007bc:	4a55                	li	s4,21
200007be:	3f5d                	jal	20000774 <FLASH_START>
200007c0:	e891                	bnez	s1,200007d4 <FLASH_CMD_ROM_WRITE+0x2a>
200007c2:	3721                	jal	200006ca <FLASH_ROM_END>
200007c4:	40f2                	lw	ra,28(sp)
200007c6:	8526                	mv	a0,s1
200007c8:	4952                	lw	s2,20(sp)
200007ca:	44e2                	lw	s1,24(sp)
200007cc:	49c2                	lw	s3,16(sp)
200007ce:	4a32                	lw	s4,12(sp)
200007d0:	6105                	addi	sp,sp,32
200007d2:	8082                	ret
200007d4:	85ca                	mv	a1,s2
200007d6:	4509                	li	a0,2
200007d8:	3f31                	jal	200006f4 <FLASH_ROM_ADDR>
200007da:	0991                	addi	s3,s3,4
200007dc:	ffc9a703          	lw	a4,-4(s3)
200007e0:	4791                	li	a5,4
200007e2:	80e42023          	sw	a4,-2048(s0)

200007e6 <.loop247>:
200007e6:	80640703          	lb	a4,-2042(s0)
200007ea:	fe074ee3          	bltz	a4,200007e6 <.loop247>
200007ee:	81440323          	sb	s4,-2042(s0)
200007f2:	17fd                	addi	a5,a5,-1
200007f4:	fbed                	bnez	a5,200007e6 <.loop247>
200007f6:	14fd                	addi	s1,s1,-1
200007f8:	0911                	addi	s2,s2,4
200007fa:	c481                	beqz	s1,20000802 <.loop247+0x1c>
200007fc:	0ff97793          	zext.b	a5,s2
20000800:	ffe9                	bnez	a5,200007da <FLASH_CMD_ROM_WRITE+0x30>
20000802:	3f2d                	jal	2000073c <FLASH_ROM_WAIT>
20000804:	fd55                	bnez	a0,200007c0 <FLASH_CMD_ROM_WRITE+0x16>
20000806:	54fd                	li	s1,-1
20000808:	bf75                	j	200007c4 <FLASH_CMD_ROM_WRITE+0x1a>

2000080a <FLASH_CMD_ROM_ERASE>:
FLASH_CMD_ROM_ERASE():
2000080a:	1101                	addi	sp,sp,-32
2000080c:	cc26                	sw	s1,24(sp)
2000080e:	ca4a                	sw	s2,20(sp)
20000810:	c84e                	sw	s3,16(sp)
20000812:	c652                	sw	s4,12(sp)
20000814:	c456                	sw	s5,8(sp)
20000816:	c25a                	sw	s6,4(sp)
20000818:	ce06                	sw	ra,28(sp)
2000081a:	892a                	mv	s2,a0
2000081c:	8a32                	mv	s4,a2
2000081e:	498d                	li	s3,3
20000820:	3f91                	jal	20000774 <FLASH_START>
20000822:	64c1                	lui	s1,0x10
20000824:	6ac1                	lui	s5,0x10
20000826:	6b05                	lui	s6,0x1
20000828:	fff48793          	addi	a5,s1,-1 # ffff <_data_lma+0xdae3>
2000082c:	0127f7b3          	and	a5,a5,s2
20000830:	e399                	bnez	a5,20000836 <FLASH_CMD_ROM_ERASE+0x2c>
20000832:	029a7163          	bgeu	s4,s1,20000854 <FLASH_CMD_ROM_ERASE+0x4a>
20000836:	19fd                	addi	s3,s3,-1
20000838:	8091                	srli	s1,s1,0x4
2000083a:	fe0997e3          	bnez	s3,20000828 <FLASH_CMD_ROM_ERASE+0x1e>
2000083e:	3571                	jal	200006ca <FLASH_ROM_END>
20000840:	4501                	li	a0,0
20000842:	40f2                	lw	ra,28(sp)
20000844:	44e2                	lw	s1,24(sp)
20000846:	4952                	lw	s2,20(sp)
20000848:	49c2                	lw	s3,16(sp)
2000084a:	4a32                	lw	s4,12(sp)
2000084c:	4aa2                	lw	s5,8(sp)
2000084e:	4b12                	lw	s6,4(sp)
20000850:	6105                	addi	sp,sp,32
20000852:	8082                	ret
20000854:	0d800513          	li	a0,216
20000858:	01548863          	beq	s1,s5,20000868 <FLASH_CMD_ROM_ERASE+0x5e>
2000085c:	02000513          	li	a0,32
20000860:	01648463          	beq	s1,s6,20000868 <FLASH_CMD_ROM_ERASE+0x5e>
20000864:	08100513          	li	a0,129
20000868:	85ca                	mv	a1,s2
2000086a:	3569                	jal	200006f4 <FLASH_ROM_ADDR>
2000086c:	3dc1                	jal	2000073c <FLASH_ROM_WAIT>
2000086e:	c509                	beqz	a0,20000878 <FLASH_CMD_ROM_ERASE+0x6e>
20000870:	9926                	add	s2,s2,s1
20000872:	409a0a33          	sub	s4,s4,s1
20000876:	bf75                	j	20000832 <FLASH_CMD_ROM_ERASE+0x28>
20000878:	557d                	li	a0,-1
2000087a:	b7e1                	j	20000842 <FLASH_CMD_ROM_ERASE+0x38>

2000087c <FLASH_CMD_ROM_VERIFY>:
FLASH_CMD_ROM_VERIFY():
2000087c:	1101                	addi	sp,sp,-32
2000087e:	ce06                	sw	ra,28(sp)
20000880:	cc26                	sw	s1,24(sp)
20000882:	ca4a                	sw	s2,20(sp)
20000884:	84b2                	mv	s1,a2
20000886:	c84e                	sw	s3,16(sp)
20000888:	c62a                	sw	a0,12(sp)
2000088a:	892e                	mv	s2,a1
2000088c:	35e5                	jal	20000774 <FLASH_START>
2000088e:	4532                	lw	a0,12(sp)
20000890:	14fd                	addi	s1,s1,-1
20000892:	59fd                	li	s3,-1
20000894:	85aa                	mv	a1,a0
20000896:	452d                	li	a0,11
20000898:	3db1                	jal	200006f4 <FLASH_ROM_ADDR>
2000089a:	01349a63          	bne	s1,s3,200008ae <FLASH_CMD_ROM_VERIFY+0x32>
2000089e:	3535                	jal	200006ca <FLASH_ROM_END>
200008a0:	40f2                	lw	ra,28(sp)
200008a2:	8526                	mv	a0,s1
200008a4:	4952                	lw	s2,20(sp)
200008a6:	44e2                	lw	s1,24(sp)
200008a8:	49c2                	lw	s3,16(sp)
200008aa:	6105                	addi	sp,sp,32
200008ac:	8082                	ret
200008ae:	352d                	jal	200006d8 <FLASH_ROM_IN>
200008b0:	0034f793          	andi	a5,s1,3
200008b4:	eb91                	bnez	a5,200008c8 <FLASH_CMD_ROM_VERIFY+0x4c>
200008b6:	80042683          	lw	a3,-2048(s0)
200008ba:	00092703          	lw	a4,0(s2)
200008be:	00490793          	addi	a5,s2,4
200008c2:	fce69ee3          	bne	a3,a4,2000089e <FLASH_CMD_ROM_VERIFY+0x22>
200008c6:	893e                	mv	s2,a5
200008c8:	14fd                	addi	s1,s1,-1
200008ca:	bfc1                	j	2000089a <FLASH_CMD_ROM_VERIFY+0x1e>

200008cc <FLASH_CMD_ROM_PWR>:
FLASH_CMD_ROM_PWR():
200008cc:	1101                	addi	sp,sp,-32
200008ce:	ce06                	sw	ra,28(sp)
200008d0:	c62a                	sw	a0,12(sp)
200008d2:	354d                	jal	20000774 <FLASH_START>
200008d4:	4532                	lw	a0,12(sp)
200008d6:	33c5                	jal	200006b6 <FLASH_ROM_BEG>
200008d8:	40f2                	lw	ra,28(sp)
200008da:	6105                	addi	sp,sp,32
200008dc:	b3fd                	j	200006ca <FLASH_ROM_END>

200008de <FLASH_CMD_GET_ROM_INFO>:
FLASH_CMD_GET_ROM_INFO():
200008de:	1101                	addi	sp,sp,-32
200008e0:	ce06                	sw	ra,28(sp)
200008e2:	cc26                	sw	s1,24(sp)
200008e4:	ca4a                	sw	s2,20(sp)
200008e6:	c84e                	sw	s3,16(sp)
200008e8:	c652                	sw	s4,12(sp)
200008ea:	89aa                	mv	s3,a0
200008ec:	c456                	sw	s5,8(sp)
200008ee:	892e                	mv	s2,a1
200008f0:	3551                	jal	20000774 <FLASH_START>
200008f2:	000405b7          	lui	a1,0x40
200008f6:	00b9e5b3          	or	a1,s3,a1
200008fa:	452d                	li	a0,11
200008fc:	3be5                	jal	200006f4 <FLASH_ROM_ADDR>
200008fe:	4481                	li	s1,0
20000900:	4a8d                	li	s5,3
20000902:	4a21                	li	s4,8
20000904:	3bd1                	jal	200006d8 <FLASH_ROM_IN>
20000906:	01549663          	bne	s1,s5,20000912 <FLASH_CMD_GET_ROM_INFO+0x34>
2000090a:	80042783          	lw	a5,-2048(s0)
2000090e:	00f92023          	sw	a5,0(s2)
20000912:	0485                	addi	s1,s1,1
20000914:	ff4498e3          	bne	s1,s4,20000904 <FLASH_CMD_GET_ROM_INFO+0x26>
20000918:	80042783          	lw	a5,-2048(s0)
2000091c:	01299713          	slli	a4,s3,0x12
20000920:	00075c63          	bgez	a4,20000938 <FLASH_CMD_GET_ROM_INFO+0x5a>
20000924:	00f91223          	sh	a5,4(s2)
20000928:	40f2                	lw	ra,28(sp)
2000092a:	44e2                	lw	s1,24(sp)
2000092c:	4952                	lw	s2,20(sp)
2000092e:	49c2                	lw	s3,16(sp)
20000930:	4a32                	lw	s4,12(sp)
20000932:	4aa2                	lw	s5,8(sp)
20000934:	6105                	addi	sp,sp,32
20000936:	bb51                	j	200006ca <FLASH_ROM_END>
20000938:	00f92223          	sw	a5,4(s2)
2000093c:	b7f5                	j	20000928 <FLASH_CMD_GET_ROM_INFO+0x4a>

2000093e <FLASH_CMD_GET_UNIQUE_ID>:
FLASH_CMD_GET_UNIQUE_ID():
2000093e:	1141                	addi	sp,sp,-16
20000940:	c606                	sw	ra,12(sp)
20000942:	c426                	sw	s1,8(sp)
20000944:	c24a                	sw	s2,4(sp)
20000946:	c04e                	sw	s3,0(sp)
20000948:	89ae                	mv	s3,a1
2000094a:	352d                	jal	20000774 <FLASH_START>
2000094c:	4581                	li	a1,0
2000094e:	04b00513          	li	a0,75
20000952:	334d                	jal	200006f4 <FLASH_ROM_ADDR>
20000954:	44bd                	li	s1,15
20000956:	597d                	li	s2,-1
20000958:	3341                	jal	200006d8 <FLASH_ROM_IN>
2000095a:	0074f793          	andi	a5,s1,7
2000095e:	97ce                	add	a5,a5,s3
20000960:	0007c703          	lbu	a4,0(a5)
20000964:	14fd                	addi	s1,s1,-1
20000966:	8d39                	xor	a0,a0,a4
20000968:	00a78023          	sb	a0,0(a5)
2000096c:	ff2496e3          	bne	s1,s2,20000958 <FLASH_CMD_GET_UNIQUE_ID+0x1a>
20000970:	40b2                	lw	ra,12(sp)
20000972:	44a2                	lw	s1,8(sp)
20000974:	4912                	lw	s2,4(sp)
20000976:	4982                	lw	s3,0(sp)
20000978:	0141                	addi	sp,sp,16
2000097a:	bb81                	j	200006ca <FLASH_ROM_END>

2000097c <FLASH_CMD_ROM_SW_RESET>:
FLASH_CMD_ROM_SW_RESET():
2000097c:	1141                	addi	sp,sp,-16
2000097e:	c606                	sw	ra,12(sp)
20000980:	3bd5                	jal	20000774 <FLASH_START>
20000982:	06600513          	li	a0,102
20000986:	3b05                	jal	200006b6 <FLASH_ROM_BEG>
20000988:	3389                	jal	200006ca <FLASH_ROM_END>
2000098a:	09900513          	li	a0,153
2000098e:	3325                	jal	200006b6 <FLASH_ROM_BEG>
20000990:	40b2                	lw	ra,12(sp)
20000992:	0141                	addi	sp,sp,16
20000994:	bb1d                	j	200006ca <FLASH_ROM_END>
	...

Disassembly of section .text:

0000099c <handle_reset>:
handle_reset():
c:\Users\seanw\mounriver-studio-projects\CH570D-power_profiling_dummy_operations\obj/../Startup/startup_CH572.S:119
	.weak	handle_reset
	.align	1
handle_reset:
.option push 
.option	norelax 
	la gp, __global_pointer$
     99c:	20001197          	auipc	gp,0x20001
     9a0:	85c18193          	addi	gp,gp,-1956 # 200011f8 <__global_pointer$>
c:\Users\seanw\mounriver-studio-projects\CH570D-power_profiling_dummy_operations\obj/../Startup/startup_CH572.S:121
1:
	la sp, _eusrstack 
     9a4:	20002117          	auipc	sp,0x20002
     9a8:	65c10113          	addi	sp,sp,1628 # 20003000 <_eusrstack>
c:\Users\seanw\mounriver-studio-projects\CH570D-power_profiling_dummy_operations\obj/../Startup/startup_CH572.S:126
.option	pop

/* Load highcode code  section from flash to RAM */
2:
    la a0, _highcode_lma
     9ac:	00400513          	li	a0,4
c:\Users\seanw\mounriver-studio-projects\CH570D-power_profiling_dummy_operations\obj/../Startup/startup_CH572.S:127
    la a1, _highcode_vma_start
     9b0:	1ffff597          	auipc	a1,0x1ffff
     9b4:	65058593          	addi	a1,a1,1616 # 20000000 <_highcode_vma_start>
c:\Users\seanw\mounriver-studio-projects\CH570D-power_profiling_dummy_operations\obj/../Startup/startup_CH572.S:128
    la a2, _highcode_vma_end
     9b8:	20000617          	auipc	a2,0x20000
     9bc:	fe060613          	addi	a2,a2,-32 # 20000998 <impure_data>
c:\Users\seanw\mounriver-studio-projects\CH570D-power_profiling_dummy_operations\obj/../Startup/startup_CH572.S:129
    bgeu a1, a2, 2f
     9c0:	00c5fa63          	bgeu	a1,a2,9d4 <handle_reset+0x38>
c:\Users\seanw\mounriver-studio-projects\CH570D-power_profiling_dummy_operations\obj/../Startup/startup_CH572.S:131
1:
    lw t0, (a0)
     9c4:	00052283          	lw	t0,0(a0)
c:\Users\seanw\mounriver-studio-projects\CH570D-power_profiling_dummy_operations\obj/../Startup/startup_CH572.S:132
    sw t0, (a1)
     9c8:	0055a023          	sw	t0,0(a1)
c:\Users\seanw\mounriver-studio-projects\CH570D-power_profiling_dummy_operations\obj/../Startup/startup_CH572.S:133
    addi a0, a0, 4
     9cc:	0511                	addi	a0,a0,4
c:\Users\seanw\mounriver-studio-projects\CH570D-power_profiling_dummy_operations\obj/../Startup/startup_CH572.S:134
    addi a1, a1, 4
     9ce:	0591                	addi	a1,a1,4
c:\Users\seanw\mounriver-studio-projects\CH570D-power_profiling_dummy_operations\obj/../Startup/startup_CH572.S:135
    bltu a1, a2, 1b
     9d0:	fec5eae3          	bltu	a1,a2,9c4 <handle_reset+0x28>
c:\Users\seanw\mounriver-studio-projects\CH570D-power_profiling_dummy_operations\obj/../Startup/startup_CH572.S:139

/* Load data section from flash to RAM */
2:
	la a0, _data_lma
     9d4:	00002517          	auipc	a0,0x2
     9d8:	b4850513          	addi	a0,a0,-1208 # 251c <_data_lma>
c:\Users\seanw\mounriver-studio-projects\CH570D-power_profiling_dummy_operations\obj/../Startup/startup_CH572.S:140
	la a1, _data_vma
     9dc:	20000597          	auipc	a1,0x20000
     9e0:	fbc58593          	addi	a1,a1,-68 # 20000998 <impure_data>
c:\Users\seanw\mounriver-studio-projects\CH570D-power_profiling_dummy_operations\obj/../Startup/startup_CH572.S:141
	la a2, _edata
     9e4:	80c18613          	addi	a2,gp,-2036 # 20000a04 <Freq_LSI>
c:\Users\seanw\mounriver-studio-projects\CH570D-power_profiling_dummy_operations\obj/../Startup/startup_CH572.S:142
	bgeu a1, a2, 2f
     9e8:	00c5fa63          	bgeu	a1,a2,9fc <handle_reset+0x60>
c:\Users\seanw\mounriver-studio-projects\CH570D-power_profiling_dummy_operations\obj/../Startup/startup_CH572.S:144
1:
	lw t0, (a0)
     9ec:	00052283          	lw	t0,0(a0)
c:\Users\seanw\mounriver-studio-projects\CH570D-power_profiling_dummy_operations\obj/../Startup/startup_CH572.S:145
	sw t0, (a1)
     9f0:	0055a023          	sw	t0,0(a1)
c:\Users\seanw\mounriver-studio-projects\CH570D-power_profiling_dummy_operations\obj/../Startup/startup_CH572.S:146
	addi a0, a0, 4
     9f4:	0511                	addi	a0,a0,4
c:\Users\seanw\mounriver-studio-projects\CH570D-power_profiling_dummy_operations\obj/../Startup/startup_CH572.S:147
	addi a1, a1, 4
     9f6:	0591                	addi	a1,a1,4
c:\Users\seanw\mounriver-studio-projects\CH570D-power_profiling_dummy_operations\obj/../Startup/startup_CH572.S:148
	bltu a1, a2, 1b
     9f8:	fec5eae3          	bltu	a1,a2,9ec <handle_reset+0x50>
c:\Users\seanw\mounriver-studio-projects\CH570D-power_profiling_dummy_operations\obj/../Startup/startup_CH572.S:151
2:
	/* clear bss section */
	la a0, _sbss
     9fc:	80c18513          	addi	a0,gp,-2036 # 20000a04 <Freq_LSI>
c:\Users\seanw\mounriver-studio-projects\CH570D-power_profiling_dummy_operations\obj/../Startup/startup_CH572.S:152
	la a1, _ebss
     a00:	82818593          	addi	a1,gp,-2008 # 20000a20 <_ebss>
c:\Users\seanw\mounriver-studio-projects\CH570D-power_profiling_dummy_operations\obj/../Startup/startup_CH572.S:153
	bgeu a0, a1, 2f
     a04:	00b57763          	bgeu	a0,a1,a12 <handle_reset+0x76>
c:\Users\seanw\mounriver-studio-projects\CH570D-power_profiling_dummy_operations\obj/../Startup/startup_CH572.S:155
1:
	sw zero, (a0)
     a08:	00052023          	sw	zero,0(a0)
c:\Users\seanw\mounriver-studio-projects\CH570D-power_profiling_dummy_operations\obj/../Startup/startup_CH572.S:156
	addi a0, a0, 4
     a0c:	0511                	addi	a0,a0,4
c:\Users\seanw\mounriver-studio-projects\CH570D-power_profiling_dummy_operations\obj/../Startup/startup_CH572.S:157
	bltu a0, a1, 1b
     a0e:	feb56de3          	bltu	a0,a1,a08 <handle_reset+0x6c>
c:\Users\seanw\mounriver-studio-projects\CH570D-power_profiling_dummy_operations\obj/../Startup/startup_CH572.S:161
2:
	/* 用户模式中断使能 */
	/*预取使能*/
	li t0, 0x25
     a12:	02500293          	li	t0,37
c:\Users\seanw\mounriver-studio-projects\CH570D-power_profiling_dummy_operations\obj/../Startup/startup_CH572.S:162
	csrw 0xbc0, t0
     a16:	bc029073          	csrw	0xbc0,t0
c:\Users\seanw\mounriver-studio-projects\CH570D-power_profiling_dummy_operations\obj/../Startup/startup_CH572.S:164
	/* 打开嵌套中断、硬件压栈功能 */
	li t0, 0x3
     a1a:	428d                	li	t0,3
c:\Users\seanw\mounriver-studio-projects\CH570D-power_profiling_dummy_operations\obj/../Startup/startup_CH572.S:165
	csrw 0x804, t0
     a1c:	80429073          	csrw	0x804,t0
c:\Users\seanw\mounriver-studio-projects\CH570D-power_profiling_dummy_operations\obj/../Startup/startup_CH572.S:166
	li t0, 0x1
     a20:	4285                	li	t0,1
c:\Users\seanw\mounriver-studio-projects\CH570D-power_profiling_dummy_operations\obj/../Startup/startup_CH572.S:167
	csrw 0xbc1, t0
     a22:	bc129073          	csrw	0xbc1,t0
c:\Users\seanw\mounriver-studio-projects\CH570D-power_profiling_dummy_operations\obj/../Startup/startup_CH572.S:169
	
    li t0, 0x88
     a26:	08800293          	li	t0,136
c:\Users\seanw\mounriver-studio-projects\CH570D-power_profiling_dummy_operations\obj/../Startup/startup_CH572.S:170
    csrw mstatus, t0
     a2a:	30029073          	csrw	mstatus,t0
c:\Users\seanw\mounriver-studio-projects\CH570D-power_profiling_dummy_operations\obj/../Startup/startup_CH572.S:171
	la t0, _vector_base
     a2e:	1ffff297          	auipc	t0,0x1ffff
     a32:	5d228293          	addi	t0,t0,1490 # 20000000 <_highcode_vma_start>
c:\Users\seanw\mounriver-studio-projects\CH570D-power_profiling_dummy_operations\obj/../Startup/startup_CH572.S:174

	/* 配置向量表模式为绝对地址模式 */
    ori t0, t0, 3
     a36:	0032e293          	ori	t0,t0,3
c:\Users\seanw\mounriver-studio-projects\CH570D-power_profiling_dummy_operations\obj/../Startup/startup_CH572.S:175
	csrw mtvec, t0
     a3a:	30529073          	csrw	mtvec,t0
c:\Users\seanw\mounriver-studio-projects\CH570D-power_profiling_dummy_operations\obj/../Startup/startup_CH572.S:177

	la t0, main
     a3e:	00000297          	auipc	t0,0x0
     a42:	0a028293          	addi	t0,t0,160 # ade <main>
c:\Users\seanw\mounriver-studio-projects\CH570D-power_profiling_dummy_operations\obj/../Startup/startup_CH572.S:178
	csrw mepc, t0
     a46:	34129073          	csrw	mepc,t0
c:\Users\seanw\mounriver-studio-projects\CH570D-power_profiling_dummy_operations\obj/../Startup/startup_CH572.S:180
	
	mret
     a4a:	30200073          	mret

00000a4e <memset>:
memset():
     a4e:	832a                	mv	t1,a0
     a50:	c611                	beqz	a2,a5c <memset+0xe>
     a52:	00b30023          	sb	a1,0(t1)
     a56:	167d                	addi	a2,a2,-1
     a58:	0305                	addi	t1,t1,1
     a5a:	fe65                	bnez	a2,a52 <memset+0x4>
     a5c:	8082                	ret

00000a5e <DebugInit>:
DebugInit():
c:\Users\seanw\mounriver-studio-projects\CH570D-power_profiling_dummy_operations\obj/../src/Main.c:21
{
     a5e:	1141                	addi	sp,sp,-16
     a60:	c606                	sw	ra,12(sp)
c:\Users\seanw\mounriver-studio-projects\CH570D-power_profiling_dummy_operations\obj/../src/Main.c:22
    GPIOA_SetBits(bTXD_0);
     a62:	400017b7          	lui	a5,0x40001
     a66:	4721                	li	a4,8
     a68:	0ae7ac23          	sw	a4,184(a5) # 400010b8 <_eusrstack+0x1fffe0b8>
c:\Users\seanw\mounriver-studio-projects\CH570D-power_profiling_dummy_operations\obj/../src/Main.c:23
    GPIOA_ModeCfg(bRXD_0, GPIO_ModeIN_PU);
     a6c:	4585                	li	a1,1
     a6e:	4511                	li	a0,4
     a70:	2c35                	jal	cac <GPIOA_ModeCfg>
c:\Users\seanw\mounriver-studio-projects\CH570D-power_profiling_dummy_operations\obj/../src/Main.c:24
    GPIOA_ModeCfg(bTXD_0, GPIO_ModeOut_PP_5mA);
     a72:	458d                	li	a1,3
     a74:	4521                	li	a0,8
     a76:	2c1d                	jal	cac <GPIOA_ModeCfg>
c:\Users\seanw\mounriver-studio-projects\CH570D-power_profiling_dummy_operations\obj/../src/Main.c:25
    UART_Remap(ENABLE, UART_TX_REMAP_PA3, UART_RX_REMAP_PA2);
     a78:	4601                	li	a2,0
     a7a:	4581                	li	a1,0
     a7c:	4505                	li	a0,1
     a7e:	2145                	jal	f1e <UART_Remap>
c:\Users\seanw\mounriver-studio-projects\CH570D-power_profiling_dummy_operations\obj/../src/Main.c:27
}
     a80:	40b2                	lw	ra,12(sp)
     a82:	0141                	addi	sp,sp,16
c:\Users\seanw\mounriver-studio-projects\CH570D-power_profiling_dummy_operations\obj/../src/Main.c:26
    UART_DefInit();
     a84:	a1a5                	j	eec <UART_DefInit>

00000a86 <RTC_Init_Wakeup>:
RTC_Init_Wakeup():
c:\Users\seanw\mounriver-studio-projects\CH570D-power_profiling_dummy_operations\obj/../src/Main.c:36
{
     a86:	1141                	addi	sp,sp,-16
     a88:	c422                	sw	s0,8(sp)
     a8a:	c226                	sw	s1,4(sp)
     a8c:	c606                	sw	ra,12(sp)
c:\Users\seanw\mounriver-studio-projects\CH570D-power_profiling_dummy_operations\obj/../src/Main.c:43
    R8_LSI_CONFIG |= RB_CLK_LSI_PON;
     a8e:	400014b7          	lui	s1,0x40001
     a92:	02f4c783          	lbu	a5,47(s1) # 4000102f <_eusrstack+0x1fffe02f>
c:\Users\seanw\mounriver-studio-projects\CH570D-power_profiling_dummy_operations\obj/../src/Main.c:36
{
     a96:	842a                	mv	s0,a0
c:\Users\seanw\mounriver-studio-projects\CH570D-power_profiling_dummy_operations\obj/../src/Main.c:44
    DelayMs(10); // Wait for the LSI to stabilize
     a98:	4529                	li	a0,10
c:\Users\seanw\mounriver-studio-projects\CH570D-power_profiling_dummy_operations\obj/../src/Main.c:43
    R8_LSI_CONFIG |= RB_CLK_LSI_PON;
     a9a:	0017e793          	ori	a5,a5,1
     a9e:	02f487a3          	sb	a5,47(s1)
c:\Users\seanw\mounriver-studio-projects\CH570D-power_profiling_dummy_operations\obj/../src/Main.c:44
    DelayMs(10); // Wait for the LSI to stabilize
     aa2:	20000097          	auipc	ra,0x20000
     aa6:	bc2080e7          	jalr	-1086(ra) # 20000664 <mDelaymS>
c:\Users\seanw\mounriver-studio-projects\CH570D-power_profiling_dummy_operations\obj/../src/Main.c:54
    target_count = current_count + (seconds * 32000);
     aaa:	66a1                	lui	a3,0x8
     aac:	d0068693          	addi	a3,a3,-768 # 7d00 <_data_lma+0x57e4>
     ab0:	02d40433          	mul	s0,s0,a3
c:\Users\seanw\mounriver-studio-projects\CH570D-power_profiling_dummy_operations\obj/../src/Main.c:48
    current_count = R16_RTC_CNT_DIV1;
     ab4:	3cba                	lhu	a4,58(s1)
c:\Users\seanw\mounriver-studio-projects\CH570D-power_profiling_dummy_operations\obj/../src/Main.c:49
    current_count = (current_count << 16) | R16_RTC_CNT_LSI;
     ab6:	3c9e                	lhu	a5,56(s1)
     ab8:	0742                	slli	a4,a4,0x10
     aba:	8fd9                	or	a5,a5,a4
PFIC_EnableIRQ():
c:/Users/seanw/mounriver-studio-projects/CH570D-power_profiling_dummy_operations/RVMSIS/core_riscv.h:173
    PFIC->IENR[((uint32_t)(IRQn) >> 5)] = (1 << ((uint32_t)(IRQn) & 0x1F));
     abc:	10000737          	lui	a4,0x10000
RTC_Init_Wakeup():
c:\Users\seanw\mounriver-studio-projects\CH570D-power_profiling_dummy_operations\obj/../src/Main.c:54
    target_count = current_count + (seconds * 32000);
     ac0:	943e                	add	s0,s0,a5
c:\Users\seanw\mounriver-studio-projects\CH570D-power_profiling_dummy_operations\obj/../src/Main.c:57
    R32_RTC_TRIG = target_count;
     ac2:	d8c0                	sw	s0,52(s1)
c:\Users\seanw\mounriver-studio-projects\CH570D-power_profiling_dummy_operations\obj/../src/Main.c:60
    R8_RTC_MODE_CTRL = RB_RTC_TRIG_EN;
     ac4:	02000793          	li	a5,32
     ac8:	02f488a3          	sb	a5,49(s1)
c:\Users\seanw\mounriver-studio-projects\CH570D-power_profiling_dummy_operations\obj/../src/Main.c:64
}
     acc:	40b2                	lw	ra,12(sp)
     ace:	4422                	lw	s0,8(sp)
PFIC_EnableIRQ():
c:/Users/seanw/mounriver-studio-projects/CH570D-power_profiling_dummy_operations/RVMSIS/core_riscv.h:173
     ad0:	e000e7b7          	lui	a5,0xe000e
     ad4:	10e7a023          	sw	a4,256(a5) # e000e100 <_eusrstack+0xc000b100>
RTC_Init_Wakeup():
c:\Users\seanw\mounriver-studio-projects\CH570D-power_profiling_dummy_operations\obj/../src/Main.c:64
     ad8:	4492                	lw	s1,4(sp)
     ada:	0141                	addi	sp,sp,16
     adc:	8082                	ret

00000ade <main>:
main():
c:\Users\seanw\mounriver-studio-projects\CH570D-power_profiling_dummy_operations\obj/../src/Main.c:71
{
     ade:	1141                	addi	sp,sp,-16
c:\Users\seanw\mounriver-studio-projects\CH570D-power_profiling_dummy_operations\obj/../src/Main.c:73
    HSECFG_Capacitance(HSECap_18p);
     ae0:	4519                	li	a0,6
c:\Users\seanw\mounriver-studio-projects\CH570D-power_profiling_dummy_operations\obj/../src/Main.c:71
{
     ae2:	c606                	sw	ra,12(sp)
c:\Users\seanw\mounriver-studio-projects\CH570D-power_profiling_dummy_operations\obj/../src/Main.c:73
    HSECFG_Capacitance(HSECap_18p);
     ae4:	2a3d                	jal	c22 <HSECFG_Capacitance>
c:\Users\seanw\mounriver-studio-projects\CH570D-power_profiling_dummy_operations\obj/../src/Main.c:74
    SetSysClock(CLK_SOURCE_HSE_PLL_100MHz);
     ae6:	04600513          	li	a0,70
     aea:	20000097          	auipc	ra,0x20000
     aee:	8a8080e7          	jalr	-1880(ra) # 20000392 <SetSysClock>
c:\Users\seanw\mounriver-studio-projects\CH570D-power_profiling_dummy_operations\obj/../src/Main.c:75
    GPIOA_ModeCfg(GPIO_Pin_All, GPIO_ModeIN_PU);
     af2:	4585                	li	a1,1
     af4:	557d                	li	a0,-1
     af6:	2a5d                	jal	cac <GPIOA_ModeCfg>
c:\Users\seanw\mounriver-studio-projects\CH570D-power_profiling_dummy_operations\obj/../src/Main.c:78
    DebugInit();
     af8:	379d                	jal	a5e <DebugInit>
c:\Users\seanw\mounriver-studio-projects\CH570D-power_profiling_dummy_operations\obj/../src/Main.c:79
    PRINT("Start Automated Power Profiling @ChipID=%02x\n\n", R8_CHIP_ID);
     afa:	400017b7          	lui	a5,0x40001
     afe:	0417c583          	lbu	a1,65(a5) # 40001041 <_eusrstack+0x1fffe041>
     b02:	00002517          	auipc	a0,0x2
     b06:	81250513          	addi	a0,a0,-2030 # 2314 <_read+0xc>
     b0a:	2b8d                	jal	107c <iprintf>
c:\Users\seanw\mounriver-studio-projects\CH570D-power_profiling_dummy_operations\obj/../src/Main.c:82
    PWR_PeriphWakeUpCfg(ENABLE, RB_SLP_RTC_WAKE, Fsys_Delay_4096);
     b0c:	461d                	li	a2,7
     b0e:	45a1                	li	a1,8
     b10:	4505                	li	a0,1
     b12:	2c31                	jal	d2e <PWR_PeriphWakeUpCfg>
c:\Users\seanw\mounriver-studio-projects\CH570D-power_profiling_dummy_operations\obj/../src/Main.c:83
    DelayMs(200);
     b14:	0c800513          	li	a0,200
     b18:	20000097          	auipc	ra,0x20000
     b1c:	b4c080e7          	jalr	-1204(ra) # 20000664 <mDelaymS>
c:\Users\seanw\mounriver-studio-projects\CH570D-power_profiling_dummy_operations\obj/../src/Main.c:88
    PRINT("Entering IDLE mode for 5 seconds...\n");
     b20:	00002517          	auipc	a0,0x2
     b24:	82450513          	addi	a0,a0,-2012 # 2344 <_read+0x3c>
     b28:	2d59                	jal	11be <puts>
c:\Users\seanw\mounriver-studio-projects\CH570D-power_profiling_dummy_operations\obj/../src/Main.c:89
    DelayMs(2); // Ensure print buffer is empty before sleep
     b2a:	4509                	li	a0,2
     b2c:	20000097          	auipc	ra,0x20000
     b30:	b38080e7          	jalr	-1224(ra) # 20000664 <mDelaymS>
c:\Users\seanw\mounriver-studio-projects\CH570D-power_profiling_dummy_operations\obj/../src/Main.c:90
    RTC_Init_Wakeup(5);
     b34:	4515                	li	a0,5
     b36:	3f81                	jal	a86 <RTC_Init_Wakeup>
c:\Users\seanw\mounriver-studio-projects\CH570D-power_profiling_dummy_operations\obj/../src/Main.c:91
    LowPower_Idle();
     b38:	1ffff097          	auipc	ra,0x1ffff
     b3c:	576080e7          	jalr	1398(ra) # 200000ae <LowPower_Idle>
c:\Users\seanw\mounriver-studio-projects\CH570D-power_profiling_dummy_operations\obj/../src/Main.c:92
    PRINT("Woke from IDLE.\n\n");
     b40:	00002517          	auipc	a0,0x2
     b44:	82850513          	addi	a0,a0,-2008 # 2368 <_read+0x60>
     b48:	2d9d                	jal	11be <puts>
c:\Users\seanw\mounriver-studio-projects\CH570D-power_profiling_dummy_operations\obj/../src/Main.c:93
    DelayMs(500);
     b4a:	1f400513          	li	a0,500
     b4e:	20000097          	auipc	ra,0x20000
     b52:	b16080e7          	jalr	-1258(ra) # 20000664 <mDelaymS>
c:\Users\seanw\mounriver-studio-projects\CH570D-power_profiling_dummy_operations\obj/../src/Main.c:96
    PRINT("Entering HALT mode for 5 seconds...\n");
     b56:	00002517          	auipc	a0,0x2
     b5a:	82650513          	addi	a0,a0,-2010 # 237c <_read+0x74>
     b5e:	2585                	jal	11be <puts>
c:\Users\seanw\mounriver-studio-projects\CH570D-power_profiling_dummy_operations\obj/../src/Main.c:97
    DelayMs(2);
     b60:	4509                	li	a0,2
     b62:	20000097          	auipc	ra,0x20000
     b66:	b02080e7          	jalr	-1278(ra) # 20000664 <mDelaymS>
c:\Users\seanw\mounriver-studio-projects\CH570D-power_profiling_dummy_operations\obj/../src/Main.c:98
    RTC_Init_Wakeup(5);
     b6a:	4515                	li	a0,5
     b6c:	3f29                	jal	a86 <RTC_Init_Wakeup>
c:\Users\seanw\mounriver-studio-projects\CH570D-power_profiling_dummy_operations\obj/../src/Main.c:99
    LowPower_Halt();
     b6e:	1ffff097          	auipc	ra,0x1ffff
     b72:	580080e7          	jalr	1408(ra) # 200000ee <LowPower_Halt>
c:\Users\seanw\mounriver-studio-projects\CH570D-power_profiling_dummy_operations\obj/../src/Main.c:100
    HSECFG_Current(HSE_RCur_100); // Restore HSE current to nominal after Halt wake-up
     b76:	4505                	li	a0,1
     b78:	28b1                	jal	bd4 <HSECFG_Current>
c:\Users\seanw\mounriver-studio-projects\CH570D-power_profiling_dummy_operations\obj/../src/Main.c:101
    PRINT("Woke from HALT.\n\n");
     b7a:	00002517          	auipc	a0,0x2
     b7e:	82650513          	addi	a0,a0,-2010 # 23a0 <_read+0x98>
     b82:	2d35                	jal	11be <puts>
c:\Users\seanw\mounriver-studio-projects\CH570D-power_profiling_dummy_operations\obj/../src/Main.c:102
    DelayMs(500);
     b84:	1f400513          	li	a0,500
     b88:	20000097          	auipc	ra,0x20000
     b8c:	adc080e7          	jalr	-1316(ra) # 20000664 <mDelaymS>
c:\Users\seanw\mounriver-studio-projects\CH570D-power_profiling_dummy_operations\obj/../src/Main.c:105
    PRINT("Entering SLEEP mode for 5 seconds...\n");
     b90:	00002517          	auipc	a0,0x2
     b94:	82450513          	addi	a0,a0,-2012 # 23b4 <_read+0xac>
     b98:	251d                	jal	11be <puts>
c:\Users\seanw\mounriver-studio-projects\CH570D-power_profiling_dummy_operations\obj/../src/Main.c:106
    DelayMs(2);
     b9a:	4509                	li	a0,2
     b9c:	20000097          	auipc	ra,0x20000
     ba0:	ac8080e7          	jalr	-1336(ra) # 20000664 <mDelaymS>
c:\Users\seanw\mounriver-studio-projects\CH570D-power_profiling_dummy_operations\obj/../src/Main.c:107
    RTC_Init_Wakeup(5);
     ba4:	4515                	li	a0,5
     ba6:	35c5                	jal	a86 <RTC_Init_Wakeup>
c:\Users\seanw\mounriver-studio-projects\CH570D-power_profiling_dummy_operations\obj/../src/Main.c:108
    LowPower_Sleep(RB_PWR_RAM12K | RB_PWR_EXTEND);
     ba8:	4529                	li	a0,10
     baa:	1ffff097          	auipc	ra,0x1ffff
     bae:	66c080e7          	jalr	1644(ra) # 20000216 <LowPower_Sleep>
c:\Users\seanw\mounriver-studio-projects\CH570D-power_profiling_dummy_operations\obj/../src/Main.c:109
    PRINT("Woke from SLEEP.\n\n");
     bb2:	00002517          	auipc	a0,0x2
     bb6:	82a50513          	addi	a0,a0,-2006 # 23dc <_read+0xd4>
     bba:	2511                	jal	11be <puts>
c:\Users\seanw\mounriver-studio-projects\CH570D-power_profiling_dummy_operations\obj/../src/Main.c:110
    DelayMs(500);
     bbc:	1f400513          	li	a0,500
     bc0:	20000097          	auipc	ra,0x20000
     bc4:	aa4080e7          	jalr	-1372(ra) # 20000664 <mDelaymS>
c:\Users\seanw\mounriver-studio-projects\CH570D-power_profiling_dummy_operations\obj/../src/Main.c:112
    PRINT("Profiling sequence complete.\n");
     bc8:	00002517          	auipc	a0,0x2
     bcc:	82850513          	addi	a0,a0,-2008 # 23f0 <_read+0xe8>
     bd0:	23fd                	jal	11be <puts>
c:\Users\seanw\mounriver-studio-projects\CH570D-power_profiling_dummy_operations\obj/../src/Main.c:114 (discriminator 1)
    while (1); // End of program
     bd2:	a001                	j	bd2 <main+0xf4>

00000bd4 <HSECFG_Current>:
HSECFG_Current():
c:\Users\seanw\mounriver-studio-projects\CH570D-power_profiling_dummy_operations\obj/../StdPeriphDriver/CH57x_clk.c:60
 */
void HSECFG_Current(HSECurrentTypeDef c)
{
    uint8_t x32M_c;

    x32M_c = R8_XT32M_TUNE;
     bd4:	400017b7          	lui	a5,0x40001
     bd8:	04e7c703          	lbu	a4,78(a5) # 4000104e <_eusrstack+0x1fffe04e>
c:\Users\seanw\mounriver-studio-projects\CH570D-power_profiling_dummy_operations\obj/../StdPeriphDriver/CH57x_clk.c:61
    x32M_c = (x32M_c & 0xfc) | (c & 0x03);
     bdc:	890d                	andi	a0,a0,3
c:\Users\seanw\mounriver-studio-projects\CH570D-power_profiling_dummy_operations\obj/../StdPeriphDriver/CH57x_clk.c:57
{
     bde:	1141                	addi	sp,sp,-16
c:\Users\seanw\mounriver-studio-projects\CH570D-power_profiling_dummy_operations\obj/../StdPeriphDriver/CH57x_clk.c:61
    x32M_c = (x32M_c & 0xfc) | (c & 0x03);
     be0:	0fc77713          	andi	a4,a4,252
     be4:	8f49                	or	a4,a4,a0
__risc_v_disable_irq():
c:/Users/seanw/mounriver-studio-projects/CH570D-power_profiling_dummy_operations/RVMSIS/core_riscv.h:154
    __asm volatile("csrrc %0, 0x800, %1" : \
     be6:	08800693          	li	a3,136
     bea:	8006b6f3          	csrrc	a3,0x800,a3
c:/Users/seanw/mounriver-studio-projects/CH570D-power_profiling_dummy_operations/RVMSIS/core_riscv.h:156
    return result & 0x88;
     bee:	0886f693          	andi	a3,a3,136
HSECFG_Current():
c:\Users\seanw\mounriver-studio-projects\CH570D-power_profiling_dummy_operations\obj/../StdPeriphDriver/CH57x_clk.c:63

    sys_safe_access_enable();
     bf2:	c636                	sw	a3,12(sp)
     bf4:	0000100f          	fence.i
     bf8:	05700693          	li	a3,87
     bfc:	04d78023          	sb	a3,64(a5)
     c00:	fa800693          	li	a3,-88
     c04:	04d78023          	sb	a3,64(a5)
     c08:	0000100f          	fence.i
c:\Users\seanw\mounriver-studio-projects\CH570D-power_profiling_dummy_operations\obj/../StdPeriphDriver/CH57x_clk.c:64
    R8_XT32M_TUNE = x32M_c;
     c0c:	04e78723          	sb	a4,78(a5)
c:\Users\seanw\mounriver-studio-projects\CH570D-power_profiling_dummy_operations\obj/../StdPeriphDriver/CH57x_clk.c:65
    sys_safe_access_disable();
     c10:	04078023          	sb	zero,64(a5)
     c14:	47b2                	lw	a5,12(sp)
__risc_v_enable_irq():
c:/Users/seanw/mounriver-studio-projects/CH570D-power_profiling_dummy_operations/RVMSIS/core_riscv.h:138
    __asm volatile("csrrs %0, 0x800, %1" : \
     c16:	8007a7f3          	csrrs	a5,0x800,a5
HSECFG_Current():
c:\Users\seanw\mounriver-studio-projects\CH570D-power_profiling_dummy_operations\obj/../StdPeriphDriver/CH57x_clk.c:65
     c1a:	0000100f          	fence.i
c:\Users\seanw\mounriver-studio-projects\CH570D-power_profiling_dummy_operations\obj/../StdPeriphDriver/CH57x_clk.c:66
}
     c1e:	0141                	addi	sp,sp,16
     c20:	8082                	ret

00000c22 <HSECFG_Capacitance>:
HSECFG_Capacitance():
c:\Users\seanw\mounriver-studio-projects\CH570D-power_profiling_dummy_operations\obj/../StdPeriphDriver/CH57x_clk.c:81
 */
void HSECFG_Capacitance(HSECapTypeDef c)
{
    uint8_t x32M_c;

    x32M_c = R8_XT32M_TUNE;
     c22:	40001737          	lui	a4,0x40001
     c26:	04e74783          	lbu	a5,78(a4) # 4000104e <_eusrstack+0x1fffe04e>
c:\Users\seanw\mounriver-studio-projects\CH570D-power_profiling_dummy_operations\obj/../StdPeriphDriver/CH57x_clk.c:82
    x32M_c = (x32M_c & 0x0f) | (c << 4);
     c2a:	0512                	slli	a0,a0,0x4
c:\Users\seanw\mounriver-studio-projects\CH570D-power_profiling_dummy_operations\obj/../StdPeriphDriver/CH57x_clk.c:78
{
     c2c:	1141                	addi	sp,sp,-16
c:\Users\seanw\mounriver-studio-projects\CH570D-power_profiling_dummy_operations\obj/../StdPeriphDriver/CH57x_clk.c:82
    x32M_c = (x32M_c & 0x0f) | (c << 4);
     c2e:	8bbd                	andi	a5,a5,15
     c30:	8fc9                	or	a5,a5,a0
     c32:	0ff7f793          	zext.b	a5,a5
__risc_v_disable_irq():
c:/Users/seanw/mounriver-studio-projects/CH570D-power_profiling_dummy_operations/RVMSIS/core_riscv.h:154
    __asm volatile("csrrc %0, 0x800, %1" : \
     c36:	08800693          	li	a3,136
     c3a:	8006b6f3          	csrrc	a3,0x800,a3
c:/Users/seanw/mounriver-studio-projects/CH570D-power_profiling_dummy_operations/RVMSIS/core_riscv.h:156
    return result & 0x88;
     c3e:	0886f693          	andi	a3,a3,136
HSECFG_Capacitance():
c:\Users\seanw\mounriver-studio-projects\CH570D-power_profiling_dummy_operations\obj/../StdPeriphDriver/CH57x_clk.c:84

    sys_safe_access_enable();
     c42:	c636                	sw	a3,12(sp)
     c44:	0000100f          	fence.i
     c48:	05700693          	li	a3,87
     c4c:	04d70023          	sb	a3,64(a4)
     c50:	fa800693          	li	a3,-88
     c54:	04d70023          	sb	a3,64(a4)
     c58:	0000100f          	fence.i
c:\Users\seanw\mounriver-studio-projects\CH570D-power_profiling_dummy_operations\obj/../StdPeriphDriver/CH57x_clk.c:85
    R8_XT32M_TUNE = x32M_c;
     c5c:	04f70723          	sb	a5,78(a4)
c:\Users\seanw\mounriver-studio-projects\CH570D-power_profiling_dummy_operations\obj/../StdPeriphDriver/CH57x_clk.c:86
    sys_safe_access_disable();
     c60:	04070023          	sb	zero,64(a4)
     c64:	47b2                	lw	a5,12(sp)
__risc_v_enable_irq():
c:/Users/seanw/mounriver-studio-projects/CH570D-power_profiling_dummy_operations/RVMSIS/core_riscv.h:138
    __asm volatile("csrrs %0, 0x800, %1" : \
     c66:	8007a7f3          	csrrs	a5,0x800,a5
HSECFG_Capacitance():
c:\Users\seanw\mounriver-studio-projects\CH570D-power_profiling_dummy_operations\obj/../StdPeriphDriver/CH57x_clk.c:86
     c6a:	0000100f          	fence.i
c:\Users\seanw\mounriver-studio-projects\CH570D-power_profiling_dummy_operations\obj/../StdPeriphDriver/CH57x_clk.c:87
}
     c6e:	0141                	addi	sp,sp,16
     c70:	8082                	ret

00000c72 <RTC_GetITFlag>:
RTC_GetITFlag():
c:\Users\seanw\mounriver-studio-projects\CH570D-power_profiling_dummy_operations\obj/../StdPeriphDriver/CH57x_clk.c:443
 */
uint8_t RTC_GetITFlag(RTC_EVENTTypeDef f)
{
    if(f == RTC_TRIG_EVENT)
    {
        return (R8_RTC_FLAG_CTRL & RB_RTC_TRIG_FLAG);
     c72:	400017b7          	lui	a5,0x40001
c:\Users\seanw\mounriver-studio-projects\CH570D-power_profiling_dummy_operations\obj/../StdPeriphDriver/CH57x_clk.c:441
    if(f == RTC_TRIG_EVENT)
     c76:	e511                	bnez	a0,c82 <RTC_GetITFlag+0x10>
c:\Users\seanw\mounriver-studio-projects\CH570D-power_profiling_dummy_operations\obj/../StdPeriphDriver/CH57x_clk.c:443
        return (R8_RTC_FLAG_CTRL & RB_RTC_TRIG_FLAG);
     c78:	0307c503          	lbu	a0,48(a5) # 40001030 <_eusrstack+0x1fffe030>
     c7c:	08057513          	andi	a0,a0,128
     c80:	8082                	ret
c:\Users\seanw\mounriver-studio-projects\CH570D-power_profiling_dummy_operations\obj/../StdPeriphDriver/CH57x_clk.c:447
    }
    else
    {
        return (R8_RTC_FLAG_CTRL & RB_RTC_TMR_FLAG);
     c82:	0307c503          	lbu	a0,48(a5)
     c86:	04057513          	andi	a0,a0,64
c:\Users\seanw\mounriver-studio-projects\CH570D-power_profiling_dummy_operations\obj/../StdPeriphDriver/CH57x_clk.c:449
    }
}
     c8a:	8082                	ret

00000c8c <RTC_ClearITFlag>:
RTC_ClearITFlag():
c:\Users\seanw\mounriver-studio-projects\CH570D-power_profiling_dummy_operations\obj/../StdPeriphDriver/CH57x_clk.c:462
 *
 * @return  none
 */
void RTC_ClearITFlag(RTC_EVENTTypeDef f)
{
    switch(f)
     c8c:	c509                	beqz	a0,c96 <RTC_ClearITFlag+0xa>
     c8e:	4785                	li	a5,1
     c90:	00f50a63          	beq	a0,a5,ca4 <RTC_ClearITFlag+0x18>
     c94:	8082                	ret
c:\Users\seanw\mounriver-studio-projects\CH570D-power_profiling_dummy_operations\obj/../StdPeriphDriver/CH57x_clk.c:465
    {
        case RTC_TRIG_EVENT:
            R8_RTC_FLAG_CTRL = RB_RTC_TRIG_CLR;
     c96:	400017b7          	lui	a5,0x40001
     c9a:	02000713          	li	a4,32
c:\Users\seanw\mounriver-studio-projects\CH570D-power_profiling_dummy_operations\obj/../StdPeriphDriver/CH57x_clk.c:468
            break;
        case RTC_TMR_EVENT:
            R8_RTC_FLAG_CTRL = RB_RTC_TMR_CLR;
     c9e:	02e78823          	sb	a4,48(a5) # 40001030 <_eusrstack+0x1fffe030>
c:\Users\seanw\mounriver-studio-projects\CH570D-power_profiling_dummy_operations\obj/../StdPeriphDriver/CH57x_clk.c:473
            break;
        default:
            break;
    }
}
     ca2:	8082                	ret
c:\Users\seanw\mounriver-studio-projects\CH570D-power_profiling_dummy_operations\obj/../StdPeriphDriver/CH57x_clk.c:468
            R8_RTC_FLAG_CTRL = RB_RTC_TMR_CLR;
     ca4:	400017b7          	lui	a5,0x40001
     ca8:	4741                	li	a4,16
     caa:	bfd5                	j	c9e <RTC_ClearITFlag+0x12>

00000cac <GPIOA_ModeCfg>:
GPIOA_ModeCfg():
c:\Users\seanw\mounriver-studio-projects\CH570D-power_profiling_dummy_operations\obj/../StdPeriphDriver/CH57x_gpio.c:27
 *
 * @return  none
 */
void GPIOA_ModeCfg(uint32_t pin, GPIOModeTypeDef mode)
{
    switch(mode)
     cac:	4791                	li	a5,4
     cae:	04b7ec63          	bltu	a5,a1,d06 <GPIOA_ModeCfg+0x5a>
     cb2:	00001797          	auipc	a5,0x1
     cb6:	75e78793          	addi	a5,a5,1886 # 2410 <_read+0x108>
     cba:	20f5c5b3          	sh2add	a1,a1,a5
     cbe:	4198                	lw	a4,0(a1)
     cc0:	973e                	add	a4,a4,a5
     cc2:	400017b7          	lui	a5,0x40001
     cc6:	0b478793          	addi	a5,a5,180 # 400010b4 <_eusrstack+0x1fffe0b4>
     cca:	8702                	jr	a4
c:\Users\seanw\mounriver-studio-projects\CH570D-power_profiling_dummy_operations\obj/../StdPeriphDriver/CH57x_gpio.c:30
    {
        case GPIO_ModeIN_Floating:
            R32_PA_PD_DRV &= ~pin;
     ccc:	4394                	lw	a3,0(a5)
     cce:	40001737          	lui	a4,0x40001
     cd2:	40a6f6b3          	andn	a3,a3,a0
c:\Users\seanw\mounriver-studio-projects\CH570D-power_profiling_dummy_operations\obj/../StdPeriphDriver/CH57x_gpio.c:42
            R32_PA_PU |= pin;
            R32_PA_DIR &= ~pin;
            break;

        case GPIO_ModeIN_PD:
            R32_PA_PD_DRV |= pin;
     cd6:	c394                	sw	a3,0(a5)
c:\Users\seanw\mounriver-studio-projects\CH570D-power_profiling_dummy_operations\obj/../StdPeriphDriver/CH57x_gpio.c:43
            R32_PA_PU &= ~pin;
     cd8:	0b070693          	addi	a3,a4,176 # 400010b0 <_eusrstack+0x1fffe0b0>
     cdc:	429c                	lw	a5,0(a3)
     cde:	40a7f7b3          	andn	a5,a5,a0
     ce2:	a819                	j	cf8 <GPIOA_ModeCfg+0x4c>
c:\Users\seanw\mounriver-studio-projects\CH570D-power_profiling_dummy_operations\obj/../StdPeriphDriver/CH57x_gpio.c:36
            R32_PA_PD_DRV &= ~pin;
     ce4:	4394                	lw	a3,0(a5)
     ce6:	40001737          	lui	a4,0x40001
     cea:	40a6f6b3          	andn	a3,a3,a0
     cee:	c394                	sw	a3,0(a5)
c:\Users\seanw\mounriver-studio-projects\CH570D-power_profiling_dummy_operations\obj/../StdPeriphDriver/CH57x_gpio.c:37
            R32_PA_PU |= pin;
     cf0:	0b070693          	addi	a3,a4,176 # 400010b0 <_eusrstack+0x1fffe0b0>
     cf4:	429c                	lw	a5,0(a3)
     cf6:	8fc9                	or	a5,a5,a0
c:\Users\seanw\mounriver-studio-projects\CH570D-power_profiling_dummy_operations\obj/../StdPeriphDriver/CH57x_gpio.c:43
            R32_PA_PU &= ~pin;
     cf8:	c29c                	sw	a5,0(a3)
c:\Users\seanw\mounriver-studio-projects\CH570D-power_profiling_dummy_operations\obj/../StdPeriphDriver/CH57x_gpio.c:44
            R32_PA_DIR &= ~pin;
     cfa:	0a070793          	addi	a5,a4,160
     cfe:	4398                	lw	a4,0(a5)
     d00:	40a77733          	andn	a4,a4,a0
c:\Users\seanw\mounriver-studio-projects\CH570D-power_profiling_dummy_operations\obj/../StdPeriphDriver/CH57x_gpio.c:54
            R32_PA_DIR |= pin;
            break;

        case GPIO_ModeOut_PP_20mA:
            R32_PA_PD_DRV |= pin;
            R32_PA_DIR |= pin;
     d04:	c398                	sw	a4,0(a5)
c:\Users\seanw\mounriver-studio-projects\CH570D-power_profiling_dummy_operations\obj/../StdPeriphDriver/CH57x_gpio.c:60
            break;

        default:
            break;
    }
}
     d06:	8082                	ret
c:\Users\seanw\mounriver-studio-projects\CH570D-power_profiling_dummy_operations\obj/../StdPeriphDriver/CH57x_gpio.c:42
            R32_PA_PD_DRV |= pin;
     d08:	4394                	lw	a3,0(a5)
     d0a:	40001737          	lui	a4,0x40001
     d0e:	8ec9                	or	a3,a3,a0
     d10:	b7d9                	j	cd6 <GPIOA_ModeCfg+0x2a>
c:\Users\seanw\mounriver-studio-projects\CH570D-power_profiling_dummy_operations\obj/../StdPeriphDriver/CH57x_gpio.c:48
            R32_PA_PD_DRV &= ~pin;
     d12:	4398                	lw	a4,0(a5)
     d14:	40a77733          	andn	a4,a4,a0
c:\Users\seanw\mounriver-studio-projects\CH570D-power_profiling_dummy_operations\obj/../StdPeriphDriver/CH57x_gpio.c:53
            R32_PA_PD_DRV |= pin;
     d18:	c398                	sw	a4,0(a5)
c:\Users\seanw\mounriver-studio-projects\CH570D-power_profiling_dummy_operations\obj/../StdPeriphDriver/CH57x_gpio.c:54
            R32_PA_DIR |= pin;
     d1a:	400017b7          	lui	a5,0x40001
     d1e:	0a078793          	addi	a5,a5,160 # 400010a0 <_eusrstack+0x1fffe0a0>
     d22:	4398                	lw	a4,0(a5)
     d24:	8f49                	or	a4,a4,a0
     d26:	bff9                	j	d04 <GPIOA_ModeCfg+0x58>
c:\Users\seanw\mounriver-studio-projects\CH570D-power_profiling_dummy_operations\obj/../StdPeriphDriver/CH57x_gpio.c:53
            R32_PA_PD_DRV |= pin;
     d28:	4398                	lw	a4,0(a5)
     d2a:	8f49                	or	a4,a4,a0
     d2c:	b7f5                	j	d18 <GPIOA_ModeCfg+0x6c>

00000d2e <PWR_PeriphWakeUpCfg>:
PWR_PeriphWakeUpCfg():
c:\Users\seanw\mounriver-studio-projects\CH570D-power_profiling_dummy_operations\obj/../StdPeriphDriver/CH57x_pwr.c:61
{
     d2e:	1141                	addi	sp,sp,-16
c:\Users\seanw\mounriver-studio-projects\CH570D-power_profiling_dummy_operations\obj/../StdPeriphDriver/CH57x_pwr.c:62
    if(s == DISABLE)
     d30:	e139                	bnez	a0,d76 <PWR_PeriphWakeUpCfg+0x48>
__risc_v_disable_irq():
c:/Users/seanw/mounriver-studio-projects/CH570D-power_profiling_dummy_operations/RVMSIS/core_riscv.h:154
    __asm volatile("csrrc %0, 0x800, %1" : \
     d32:	08800793          	li	a5,136
     d36:	8007b7f3          	csrrc	a5,0x800,a5
c:/Users/seanw/mounriver-studio-projects/CH570D-power_profiling_dummy_operations/RVMSIS/core_riscv.h:156
    return result & 0x88;
     d3a:	0887f793          	andi	a5,a5,136
PWR_PeriphWakeUpCfg():
c:\Users\seanw\mounriver-studio-projects\CH570D-power_profiling_dummy_operations\obj/../StdPeriphDriver/CH57x_pwr.c:64
        sys_safe_access_enable();
     d3e:	c03e                	sw	a5,0(sp)
     d40:	0000100f          	fence.i
     d44:	400017b7          	lui	a5,0x40001
     d48:	05700713          	li	a4,87
     d4c:	04e78023          	sb	a4,64(a5) # 40001040 <_eusrstack+0x1fffe040>
     d50:	fa800713          	li	a4,-88
     d54:	04e78023          	sb	a4,64(a5)
     d58:	0000100f          	fence.i
c:\Users\seanw\mounriver-studio-projects\CH570D-power_profiling_dummy_operations\obj/../StdPeriphDriver/CH57x_pwr.c:65
        R8_SLP_WAKE_CTRL &= ~perph;
     d5c:	27f8                	lbu	a4,14(a5)
     d5e:	40b775b3          	andn	a1,a4,a1
     d62:	a7ec                	sb	a1,14(a5)
c:\Users\seanw\mounriver-studio-projects\CH570D-power_profiling_dummy_operations\obj/../StdPeriphDriver/CH57x_pwr.c:66
        sys_safe_access_disable();
     d64:	04078023          	sb	zero,64(a5)
     d68:	4782                	lw	a5,0(sp)
__risc_v_enable_irq():
c:/Users/seanw/mounriver-studio-projects/CH570D-power_profiling_dummy_operations/RVMSIS/core_riscv.h:138
    __asm volatile("csrrs %0, 0x800, %1" : \
     d6a:	8007a7f3          	csrrs	a5,0x800,a5
PWR_PeriphWakeUpCfg():
c:\Users\seanw\mounriver-studio-projects\CH570D-power_profiling_dummy_operations\obj/../StdPeriphDriver/CH57x_pwr.c:78
        sys_safe_access_disable();
     d6e:	0000100f          	fence.i
c:\Users\seanw\mounriver-studio-projects\CH570D-power_profiling_dummy_operations\obj/../StdPeriphDriver/CH57x_pwr.c:80
}
     d72:	0141                	addi	sp,sp,16
     d74:	8082                	ret
__risc_v_disable_irq():
c:/Users/seanw/mounriver-studio-projects/CH570D-power_profiling_dummy_operations/RVMSIS/core_riscv.h:154
    __asm volatile("csrrc %0, 0x800, %1" : \
     d76:	08800713          	li	a4,136
     d7a:	800737f3          	csrrc	a5,0x800,a4
c:/Users/seanw/mounriver-studio-projects/CH570D-power_profiling_dummy_operations/RVMSIS/core_riscv.h:156
    return result & 0x88;
     d7e:	0887f793          	andi	a5,a5,136
PWR_PeriphWakeUpCfg():
c:\Users\seanw\mounriver-studio-projects\CH570D-power_profiling_dummy_operations\obj/../StdPeriphDriver/CH57x_pwr.c:70
        sys_safe_access_enable();
     d82:	c23e                	sw	a5,4(sp)
     d84:	0000100f          	fence.i
     d88:	400017b7          	lui	a5,0x40001
     d8c:	05700813          	li	a6,87
     d90:	05078023          	sb	a6,64(a5) # 40001040 <_eusrstack+0x1fffe040>
     d94:	fa800513          	li	a0,-88
     d98:	04a78023          	sb	a0,64(a5)
     d9c:	0000100f          	fence.i
c:\Users\seanw\mounriver-studio-projects\CH570D-power_profiling_dummy_operations\obj/../StdPeriphDriver/CH57x_pwr.c:71
        R8_SLP_WAKE_CTRL |= RB_WAKE_EV_MODE | perph;
     da0:	27f4                	lbu	a3,14(a5)
     da2:	8ecd                	or	a3,a3,a1
     da4:	0406e693          	ori	a3,a3,64
     da8:	a7f4                	sb	a3,14(a5)
c:\Users\seanw\mounriver-studio-projects\CH570D-power_profiling_dummy_operations\obj/../StdPeriphDriver/CH57x_pwr.c:72
        sys_safe_access_disable();
     daa:	04078023          	sb	zero,64(a5)
     dae:	4692                	lw	a3,4(sp)
__risc_v_enable_irq():
c:/Users/seanw/mounriver-studio-projects/CH570D-power_profiling_dummy_operations/RVMSIS/core_riscv.h:138
    __asm volatile("csrrs %0, 0x800, %1" : \
     db0:	8006a6f3          	csrrs	a3,0x800,a3
PWR_PeriphWakeUpCfg():
c:\Users\seanw\mounriver-studio-projects\CH570D-power_profiling_dummy_operations\obj/../StdPeriphDriver/CH57x_pwr.c:72
     db4:	0000100f          	fence.i
__risc_v_disable_irq():
c:/Users/seanw/mounriver-studio-projects/CH570D-power_profiling_dummy_operations/RVMSIS/core_riscv.h:154
    __asm volatile("csrrc %0, 0x800, %1" : \
     db8:	800736f3          	csrrc	a3,0x800,a4
c:/Users/seanw/mounriver-studio-projects/CH570D-power_profiling_dummy_operations/RVMSIS/core_riscv.h:156
    return result & 0x88;
     dbc:	0886f693          	andi	a3,a3,136
PWR_PeriphWakeUpCfg():
c:\Users\seanw\mounriver-studio-projects\CH570D-power_profiling_dummy_operations\obj/../StdPeriphDriver/CH57x_pwr.c:73
        sys_safe_access_enable();
     dc0:	c436                	sw	a3,8(sp)
     dc2:	0000100f          	fence.i
     dc6:	05078023          	sb	a6,64(a5)
     dca:	04a78023          	sb	a0,64(a5)
     dce:	0000100f          	fence.i
c:\Users\seanw\mounriver-studio-projects\CH570D-power_profiling_dummy_operations\obj/../StdPeriphDriver/CH57x_pwr.c:74
        R8_SLP_POWER_CTRL &= ~(RB_WAKE_DLY_MOD);
     dd2:	37f4                	lbu	a3,15(a5)
     dd4:	0f86f693          	andi	a3,a3,248
     dd8:	b7f4                	sb	a3,15(a5)
c:\Users\seanw\mounriver-studio-projects\CH570D-power_profiling_dummy_operations\obj/../StdPeriphDriver/CH57x_pwr.c:75
        sys_safe_access_disable();
     dda:	04078023          	sb	zero,64(a5)
     dde:	46a2                	lw	a3,8(sp)
__risc_v_enable_irq():
c:/Users/seanw/mounriver-studio-projects/CH570D-power_profiling_dummy_operations/RVMSIS/core_riscv.h:138
    __asm volatile("csrrs %0, 0x800, %1" : \
     de0:	8006a6f3          	csrrs	a3,0x800,a3
PWR_PeriphWakeUpCfg():
c:\Users\seanw\mounriver-studio-projects\CH570D-power_profiling_dummy_operations\obj/../StdPeriphDriver/CH57x_pwr.c:75
     de4:	0000100f          	fence.i
__risc_v_disable_irq():
c:/Users/seanw/mounriver-studio-projects/CH570D-power_profiling_dummy_operations/RVMSIS/core_riscv.h:154
    __asm volatile("csrrc %0, 0x800, %1" : \
     de8:	80073773          	csrrc	a4,0x800,a4
c:/Users/seanw/mounriver-studio-projects/CH570D-power_profiling_dummy_operations/RVMSIS/core_riscv.h:156
    return result & 0x88;
     dec:	08877713          	andi	a4,a4,136
PWR_PeriphWakeUpCfg():
c:\Users\seanw\mounriver-studio-projects\CH570D-power_profiling_dummy_operations\obj/../StdPeriphDriver/CH57x_pwr.c:76
        sys_safe_access_enable();
     df0:	c63a                	sw	a4,12(sp)
     df2:	0000100f          	fence.i
     df6:	05078023          	sb	a6,64(a5)
     dfa:	04a78023          	sb	a0,64(a5)
     dfe:	0000100f          	fence.i
c:\Users\seanw\mounriver-studio-projects\CH570D-power_profiling_dummy_operations\obj/../StdPeriphDriver/CH57x_pwr.c:77
        R8_SLP_POWER_CTRL |= mode;
     e02:	37f8                	lbu	a4,15(a5)
     e04:	8e59                	or	a2,a2,a4
     e06:	0ff67613          	zext.b	a2,a2
     e0a:	b7f0                	sb	a2,15(a5)
c:\Users\seanw\mounriver-studio-projects\CH570D-power_profiling_dummy_operations\obj/../StdPeriphDriver/CH57x_pwr.c:78
        sys_safe_access_disable();
     e0c:	04078023          	sb	zero,64(a5)
     e10:	47b2                	lw	a5,12(sp)
     e12:	bfa1                	j	d6a <PWR_PeriphWakeUpCfg+0x3c>

00000e14 <GetSysClock>:
GetSysClock():
c:\Users\seanw\mounriver-studio-projects\CH570D-power_profiling_dummy_operations\obj/../StdPeriphDriver/CH57x_sys.c:101
    if((R8_CLK_SYS_CFG & RB_CLK_SYS_MOD) == RB_CLK_SYS_MOD)
     e14:	400017b7          	lui	a5,0x40001
     e18:	2798                	lbu	a4,8(a5)
     e1a:	0c000693          	li	a3,192
     e1e:	0c077713          	andi	a4,a4,192
     e22:	00d71563          	bne	a4,a3,e2c <GetSysClock+0x18>
c:\Users\seanw\mounriver-studio-projects\CH570D-power_profiling_dummy_operations\obj/../StdPeriphDriver/CH57x_sys.c:103
        return (Freq_LSI);
     e26:	80c1a503          	lw	a0,-2036(gp) # 20000a04 <Freq_LSI>
     e2a:	8082                	ret
c:\Users\seanw\mounriver-studio-projects\CH570D-power_profiling_dummy_operations\obj/../StdPeriphDriver/CH57x_sys.c:105
    else if((R8_CLK_SYS_CFG & RB_CLK_SYS_MOD) == 0x40)
     e2c:	2798                	lbu	a4,8(a5)
     e2e:	04000693          	li	a3,64
     e32:	0c077713          	andi	a4,a4,192
     e36:	02d71063          	bne	a4,a3,e56 <GetSysClock+0x42>
c:\Users\seanw\mounriver-studio-projects\CH570D-power_profiling_dummy_operations\obj/../StdPeriphDriver/CH57x_sys.c:107
        return (600000000 / ((R8_CLK_SYS_CFG & 0x1f)?(R8_CLK_SYS_CFG & 0x1f):32));
     e3a:	2794                	lbu	a3,8(a5)
     e3c:	02000713          	li	a4,32
     e40:	8afd                	andi	a3,a3,31
     e42:	c299                	beqz	a3,e48 <GetSysClock+0x34>
c:\Users\seanw\mounriver-studio-projects\CH570D-power_profiling_dummy_operations\obj/../StdPeriphDriver/CH57x_sys.c:107 (discriminator 1)
     e44:	2798                	lbu	a4,8(a5)
     e46:	8b7d                	andi	a4,a4,31
c:\Users\seanw\mounriver-studio-projects\CH570D-power_profiling_dummy_operations\obj/../StdPeriphDriver/CH57x_sys.c:107 (discriminator 4)
     e48:	23c34537          	lui	a0,0x23c34
     e4c:	60050513          	addi	a0,a0,1536 # 23c34600 <_eusrstack+0x3c31600>
c:\Users\seanw\mounriver-studio-projects\CH570D-power_profiling_dummy_operations\obj/../StdPeriphDriver/CH57x_sys.c:111 (discriminator 4)
        return (32000000 / ((R8_CLK_SYS_CFG & 0x1f)?(R8_CLK_SYS_CFG & 0x1f):32));
     e50:	02e54533          	div	a0,a0,a4
c:\Users\seanw\mounriver-studio-projects\CH570D-power_profiling_dummy_operations\obj/../StdPeriphDriver/CH57x_sys.c:113 (discriminator 4)
}
     e54:	8082                	ret
c:\Users\seanw\mounriver-studio-projects\CH570D-power_profiling_dummy_operations\obj/../StdPeriphDriver/CH57x_sys.c:111
        return (32000000 / ((R8_CLK_SYS_CFG & 0x1f)?(R8_CLK_SYS_CFG & 0x1f):32));
     e56:	2794                	lbu	a3,8(a5)
     e58:	02000713          	li	a4,32
     e5c:	8afd                	andi	a3,a3,31
     e5e:	c299                	beqz	a3,e64 <GetSysClock+0x50>
c:\Users\seanw\mounriver-studio-projects\CH570D-power_profiling_dummy_operations\obj/../StdPeriphDriver/CH57x_sys.c:111 (discriminator 1)
     e60:	2798                	lbu	a4,8(a5)
     e62:	8b7d                	andi	a4,a4,31
c:\Users\seanw\mounriver-studio-projects\CH570D-power_profiling_dummy_operations\obj/../StdPeriphDriver/CH57x_sys.c:111 (discriminator 4)
     e64:	01e85537          	lui	a0,0x1e85
     e68:	80050513          	addi	a0,a0,-2048 # 1e84800 <_data_lma+0x1e822e4>
     e6c:	b7d5                	j	e50 <GetSysClock+0x3c>

00000e6e <_write>:
_write():
c:\Users\seanw\mounriver-studio-projects\CH570D-power_profiling_dummy_operations\obj/../StdPeriphDriver/CH57x_sys.c:376

#ifdef DEBUG
int _write(int fd, char *buf, int size)
{
     e6e:	8532                	mv	a0,a2
c:\Users\seanw\mounriver-studio-projects\CH570D-power_profiling_dummy_operations\obj/../StdPeriphDriver/CH57x_sys.c:378
    int i;
    for(i = 0; i < size; i++)
     e70:	4781                	li	a5,0
c:\Users\seanw\mounriver-studio-projects\CH570D-power_profiling_dummy_operations\obj/../StdPeriphDriver/CH57x_sys.c:380
    {
        while(R8_UART_TFC == UART_FIFO_SIZE);                  /* 等待数据发送 */
     e72:	40003737          	lui	a4,0x40003
     e76:	46a1                	li	a3,8
c:\Users\seanw\mounriver-studio-projects\CH570D-power_profiling_dummy_operations\obj/../StdPeriphDriver/CH57x_sys.c:378 (discriminator 1)
    for(i = 0; i < size; i++)
     e78:	00a7c363          	blt	a5,a0,e7e <_write+0x10>
c:\Users\seanw\mounriver-studio-projects\CH570D-power_profiling_dummy_operations\obj/../StdPeriphDriver/CH57x_sys.c:384
            R8_UART_THR = *buf++; /* 发送数据 */
    }
    return size;
}
     e7c:	8082                	ret
c:\Users\seanw\mounriver-studio-projects\CH570D-power_profiling_dummy_operations\obj/../StdPeriphDriver/CH57x_sys.c:380 (discriminator 1)
        while(R8_UART_TFC == UART_FIFO_SIZE);                  /* 等待数据发送 */
     e7e:	40b74603          	lbu	a2,1035(a4) # 4000340b <_eusrstack+0x2000040b>
     e82:	fed60ee3          	beq	a2,a3,e7e <_write+0x10>
c:\Users\seanw\mounriver-studio-projects\CH570D-power_profiling_dummy_operations\obj/../StdPeriphDriver/CH57x_sys.c:381 (discriminator 2)
            R8_UART_THR = *buf++; /* 发送数据 */
     e86:	00f58633          	add	a2,a1,a5
     e8a:	2210                	lbu	a2,0(a2)
c:\Users\seanw\mounriver-studio-projects\CH570D-power_profiling_dummy_operations\obj/../StdPeriphDriver/CH57x_sys.c:378 (discriminator 2)
    for(i = 0; i < size; i++)
     e8c:	0785                	addi	a5,a5,1 # 40001001 <_eusrstack+0x1fffe001>
c:\Users\seanw\mounriver-studio-projects\CH570D-power_profiling_dummy_operations\obj/../StdPeriphDriver/CH57x_sys.c:381 (discriminator 2)
            R8_UART_THR = *buf++; /* 发送数据 */
     e8e:	40c70423          	sb	a2,1032(a4)
c:\Users\seanw\mounriver-studio-projects\CH570D-power_profiling_dummy_operations\obj/../StdPeriphDriver/CH57x_sys.c:378 (discriminator 2)
    for(i = 0; i < size; i++)
     e92:	b7dd                	j	e78 <_write+0xa>

00000e94 <_sbrk>:
_sbrk():
c:\Users\seanw\mounriver-studio-projects\CH570D-power_profiling_dummy_operations\obj/../StdPeriphDriver/CH57x_sys.c:401
void *_sbrk(ptrdiff_t incr)
{
    extern char _end[];
    static char *curbrk = _end;

    if ((curbrk + incr < _end) || ((uint32_t)curbrk + incr > (__get_SP() - 64)))
     e94:	20000697          	auipc	a3,0x20000
     e98:	b6468693          	addi	a3,a3,-1180 # 200009f8 <curbrk.0>
c:\Users\seanw\mounriver-studio-projects\CH570D-power_profiling_dummy_operations\obj/../StdPeriphDriver/CH57x_sys.c:397
{
     e9c:	87aa                	mv	a5,a0
c:\Users\seanw\mounriver-studio-projects\CH570D-power_profiling_dummy_operations\obj/../StdPeriphDriver/CH57x_sys.c:401
    if ((curbrk + incr < _end) || ((uint32_t)curbrk + incr > (__get_SP() - 64)))
     e9e:	4288                	lw	a0,0(a3)
     ea0:	82818713          	addi	a4,gp,-2008 # 20000a20 <_ebss>
     ea4:	97aa                	add	a5,a5,a0
     ea6:	00e7e963          	bltu	a5,a4,eb8 <_sbrk+0x24>
__get_SP():
c:/Users/seanw/mounriver-studio-projects/CH570D-power_profiling_dummy_operations/RVMSIS/core_riscv.h:630 (discriminator 1)
 */
__attribute__((always_inline)) RV_STATIC_INLINE uint32_t __get_SP(void)
{
    uint32_t result;

    __ASM volatile("mv %0," "sp" : "=r"(result) :);
     eaa:	870a                	mv	a4,sp
_sbrk():
c:\Users\seanw\mounriver-studio-projects\CH570D-power_profiling_dummy_operations\obj/../StdPeriphDriver/CH57x_sys.c:401 (discriminator 1)
     eac:	fc070713          	addi	a4,a4,-64
     eb0:	00f76463          	bltu	a4,a5,eb8 <_sbrk+0x24>
c:\Users\seanw\mounriver-studio-projects\CH570D-power_profiling_dummy_operations\obj/../StdPeriphDriver/CH57x_sys.c:404
    return NULL - 1;

    curbrk += incr;
     eb4:	c29c                	sw	a5,0(a3)
c:\Users\seanw\mounriver-studio-projects\CH570D-power_profiling_dummy_operations\obj/../StdPeriphDriver/CH57x_sys.c:405
    return curbrk - incr;
     eb6:	8082                	ret
c:\Users\seanw\mounriver-studio-projects\CH570D-power_profiling_dummy_operations\obj/../StdPeriphDriver/CH57x_sys.c:402
    return NULL - 1;
     eb8:	557d                	li	a0,-1
c:\Users\seanw\mounriver-studio-projects\CH570D-power_profiling_dummy_operations\obj/../StdPeriphDriver/CH57x_sys.c:406
}
     eba:	8082                	ret

00000ebc <UART_BaudRateCfg>:
UART_BaudRateCfg():
c:\Users\seanw\mounriver-studio-projects\CH570D-power_profiling_dummy_operations\obj/../StdPeriphDriver/CH57x_uart.c:43
 * @param   baudrate    - 波特率
 *
 * @return  none
 */
void UART_BaudRateCfg(uint32_t baudrate)
{
     ebc:	1141                	addi	sp,sp,-16
     ebe:	c422                	sw	s0,8(sp)
     ec0:	c606                	sw	ra,12(sp)
     ec2:	842a                	mv	s0,a0
c:\Users\seanw\mounriver-studio-projects\CH570D-power_profiling_dummy_operations\obj/../StdPeriphDriver/CH57x_uart.c:46
    uint32_t x;

    x = 10 * GetSysClock() / 8 / baudrate;
     ec4:	3f81                	jal	e14 <GetSysClock>
     ec6:	4729                	li	a4,10
     ec8:	02e507b3          	mul	a5,a0,a4
c:\Users\seanw\mounriver-studio-projects\CH570D-power_profiling_dummy_operations\obj/../StdPeriphDriver/CH57x_uart.c:49
    x = (x + 5) / 10;
    R16_UART_DL = (uint16_t)x;
}
     ecc:	40b2                	lw	ra,12(sp)
c:\Users\seanw\mounriver-studio-projects\CH570D-power_profiling_dummy_operations\obj/../StdPeriphDriver/CH57x_uart.c:46
    x = 10 * GetSysClock() / 8 / baudrate;
     ece:	838d                	srli	a5,a5,0x3
     ed0:	0287d7b3          	divu	a5,a5,s0
c:\Users\seanw\mounriver-studio-projects\CH570D-power_profiling_dummy_operations\obj/../StdPeriphDriver/CH57x_uart.c:49
}
     ed4:	4422                	lw	s0,8(sp)
c:\Users\seanw\mounriver-studio-projects\CH570D-power_profiling_dummy_operations\obj/../StdPeriphDriver/CH57x_uart.c:47
    x = (x + 5) / 10;
     ed6:	0795                	addi	a5,a5,5
     ed8:	02e7d7b3          	divu	a5,a5,a4
c:\Users\seanw\mounriver-studio-projects\CH570D-power_profiling_dummy_operations\obj/../StdPeriphDriver/CH57x_uart.c:48
    R16_UART_DL = (uint16_t)x;
     edc:	40003737          	lui	a4,0x40003
     ee0:	0807c7b3          	zext.h	a5,a5
     ee4:	40f71623          	sh	a5,1036(a4) # 4000340c <_eusrstack+0x2000040c>
c:\Users\seanw\mounriver-studio-projects\CH570D-power_profiling_dummy_operations\obj/../StdPeriphDriver/CH57x_uart.c:49
}
     ee8:	0141                	addi	sp,sp,16
     eea:	8082                	ret

00000eec <UART_DefInit>:
UART_DefInit():
c:\Users\seanw\mounriver-studio-projects\CH570D-power_profiling_dummy_operations\obj/../StdPeriphDriver/CH57x_uart.c:26
    UART_BaudRateCfg(115200);
     eec:	6571                	lui	a0,0x1c
c:\Users\seanw\mounriver-studio-projects\CH570D-power_profiling_dummy_operations\obj/../StdPeriphDriver/CH57x_uart.c:25
{
     eee:	1141                	addi	sp,sp,-16
c:\Users\seanw\mounriver-studio-projects\CH570D-power_profiling_dummy_operations\obj/../StdPeriphDriver/CH57x_uart.c:26
    UART_BaudRateCfg(115200);
     ef0:	20050513          	addi	a0,a0,512 # 1c200 <_data_lma+0x19ce4>
c:\Users\seanw\mounriver-studio-projects\CH570D-power_profiling_dummy_operations\obj/../StdPeriphDriver/CH57x_uart.c:25
{
     ef4:	c606                	sw	ra,12(sp)
c:\Users\seanw\mounriver-studio-projects\CH570D-power_profiling_dummy_operations\obj/../StdPeriphDriver/CH57x_uart.c:26
    UART_BaudRateCfg(115200);
     ef6:	37d9                	jal	ebc <UART_BaudRateCfg>
c:\Users\seanw\mounriver-studio-projects\CH570D-power_profiling_dummy_operations\obj/../StdPeriphDriver/CH57x_uart.c:27
    R8_UART_FCR = (2 << 6) | RB_FCR_FIFO_EN; // FIFO打开，触发点4字节
     ef8:	400037b7          	lui	a5,0x40003
     efc:	f8100713          	li	a4,-127
     f00:	40e78123          	sb	a4,1026(a5) # 40003402 <_eusrstack+0x20000402>
c:\Users\seanw\mounriver-studio-projects\CH570D-power_profiling_dummy_operations\obj/../StdPeriphDriver/CH57x_uart.c:28
    R8_UART_LCR = RB_LCR_WORD_SZ;
     f04:	470d                	li	a4,3
     f06:	40e781a3          	sb	a4,1027(a5)
c:\Users\seanw\mounriver-studio-projects\CH570D-power_profiling_dummy_operations\obj/../StdPeriphDriver/CH57x_uart.c:29
    R8_UART_IER = RB_IER_TXD_EN;
     f0a:	04000713          	li	a4,64
     f0e:	40e780a3          	sb	a4,1025(a5)
c:\Users\seanw\mounriver-studio-projects\CH570D-power_profiling_dummy_operations\obj/../StdPeriphDriver/CH57x_uart.c:30
    R8_UART_DIV = 1;
     f12:	4705                	li	a4,1
     f14:	40e78723          	sb	a4,1038(a5)
c:\Users\seanw\mounriver-studio-projects\CH570D-power_profiling_dummy_operations\obj/../StdPeriphDriver/CH57x_uart.c:31
}
     f18:	40b2                	lw	ra,12(sp)
     f1a:	0141                	addi	sp,sp,16
     f1c:	8082                	ret

00000f1e <UART_Remap>:
UART_Remap():
c:\Users\seanw\mounriver-studio-projects\CH570D-power_profiling_dummy_operations\obj/../StdPeriphDriver/CH57x_uart.c:153
 */
void UART_Remap(FunctionalState s, UARTTxPinRemapDef u_tx, UARTRxPinRemapDef u_rx)
{
    if(s)
    {
        R16_PIN_ALTERNATE_H &= ~(RB_UART_TXD | RB_UART_RXD); // 该寄存器仅在上电复位和ShutDown睡眠时清0
     f1e:	40001737          	lui	a4,0x40001
     f22:	2f3e                	lhu	a5,26(a4)
     f24:	0807c7b3          	zext.h	a5,a5
     f28:	fc07f793          	andi	a5,a5,-64
     f2c:	0807c7b3          	zext.h	a5,a5
     f30:	af3e                	sh	a5,26(a4)
c:\Users\seanw\mounriver-studio-projects\CH570D-power_profiling_dummy_operations\obj/../StdPeriphDriver/CH57x_uart.c:151
    if(s)
     f32:	c909                	beqz	a0,f44 <UART_Remap+0x26>
c:\Users\seanw\mounriver-studio-projects\CH570D-power_profiling_dummy_operations\obj/../StdPeriphDriver/CH57x_uart.c:154
        R16_PIN_ALTERNATE_H |= (u_tx << 3) | u_rx;
     f34:	2f3e                	lhu	a5,26(a4)
     f36:	058e                	slli	a1,a1,0x3
     f38:	8e5d                	or	a2,a2,a5
     f3a:	8dd1                	or	a1,a1,a2
     f3c:	0805c5b3          	zext.h	a1,a1
     f40:	af2e                	sh	a1,26(a4)
     f42:	8082                	ret
c:\Users\seanw\mounriver-studio-projects\CH570D-power_profiling_dummy_operations\obj/../StdPeriphDriver/CH57x_uart.c:160
    }
    else
    {
        R16_PIN_ALTERNATE_H &= ~(RB_UART_TXD | RB_UART_RXD);
    }
}
     f44:	8082                	ret

00000f46 <FLASH_EEPROM_CMD>:
FLASH_EEPROM_CMD():
     f46:	1101                	addi	sp,sp,-32
     f48:	872a                	mv	a4,a0
     f4a:	ce06                	sw	ra,28(sp)
     f4c:	852e                	mv	a0,a1
     f4e:	cc26                	sw	s1,24(sp)
     f50:	85b2                	mv	a1,a2
     f52:	ca4a                	sw	s2,20(sp)
     f54:	8636                	mv	a2,a3
     f56:	c622                	sw	s0,12(sp)
     f58:	40002437          	lui	s0,0x40002
     f5c:	e000e7b7          	lui	a5,0xe000e
     f60:	56fd                	li	a3,-1
     f62:	0007a903          	lw	s2,0(a5) # e000e000 <_eusrstack+0xc000b000>
     f66:	43c4                	lw	s1,4(a5)
     f68:	18d7a023          	sw	a3,384(a5)
     f6c:	18d7a223          	sw	a3,388(a5)
     f70:	fff70793          	addi	a5,a4,-1 # 40000fff <_eusrstack+0x1fffdfff>
     f74:	0ff7f793          	zext.b	a5,a5
     f78:	4689                	li	a3,2
     f7a:	0af6e063          	bltu	a3,a5,101a <FLASH_EEPROM_CMD+0xd4>
     f7e:	400017b7          	lui	a5,0x40001
     f82:	0457c783          	lbu	a5,69(a5) # 40001045 <_eusrstack+0x1fffe045>
     f86:	000406b7          	lui	a3,0x40
     f8a:	0207f793          	andi	a5,a5,32
     f8e:	e399                	bnez	a5,f94 <FLASH_EEPROM_CMD+0x4e>
     f90:	0003c6b7          	lui	a3,0x3c
     f94:	57f9                	li	a5,-2
     f96:	04d57563          	bgeu	a0,a3,fe0 <FLASH_EEPROM_CMD+0x9a>
     f9a:	00c50833          	add	a6,a0,a2
     f9e:	0506e163          	bltu	a3,a6,fe0 <FLASH_EEPROM_CMD+0x9a>
     fa2:	4789                	li	a5,2
     fa4:	04f71463          	bne	a4,a5,fec <FLASH_EEPROM_CMD+0xa6>
     fa8:	8209                	srli	a2,a2,0x2
     faa:	20000097          	auipc	ra,0x20000
     fae:	800080e7          	jalr	-2048(ra) # 200007aa <FLASH_CMD_ROM_WRITE>
     fb2:	87aa                	mv	a5,a0
     fb4:	40001737          	lui	a4,0x40001
     fb8:	05700693          	li	a3,87
     fbc:	04d70023          	sb	a3,64(a4) # 40001040 <_eusrstack+0x1fffe040>
     fc0:	fa800693          	li	a3,-88
     fc4:	04d70023          	sb	a3,64(a4)
     fc8:	04474683          	lbu	a3,68(a4)
     fcc:	8ac1                	andi	a3,a3,16
     fce:	04d70223          	sb	a3,68(a4)
     fd2:	e000e737          	lui	a4,0xe000e
     fd6:	11272023          	sw	s2,256(a4) # e000e100 <_eusrstack+0xc000b100>
     fda:	10972223          	sw	s1,260(a4)
     fde:	4432                	lw	s0,12(sp)
     fe0:	40f2                	lw	ra,28(sp)
     fe2:	44e2                	lw	s1,24(sp)
     fe4:	4952                	lw	s2,20(sp)
     fe6:	853e                	mv	a0,a5
     fe8:	6105                	addi	sp,sp,32
     fea:	8082                	ret
     fec:	4785                	li	a5,1
     fee:	00f71f63          	bne	a4,a5,100c <FLASH_EEPROM_CMD+0xc6>
     ff2:	6785                	lui	a5,0x1
     ff4:	17fd                	addi	a5,a5,-1 # fff <FLASH_EEPROM_CMD+0xb9>
     ff6:	963e                	add	a2,a2,a5
     ff8:	8fe9                	and	a5,a5,a0
     ffa:	963e                	add	a2,a2,a5
     ffc:	77fd                	lui	a5,0xfffff
     ffe:	8e7d                	and	a2,a2,a5
    1000:	8d7d                	and	a0,a0,a5
    1002:	20000097          	auipc	ra,0x20000
    1006:	808080e7          	jalr	-2040(ra) # 2000080a <FLASH_CMD_ROM_ERASE>
    100a:	b765                	j	fb2 <FLASH_EEPROM_CMD+0x6c>
    100c:	20000097          	auipc	ra,0x20000
    1010:	870080e7          	jalr	-1936(ra) # 2000087c <FLASH_CMD_ROM_VERIFY>
    1014:	00150793          	addi	a5,a0,1
    1018:	bf71                	j	fb4 <FLASH_EEPROM_CMD+0x6e>
    101a:	47b5                	li	a5,13
    101c:	00f71a63          	bne	a4,a5,1030 <FLASH_EEPROM_CMD+0xea>
    1020:	0b900513          	li	a0,185
    1024:	20000097          	auipc	ra,0x20000
    1028:	8a8080e7          	jalr	-1880(ra) # 200008cc <FLASH_CMD_ROM_PWR>
    102c:	4781                	li	a5,0
    102e:	b759                	j	fb4 <FLASH_EEPROM_CMD+0x6e>
    1030:	47b1                	li	a5,12
    1032:	00f71563          	bne	a4,a5,103c <FLASH_EEPROM_CMD+0xf6>
    1036:	0ab00513          	li	a0,171
    103a:	b7ed                	j	1024 <FLASH_EEPROM_CMD+0xde>
    103c:	4799                	li	a5,6
    103e:	00f71763          	bne	a4,a5,104c <FLASH_EEPROM_CMD+0x106>
    1042:	20000097          	auipc	ra,0x20000
    1046:	89c080e7          	jalr	-1892(ra) # 200008de <FLASH_CMD_GET_ROM_INFO>
    104a:	b7cd                	j	102c <FLASH_EEPROM_CMD+0xe6>
    104c:	479d                	li	a5,7
    104e:	00f71b63          	bne	a4,a5,1064 <FLASH_EEPROM_CMD+0x11e>
    1052:	0005a023          	sw	zero,0(a1)
    1056:	0005a223          	sw	zero,4(a1)
    105a:	20000097          	auipc	ra,0x20000
    105e:	8e4080e7          	jalr	-1820(ra) # 2000093e <FLASH_CMD_GET_UNIQUE_ID>
    1062:	b7e9                	j	102c <FLASH_EEPROM_CMD+0xe6>
    1064:	4791                	li	a5,4
    1066:	00f71763          	bne	a4,a5,1074 <FLASH_EEPROM_CMD+0x12e>
    106a:	20000097          	auipc	ra,0x20000
    106e:	912080e7          	jalr	-1774(ra) # 2000097c <FLASH_CMD_ROM_SW_RESET>
    1072:	bf6d                	j	102c <FLASH_EEPROM_CMD+0xe6>
    1074:	4781                	li	a5,0
    1076:	df1d                	beqz	a4,fb4 <FLASH_EEPROM_CMD+0x6e>
    1078:	57f1                	li	a5,-4
    107a:	bf2d                	j	fb4 <FLASH_EEPROM_CMD+0x6e>

0000107c <iprintf>:
printf():
    107c:	715d                	addi	sp,sp,-80
    107e:	d422                	sw	s0,40(sp)
    1080:	d606                	sw	ra,44(sp)
    1082:	842a                	mv	s0,a0
    1084:	da2e                	sw	a1,52(sp)
    1086:	dc32                	sw	a2,56(sp)
    1088:	de36                	sw	a3,60(sp)
    108a:	c0ba                	sw	a4,64(sp)
    108c:	c2be                	sw	a5,68(sp)
    108e:	c4c2                	sw	a6,72(sp)
    1090:	c6c6                	sw	a7,76(sp)
    1092:	20000517          	auipc	a0,0x20000
    1096:	96a52503          	lw	a0,-1686(a0) # 200009fc <_impure_ptr>
    109a:	c511                	beqz	a0,10a6 <iprintf+0x2a>
    109c:	4d1c                	lw	a5,24(a0)
    109e:	e781                	bnez	a5,10a6 <iprintf+0x2a>
    10a0:	c62a                	sw	a0,12(sp)
    10a2:	2bb1                	jal	15fe <__sinit>
    10a4:	4532                	lw	a0,12(sp)
    10a6:	450c                	lw	a1,8(a0)
    10a8:	1854                	addi	a3,sp,52
    10aa:	8622                	mv	a2,s0
    10ac:	ce36                	sw	a3,28(sp)
    10ae:	213000ef          	jal	ra,1ac0 <_vfiprintf_r>
    10b2:	50b2                	lw	ra,44(sp)
    10b4:	5422                	lw	s0,40(sp)
    10b6:	6161                	addi	sp,sp,80
    10b8:	8082                	ret

000010ba <_puts_r>:
_puts_r():
    10ba:	1101                	addi	sp,sp,-32
    10bc:	ca26                	sw	s1,20(sp)
    10be:	ce06                	sw	ra,28(sp)
    10c0:	cc22                	sw	s0,24(sp)
    10c2:	c84a                	sw	s2,16(sp)
    10c4:	c64e                	sw	s3,12(sp)
    10c6:	c452                	sw	s4,8(sp)
    10c8:	84aa                	mv	s1,a0
    10ca:	e119                	bnez	a0,10d0 <_puts_r+0x16>
    10cc:	451c                	lw	a5,8(a0)
    10ce:	9002                	ebreak
    10d0:	4d1c                	lw	a5,24(a0)
    10d2:	892e                	mv	s2,a1
    10d4:	e3ad                	bnez	a5,1136 <_puts_r+0x7c>
    10d6:	2325                	jal	15fe <__sinit>
    10d8:	4c9c                	lw	a5,24(s1)
    10da:	4480                	lw	s0,8(s1)
    10dc:	cfb9                	beqz	a5,113a <_puts_r+0x80>
    10de:	00001797          	auipc	a5,0x1
    10e2:	38678793          	addi	a5,a5,902 # 2464 <__sf_fake_stdin>
    10e6:	04f41d63          	bne	s0,a5,1140 <_puts_r+0x86>
    10ea:	40c0                	lw	s0,4(s1)
    10ec:	507c                	lw	a5,100(s0)
    10ee:	8b85                	andi	a5,a5,1
    10f0:	e799                	bnez	a5,10fe <_puts_r+0x44>
    10f2:	245e                	lhu	a5,12(s0)
    10f4:	2007f793          	andi	a5,a5,512
    10f8:	e399                	bnez	a5,10fe <_puts_r+0x44>
    10fa:	4c28                	lw	a0,88(s0)
    10fc:	2dad                	jal	1776 <__retarget_lock_acquire_recursive>
    10fe:	245e                	lhu	a5,12(s0)
    1100:	8ba1                	andi	a5,a5,8
    1102:	c399                	beqz	a5,1108 <_puts_r+0x4e>
    1104:	481c                	lw	a5,16(s0)
    1106:	e3d5                	bnez	a5,11aa <_puts_r+0xf0>
    1108:	85a2                	mv	a1,s0
    110a:	8526                	mv	a0,s1
    110c:	2aad                	jal	1286 <__swsetup_r>
    110e:	cd51                	beqz	a0,11aa <_puts_r+0xf0>
    1110:	54fd                	li	s1,-1
    1112:	507c                	lw	a5,100(s0)
    1114:	8b85                	andi	a5,a5,1
    1116:	e799                	bnez	a5,1124 <_puts_r+0x6a>
    1118:	245e                	lhu	a5,12(s0)
    111a:	2007f793          	andi	a5,a5,512
    111e:	e399                	bnez	a5,1124 <_puts_r+0x6a>
    1120:	4c28                	lw	a0,88(s0)
    1122:	2d99                	jal	1778 <__retarget_lock_release_recursive>
    1124:	40f2                	lw	ra,28(sp)
    1126:	4462                	lw	s0,24(sp)
    1128:	4942                	lw	s2,16(sp)
    112a:	49b2                	lw	s3,12(sp)
    112c:	4a22                	lw	s4,8(sp)
    112e:	8526                	mv	a0,s1
    1130:	44d2                	lw	s1,20(sp)
    1132:	6105                	addi	sp,sp,32
    1134:	8082                	ret
    1136:	4500                	lw	s0,8(a0)
    1138:	b75d                	j	10de <_puts_r+0x24>
    113a:	8526                	mv	a0,s1
    113c:	21c9                	jal	15fe <__sinit>
    113e:	b745                	j	10de <_puts_r+0x24>
    1140:	00001797          	auipc	a5,0x1
    1144:	30478793          	addi	a5,a5,772 # 2444 <__sf_fake_stdout>
    1148:	00f41463          	bne	s0,a5,1150 <_puts_r+0x96>
    114c:	4480                	lw	s0,8(s1)
    114e:	bf79                	j	10ec <_puts_r+0x32>
    1150:	00001797          	auipc	a5,0x1
    1154:	2d478793          	addi	a5,a5,724 # 2424 <__sf_fake_stderr>
    1158:	f8f41ae3          	bne	s0,a5,10ec <_puts_r+0x32>
    115c:	44c0                	lw	s0,12(s1)
    115e:	b779                	j	10ec <_puts_r+0x32>
    1160:	c41c                	sw	a5,8(s0)
    1162:	0905                	addi	s2,s2,1
    1164:	0207c863          	bltz	a5,1194 <_puts_r+0xda>
    1168:	401c                	lw	a5,0(s0)
    116a:	00178713          	addi	a4,a5,1
    116e:	c018                	sw	a4,0(s0)
    1170:	a38c                	sb	a1,0(a5)
    1172:	441c                	lw	a5,8(s0)
    1174:	00094583          	lbu	a1,0(s2)
    1178:	17fd                	addi	a5,a5,-1
    117a:	f1fd                	bnez	a1,1160 <_puts_r+0xa6>
    117c:	c41c                	sw	a5,8(s0)
    117e:	0207d963          	bgez	a5,11b0 <_puts_r+0xf6>
    1182:	8622                	mv	a2,s0
    1184:	45a9                	li	a1,10
    1186:	8526                	mv	a0,s1
    1188:	2089                	jal	11ca <__swbuf_r>
    118a:	57fd                	li	a5,-1
    118c:	f8f502e3          	beq	a0,a5,1110 <_puts_r+0x56>
    1190:	44a9                	li	s1,10
    1192:	b741                	j	1112 <_puts_r+0x58>
    1194:	4c18                	lw	a4,24(s0)
    1196:	00e7c463          	blt	a5,a4,119e <_puts_r+0xe4>
    119a:	fd4597e3          	bne	a1,s4,1168 <_puts_r+0xae>
    119e:	8622                	mv	a2,s0
    11a0:	8526                	mv	a0,s1
    11a2:	2025                	jal	11ca <__swbuf_r>
    11a4:	fd3517e3          	bne	a0,s3,1172 <_puts_r+0xb8>
    11a8:	b7a5                	j	1110 <_puts_r+0x56>
    11aa:	59fd                	li	s3,-1
    11ac:	4a29                	li	s4,10
    11ae:	b7d1                	j	1172 <_puts_r+0xb8>
    11b0:	401c                	lw	a5,0(s0)
    11b2:	00178713          	addi	a4,a5,1
    11b6:	c018                	sw	a4,0(s0)
    11b8:	4729                	li	a4,10
    11ba:	a398                	sb	a4,0(a5)
    11bc:	bfd1                	j	1190 <_puts_r+0xd6>

000011be <puts>:
puts():
    11be:	85aa                	mv	a1,a0
    11c0:	20000517          	auipc	a0,0x20000
    11c4:	83c52503          	lw	a0,-1988(a0) # 200009fc <_impure_ptr>
    11c8:	bdcd                	j	10ba <_puts_r>

000011ca <__swbuf_r>:
__swbuf_r():
    11ca:	1101                	addi	sp,sp,-32
    11cc:	cc22                	sw	s0,24(sp)
    11ce:	ca26                	sw	s1,20(sp)
    11d0:	c84a                	sw	s2,16(sp)
    11d2:	ce06                	sw	ra,28(sp)
    11d4:	c64e                	sw	s3,12(sp)
    11d6:	84aa                	mv	s1,a0
    11d8:	892e                	mv	s2,a1
    11da:	8432                	mv	s0,a2
    11dc:	c501                	beqz	a0,11e4 <__swbuf_r+0x1a>
    11de:	4d1c                	lw	a5,24(a0)
    11e0:	e391                	bnez	a5,11e4 <__swbuf_r+0x1a>
    11e2:	2931                	jal	15fe <__sinit>
    11e4:	00001797          	auipc	a5,0x1
    11e8:	28078793          	addi	a5,a5,640 # 2464 <__sf_fake_stdin>
    11ec:	02f41763          	bne	s0,a5,121a <__swbuf_r+0x50>
    11f0:	40c0                	lw	s0,4(s1)
    11f2:	4c1c                	lw	a5,24(s0)
    11f4:	c41c                	sw	a5,8(s0)
    11f6:	245e                	lhu	a5,12(s0)
    11f8:	8ba1                	andi	a5,a5,8
    11fa:	c399                	beqz	a5,1200 <__swbuf_r+0x36>
    11fc:	481c                	lw	a5,16(s0)
    11fe:	ef95                	bnez	a5,123a <__swbuf_r+0x70>
    1200:	85a2                	mv	a1,s0
    1202:	8526                	mv	a0,s1
    1204:	2049                	jal	1286 <__swsetup_r>
    1206:	c915                	beqz	a0,123a <__swbuf_r+0x70>
    1208:	597d                	li	s2,-1
    120a:	40f2                	lw	ra,28(sp)
    120c:	4462                	lw	s0,24(sp)
    120e:	44d2                	lw	s1,20(sp)
    1210:	49b2                	lw	s3,12(sp)
    1212:	854a                	mv	a0,s2
    1214:	4942                	lw	s2,16(sp)
    1216:	6105                	addi	sp,sp,32
    1218:	8082                	ret
    121a:	00001797          	auipc	a5,0x1
    121e:	22a78793          	addi	a5,a5,554 # 2444 <__sf_fake_stdout>
    1222:	00f41463          	bne	s0,a5,122a <__swbuf_r+0x60>
    1226:	4480                	lw	s0,8(s1)
    1228:	b7e9                	j	11f2 <__swbuf_r+0x28>
    122a:	00001797          	auipc	a5,0x1
    122e:	1fa78793          	addi	a5,a5,506 # 2424 <__sf_fake_stderr>
    1232:	fcf410e3          	bne	s0,a5,11f2 <__swbuf_r+0x28>
    1236:	44c0                	lw	s0,12(s1)
    1238:	bf6d                	j	11f2 <__swbuf_r+0x28>
    123a:	481c                	lw	a5,16(s0)
    123c:	4008                	lw	a0,0(s0)
    123e:	0ff97993          	zext.b	s3,s2
    1242:	0ff97913          	zext.b	s2,s2
    1246:	8d1d                	sub	a0,a0,a5
    1248:	485c                	lw	a5,20(s0)
    124a:	00f54663          	blt	a0,a5,1256 <__swbuf_r+0x8c>
    124e:	85a2                	mv	a1,s0
    1250:	8526                	mv	a0,s1
    1252:	2ca1                	jal	14aa <_fflush_r>
    1254:	f955                	bnez	a0,1208 <__swbuf_r+0x3e>
    1256:	441c                	lw	a5,8(s0)
    1258:	0505                	addi	a0,a0,1
    125a:	17fd                	addi	a5,a5,-1
    125c:	c41c                	sw	a5,8(s0)
    125e:	401c                	lw	a5,0(s0)
    1260:	00178713          	addi	a4,a5,1
    1264:	c018                	sw	a4,0(s0)
    1266:	01378023          	sb	s3,0(a5)
    126a:	485c                	lw	a5,20(s0)
    126c:	00a78863          	beq	a5,a0,127c <__swbuf_r+0xb2>
    1270:	245e                	lhu	a5,12(s0)
    1272:	8b85                	andi	a5,a5,1
    1274:	dbd9                	beqz	a5,120a <__swbuf_r+0x40>
    1276:	47a9                	li	a5,10
    1278:	f8f919e3          	bne	s2,a5,120a <__swbuf_r+0x40>
    127c:	85a2                	mv	a1,s0
    127e:	8526                	mv	a0,s1
    1280:	242d                	jal	14aa <_fflush_r>
    1282:	d541                	beqz	a0,120a <__swbuf_r+0x40>
    1284:	b751                	j	1208 <__swbuf_r+0x3e>

00001286 <__swsetup_r>:
__swsetup_r():
    1286:	1141                	addi	sp,sp,-16
    1288:	c422                	sw	s0,8(sp)
    128a:	c226                	sw	s1,4(sp)
    128c:	c04a                	sw	s2,0(sp)
    128e:	c606                	sw	ra,12(sp)
    1290:	1ffff497          	auipc	s1,0x1ffff
    1294:	76c4a483          	lw	s1,1900(s1) # 200009fc <_impure_ptr>
    1298:	892a                	mv	s2,a0
    129a:	842e                	mv	s0,a1
    129c:	c489                	beqz	s1,12a6 <__swsetup_r+0x20>
    129e:	4c9c                	lw	a5,24(s1)
    12a0:	e399                	bnez	a5,12a6 <__swsetup_r+0x20>
    12a2:	8526                	mv	a0,s1
    12a4:	2ea9                	jal	15fe <__sinit>
    12a6:	00001797          	auipc	a5,0x1
    12aa:	1be78793          	addi	a5,a5,446 # 2464 <__sf_fake_stdin>
    12ae:	02f41363          	bne	s0,a5,12d4 <__swsetup_r+0x4e>
    12b2:	40c0                	lw	s0,4(s1)
    12b4:	00c41783          	lh	a5,12(s0) # 4000200c <_eusrstack+0x1ffff00c>
    12b8:	0087f713          	andi	a4,a5,8
    12bc:	e725                	bnez	a4,1324 <__swsetup_r+0x9e>
    12be:	0107f713          	andi	a4,a5,16
    12c2:	eb0d                	bnez	a4,12f4 <__swsetup_r+0x6e>
    12c4:	4725                	li	a4,9
    12c6:	00e92023          	sw	a4,0(s2)
    12ca:	0407e793          	ori	a5,a5,64
    12ce:	a45e                	sh	a5,12(s0)
    12d0:	557d                	li	a0,-1
    12d2:	a071                	j	135e <__swsetup_r+0xd8>
    12d4:	00001797          	auipc	a5,0x1
    12d8:	17078793          	addi	a5,a5,368 # 2444 <__sf_fake_stdout>
    12dc:	00f41463          	bne	s0,a5,12e4 <__swsetup_r+0x5e>
    12e0:	4480                	lw	s0,8(s1)
    12e2:	bfc9                	j	12b4 <__swsetup_r+0x2e>
    12e4:	00001797          	auipc	a5,0x1
    12e8:	14078793          	addi	a5,a5,320 # 2424 <__sf_fake_stderr>
    12ec:	fcf414e3          	bne	s0,a5,12b4 <__swsetup_r+0x2e>
    12f0:	44c0                	lw	s0,12(s1)
    12f2:	b7c9                	j	12b4 <__swsetup_r+0x2e>
    12f4:	8b91                	andi	a5,a5,4
    12f6:	c39d                	beqz	a5,131c <__swsetup_r+0x96>
    12f8:	584c                	lw	a1,52(s0)
    12fa:	c989                	beqz	a1,130c <__swsetup_r+0x86>
    12fc:	04440793          	addi	a5,s0,68
    1300:	00f58463          	beq	a1,a5,1308 <__swsetup_r+0x82>
    1304:	854a                	mv	a0,s2
    1306:	2bb9                	jal	1864 <_free_r>
    1308:	02042a23          	sw	zero,52(s0)
    130c:	245e                	lhu	a5,12(s0)
    130e:	00042223          	sw	zero,4(s0)
    1312:	fdb7f793          	andi	a5,a5,-37
    1316:	a45e                	sh	a5,12(s0)
    1318:	481c                	lw	a5,16(s0)
    131a:	c01c                	sw	a5,0(s0)
    131c:	245e                	lhu	a5,12(s0)
    131e:	0087e793          	ori	a5,a5,8
    1322:	a45e                	sh	a5,12(s0)
    1324:	481c                	lw	a5,16(s0)
    1326:	eb99                	bnez	a5,133c <__swsetup_r+0xb6>
    1328:	245e                	lhu	a5,12(s0)
    132a:	20000713          	li	a4,512
    132e:	2807f793          	andi	a5,a5,640
    1332:	00e78563          	beq	a5,a4,133c <__swsetup_r+0xb6>
    1336:	85a2                	mv	a1,s0
    1338:	854a                	mv	a0,s2
    133a:	2961                	jal	17d2 <__smakebuf_r>
    133c:	00c41783          	lh	a5,12(s0)
    1340:	0017f713          	andi	a4,a5,1
    1344:	c31d                	beqz	a4,136a <__swsetup_r+0xe4>
    1346:	4858                	lw	a4,20(s0)
    1348:	00042423          	sw	zero,8(s0)
    134c:	40e00733          	neg	a4,a4
    1350:	cc18                	sw	a4,24(s0)
    1352:	4818                	lw	a4,16(s0)
    1354:	4501                	li	a0,0
    1356:	e701                	bnez	a4,135e <__swsetup_r+0xd8>
    1358:	0807f713          	andi	a4,a5,128
    135c:	f73d                	bnez	a4,12ca <__swsetup_r+0x44>
    135e:	40b2                	lw	ra,12(sp)
    1360:	4422                	lw	s0,8(sp)
    1362:	4492                	lw	s1,4(sp)
    1364:	4902                	lw	s2,0(sp)
    1366:	0141                	addi	sp,sp,16
    1368:	8082                	ret
    136a:	0027f713          	andi	a4,a5,2
    136e:	4681                	li	a3,0
    1370:	e311                	bnez	a4,1374 <__swsetup_r+0xee>
    1372:	4854                	lw	a3,20(s0)
    1374:	c414                	sw	a3,8(s0)
    1376:	bff1                	j	1352 <__swsetup_r+0xcc>

00001378 <__sflush_r>:
__sflush_r():
    1378:	00c59783          	lh	a5,12(a1)
    137c:	1101                	addi	sp,sp,-32
    137e:	cc22                	sw	s0,24(sp)
    1380:	ca26                	sw	s1,20(sp)
    1382:	ce06                	sw	ra,28(sp)
    1384:	c84a                	sw	s2,16(sp)
    1386:	c64e                	sw	s3,12(sp)
    1388:	0087f713          	andi	a4,a5,8
    138c:	84aa                	mv	s1,a0
    138e:	842e                	mv	s0,a1
    1390:	e379                	bnez	a4,1456 <__sflush_r+0xde>
    1392:	41d8                	lw	a4,4(a1)
    1394:	00e04563          	bgtz	a4,139e <__sflush_r+0x26>
    1398:	41b8                	lw	a4,64(a1)
    139a:	08e05663          	blez	a4,1426 <__sflush_r+0xae>
    139e:	5458                	lw	a4,44(s0)
    13a0:	c359                	beqz	a4,1426 <__sflush_r+0xae>
    13a2:	0004a903          	lw	s2,0(s1)
    13a6:	0004a023          	sw	zero,0(s1)
    13aa:	500c                	lw	a1,32(s0)
    13ac:	48c7d793          	bexti	a5,a5,0xc
    13b0:	cba9                	beqz	a5,1402 <__sflush_r+0x8a>
    13b2:	4870                	lw	a2,84(s0)
    13b4:	245e                	lhu	a5,12(s0)
    13b6:	8b91                	andi	a5,a5,4
    13b8:	c799                	beqz	a5,13c6 <__sflush_r+0x4e>
    13ba:	405c                	lw	a5,4(s0)
    13bc:	8e1d                	sub	a2,a2,a5
    13be:	585c                	lw	a5,52(s0)
    13c0:	c399                	beqz	a5,13c6 <__sflush_r+0x4e>
    13c2:	403c                	lw	a5,64(s0)
    13c4:	8e1d                	sub	a2,a2,a5
    13c6:	545c                	lw	a5,44(s0)
    13c8:	500c                	lw	a1,32(s0)
    13ca:	4681                	li	a3,0
    13cc:	8526                	mv	a0,s1
    13ce:	9782                	jalr	a5
    13d0:	57fd                	li	a5,-1
    13d2:	04f50c63          	beq	a0,a5,142a <__sflush_r+0xb2>
    13d6:	481c                	lw	a5,16(s0)
    13d8:	6705                	lui	a4,0x1
    13da:	00042223          	sw	zero,4(s0)
    13de:	c01c                	sw	a5,0(s0)
    13e0:	245e                	lhu	a5,12(s0)
    13e2:	8ff9                	and	a5,a5,a4
    13e4:	c391                	beqz	a5,13e8 <__sflush_r+0x70>
    13e6:	c868                	sw	a0,84(s0)
    13e8:	584c                	lw	a1,52(s0)
    13ea:	0124a023          	sw	s2,0(s1)
    13ee:	cd85                	beqz	a1,1426 <__sflush_r+0xae>
    13f0:	04440793          	addi	a5,s0,68
    13f4:	00f58463          	beq	a1,a5,13fc <__sflush_r+0x84>
    13f8:	8526                	mv	a0,s1
    13fa:	21ad                	jal	1864 <_free_r>
    13fc:	02042a23          	sw	zero,52(s0)
    1400:	a01d                	j	1426 <__sflush_r+0xae>
    1402:	4601                	li	a2,0
    1404:	4685                	li	a3,1
    1406:	8526                	mv	a0,s1
    1408:	9702                	jalr	a4
    140a:	57fd                	li	a5,-1
    140c:	862a                	mv	a2,a0
    140e:	faf513e3          	bne	a0,a5,13b4 <__sflush_r+0x3c>
    1412:	409c                	lw	a5,0(s1)
    1414:	d3c5                	beqz	a5,13b4 <__sflush_r+0x3c>
    1416:	4775                	li	a4,29
    1418:	00e78563          	beq	a5,a4,1422 <__sflush_r+0xaa>
    141c:	4759                	li	a4,22
    141e:	06e79563          	bne	a5,a4,1488 <__sflush_r+0x110>
    1422:	0124a023          	sw	s2,0(s1)
    1426:	4501                	li	a0,0
    1428:	a0b5                	j	1494 <__sflush_r+0x11c>
    142a:	4098                	lw	a4,0(s1)
    142c:	00c41783          	lh	a5,12(s0)
    1430:	cf01                	beqz	a4,1448 <__sflush_r+0xd0>
    1432:	46f5                	li	a3,29
    1434:	00d70563          	beq	a4,a3,143e <__sflush_r+0xc6>
    1438:	46d9                	li	a3,22
    143a:	04d71963          	bne	a4,a3,148c <__sflush_r+0x114>
    143e:	481c                	lw	a5,16(s0)
    1440:	00042223          	sw	zero,4(s0)
    1444:	c01c                	sw	a5,0(s0)
    1446:	b74d                	j	13e8 <__sflush_r+0x70>
    1448:	4818                	lw	a4,16(s0)
    144a:	00042223          	sw	zero,4(s0)
    144e:	48c7d793          	bexti	a5,a5,0xc
    1452:	c018                	sw	a4,0(s0)
    1454:	bf41                	j	13e4 <__sflush_r+0x6c>
    1456:	0105a983          	lw	s3,16(a1)
    145a:	fc0986e3          	beqz	s3,1426 <__sflush_r+0xae>
    145e:	0005a903          	lw	s2,0(a1)
    1462:	8b8d                	andi	a5,a5,3
    1464:	0135a023          	sw	s3,0(a1)
    1468:	41390933          	sub	s2,s2,s3
    146c:	4701                	li	a4,0
    146e:	e391                	bnez	a5,1472 <__sflush_r+0xfa>
    1470:	49d8                	lw	a4,20(a1)
    1472:	c418                	sw	a4,8(s0)
    1474:	fb2059e3          	blez	s2,1426 <__sflush_r+0xae>
    1478:	541c                	lw	a5,40(s0)
    147a:	500c                	lw	a1,32(s0)
    147c:	86ca                	mv	a3,s2
    147e:	864e                	mv	a2,s3
    1480:	8526                	mv	a0,s1
    1482:	9782                	jalr	a5
    1484:	00a04f63          	bgtz	a0,14a2 <__sflush_r+0x12a>
    1488:	00c41783          	lh	a5,12(s0)
    148c:	0407e793          	ori	a5,a5,64
    1490:	a45e                	sh	a5,12(s0)
    1492:	557d                	li	a0,-1
    1494:	40f2                	lw	ra,28(sp)
    1496:	4462                	lw	s0,24(sp)
    1498:	44d2                	lw	s1,20(sp)
    149a:	4942                	lw	s2,16(sp)
    149c:	49b2                	lw	s3,12(sp)
    149e:	6105                	addi	sp,sp,32
    14a0:	8082                	ret
    14a2:	99aa                	add	s3,s3,a0
    14a4:	40a90933          	sub	s2,s2,a0
    14a8:	b7f1                	j	1474 <__sflush_r+0xfc>

000014aa <_fflush_r>:
_fflush_r():
    14aa:	499c                	lw	a5,16(a1)
    14ac:	1141                	addi	sp,sp,-16
    14ae:	c606                	sw	ra,12(sp)
    14b0:	c422                	sw	s0,8(sp)
    14b2:	c226                	sw	s1,4(sp)
    14b4:	eb81                	bnez	a5,14c4 <_fflush_r+0x1a>
    14b6:	4481                	li	s1,0
    14b8:	40b2                	lw	ra,12(sp)
    14ba:	4422                	lw	s0,8(sp)
    14bc:	8526                	mv	a0,s1
    14be:	4492                	lw	s1,4(sp)
    14c0:	0141                	addi	sp,sp,16
    14c2:	8082                	ret
    14c4:	84aa                	mv	s1,a0
    14c6:	842e                	mv	s0,a1
    14c8:	c501                	beqz	a0,14d0 <_fflush_r+0x26>
    14ca:	4d1c                	lw	a5,24(a0)
    14cc:	e391                	bnez	a5,14d0 <_fflush_r+0x26>
    14ce:	2a05                	jal	15fe <__sinit>
    14d0:	00001797          	auipc	a5,0x1
    14d4:	f9478793          	addi	a5,a5,-108 # 2464 <__sf_fake_stdin>
    14d8:	02f41c63          	bne	s0,a5,1510 <_fflush_r+0x66>
    14dc:	40c0                	lw	s0,4(s1)
    14de:	00c41783          	lh	a5,12(s0)
    14e2:	dbf1                	beqz	a5,14b6 <_fflush_r+0xc>
    14e4:	5078                	lw	a4,100(s0)
    14e6:	8b05                	andi	a4,a4,1
    14e8:	e711                	bnez	a4,14f4 <_fflush_r+0x4a>
    14ea:	2007f793          	andi	a5,a5,512
    14ee:	e399                	bnez	a5,14f4 <_fflush_r+0x4a>
    14f0:	4c28                	lw	a0,88(s0)
    14f2:	2451                	jal	1776 <__retarget_lock_acquire_recursive>
    14f4:	8526                	mv	a0,s1
    14f6:	85a2                	mv	a1,s0
    14f8:	3541                	jal	1378 <__sflush_r>
    14fa:	507c                	lw	a5,100(s0)
    14fc:	84aa                	mv	s1,a0
    14fe:	8b85                	andi	a5,a5,1
    1500:	ffc5                	bnez	a5,14b8 <_fflush_r+0xe>
    1502:	245e                	lhu	a5,12(s0)
    1504:	2007f793          	andi	a5,a5,512
    1508:	fbc5                	bnez	a5,14b8 <_fflush_r+0xe>
    150a:	4c28                	lw	a0,88(s0)
    150c:	24b5                	jal	1778 <__retarget_lock_release_recursive>
    150e:	b76d                	j	14b8 <_fflush_r+0xe>
    1510:	00001797          	auipc	a5,0x1
    1514:	f3478793          	addi	a5,a5,-204 # 2444 <__sf_fake_stdout>
    1518:	00f41463          	bne	s0,a5,1520 <_fflush_r+0x76>
    151c:	4480                	lw	s0,8(s1)
    151e:	b7c1                	j	14de <_fflush_r+0x34>
    1520:	00001797          	auipc	a5,0x1
    1524:	f0478793          	addi	a5,a5,-252 # 2424 <__sf_fake_stderr>
    1528:	faf41be3          	bne	s0,a5,14de <_fflush_r+0x34>
    152c:	44c0                	lw	s0,12(s1)
    152e:	bf45                	j	14de <_fflush_r+0x34>

00001530 <std>:
std():
    1530:	1141                	addi	sp,sp,-16
    1532:	c422                	sw	s0,8(sp)
    1534:	c606                	sw	ra,12(sp)
    1536:	842a                	mv	s0,a0
    1538:	a54e                	sh	a1,12(a0)
    153a:	a572                	sh	a2,14(a0)
    153c:	00052023          	sw	zero,0(a0)
    1540:	00052223          	sw	zero,4(a0)
    1544:	00052423          	sw	zero,8(a0)
    1548:	06052223          	sw	zero,100(a0)
    154c:	00052823          	sw	zero,16(a0)
    1550:	00052a23          	sw	zero,20(a0)
    1554:	00052c23          	sw	zero,24(a0)
    1558:	4621                	li	a2,8
    155a:	4581                	li	a1,0
    155c:	05c50513          	addi	a0,a0,92
    1560:	ceeff0ef          	jal	ra,a4e <memset>
    1564:	00001797          	auipc	a5,0x1
    1568:	83278793          	addi	a5,a5,-1998 # 1d96 <__sread>
    156c:	d05c                	sw	a5,36(s0)
    156e:	00001797          	auipc	a5,0x1
    1572:	85278793          	addi	a5,a5,-1966 # 1dc0 <__swrite>
    1576:	d41c                	sw	a5,40(s0)
    1578:	00001797          	auipc	a5,0x1
    157c:	88e78793          	addi	a5,a5,-1906 # 1e06 <__sseek>
    1580:	d45c                	sw	a5,44(s0)
    1582:	00001797          	auipc	a5,0x1
    1586:	8b278793          	addi	a5,a5,-1870 # 1e34 <__sclose>
    158a:	40b2                	lw	ra,12(sp)
    158c:	d000                	sw	s0,32(s0)
    158e:	d81c                	sw	a5,48(s0)
    1590:	4422                	lw	s0,8(sp)
    1592:	0141                	addi	sp,sp,16
    1594:	8082                	ret

00001596 <_cleanup_r>:
_cleanup_r():
    1596:	00000597          	auipc	a1,0x0
    159a:	f1458593          	addi	a1,a1,-236 # 14aa <_fflush_r>
    159e:	a2bd                	j	170c <_fwalk_reent>

000015a0 <__sfmoreglue>:
__sfmoreglue():
    15a0:	1141                	addi	sp,sp,-16
    15a2:	c226                	sw	s1,4(sp)
    15a4:	06800793          	li	a5,104
    15a8:	fff58493          	addi	s1,a1,-1
    15ac:	02f484b3          	mul	s1,s1,a5
    15b0:	c04a                	sw	s2,0(sp)
    15b2:	892e                	mv	s2,a1
    15b4:	c422                	sw	s0,8(sp)
    15b6:	c606                	sw	ra,12(sp)
    15b8:	07448593          	addi	a1,s1,116
    15bc:	2e69                	jal	1956 <_malloc_r>
    15be:	842a                	mv	s0,a0
    15c0:	cd01                	beqz	a0,15d8 <__sfmoreglue+0x38>
    15c2:	00052023          	sw	zero,0(a0)
    15c6:	01252223          	sw	s2,4(a0)
    15ca:	0531                	addi	a0,a0,12
    15cc:	c408                	sw	a0,8(s0)
    15ce:	06848613          	addi	a2,s1,104
    15d2:	4581                	li	a1,0
    15d4:	c7aff0ef          	jal	ra,a4e <memset>
    15d8:	40b2                	lw	ra,12(sp)
    15da:	8522                	mv	a0,s0
    15dc:	4422                	lw	s0,8(sp)
    15de:	4492                	lw	s1,4(sp)
    15e0:	4902                	lw	s2,0(sp)
    15e2:	0141                	addi	sp,sp,16
    15e4:	8082                	ret

000015e6 <__sfp_lock_acquire>:
__sfp_lock_acquire():
    15e6:	81418513          	addi	a0,gp,-2028 # 20000a0c <__lock___sfp_recursive_mutex>
    15ea:	a271                	j	1776 <__retarget_lock_acquire_recursive>

000015ec <__sfp_lock_release>:
__sfp_lock_release():
    15ec:	81418513          	addi	a0,gp,-2028 # 20000a0c <__lock___sfp_recursive_mutex>
    15f0:	a261                	j	1778 <__retarget_lock_release_recursive>

000015f2 <__sinit_lock_acquire>:
__sinit_lock_acquire():
    15f2:	81818513          	addi	a0,gp,-2024 # 20000a10 <__lock___sinit_recursive_mutex>
    15f6:	a241                	j	1776 <__retarget_lock_acquire_recursive>

000015f8 <__sinit_lock_release>:
__sinit_lock_release():
    15f8:	81818513          	addi	a0,gp,-2024 # 20000a10 <__lock___sinit_recursive_mutex>
    15fc:	aab5                	j	1778 <__retarget_lock_release_recursive>

000015fe <__sinit>:
__sinit():
    15fe:	1141                	addi	sp,sp,-16
    1600:	c422                	sw	s0,8(sp)
    1602:	c606                	sw	ra,12(sp)
    1604:	842a                	mv	s0,a0
    1606:	37f5                	jal	15f2 <__sinit_lock_acquire>
    1608:	4c1c                	lw	a5,24(s0)
    160a:	c789                	beqz	a5,1614 <__sinit+0x16>
    160c:	4422                	lw	s0,8(sp)
    160e:	40b2                	lw	ra,12(sp)
    1610:	0141                	addi	sp,sp,16
    1612:	b7dd                	j	15f8 <__sinit_lock_release>
    1614:	00000797          	auipc	a5,0x0
    1618:	f8278793          	addi	a5,a5,-126 # 1596 <_cleanup_r>
    161c:	d41c                	sw	a5,40(s0)
    161e:	04042423          	sw	zero,72(s0)
    1622:	04042623          	sw	zero,76(s0)
    1626:	04042823          	sw	zero,80(s0)
    162a:	8081a783          	lw	a5,-2040(gp) # 20000a00 <_global_impure_ptr>
    162e:	00879463          	bne	a5,s0,1636 <__sinit+0x38>
    1632:	4785                	li	a5,1
    1634:	cc1c                	sw	a5,24(s0)
    1636:	8522                	mv	a0,s0
    1638:	203d                	jal	1666 <__sfp>
    163a:	c048                	sw	a0,4(s0)
    163c:	8522                	mv	a0,s0
    163e:	2025                	jal	1666 <__sfp>
    1640:	c408                	sw	a0,8(s0)
    1642:	8522                	mv	a0,s0
    1644:	200d                	jal	1666 <__sfp>
    1646:	c448                	sw	a0,12(s0)
    1648:	4048                	lw	a0,4(s0)
    164a:	4601                	li	a2,0
    164c:	4591                	li	a1,4
    164e:	35cd                	jal	1530 <std>
    1650:	4408                	lw	a0,8(s0)
    1652:	4605                	li	a2,1
    1654:	45a5                	li	a1,9
    1656:	3de9                	jal	1530 <std>
    1658:	4448                	lw	a0,12(s0)
    165a:	4609                	li	a2,2
    165c:	45c9                	li	a1,18
    165e:	3dc9                	jal	1530 <std>
    1660:	4785                	li	a5,1
    1662:	cc1c                	sw	a5,24(s0)
    1664:	b765                	j	160c <__sinit+0xe>

00001666 <__sfp>:
__sfp():
    1666:	1141                	addi	sp,sp,-16
    1668:	c226                	sw	s1,4(sp)
    166a:	c04a                	sw	s2,0(sp)
    166c:	c606                	sw	ra,12(sp)
    166e:	c422                	sw	s0,8(sp)
    1670:	892a                	mv	s2,a0
    1672:	3f95                	jal	15e6 <__sfp_lock_acquire>
    1674:	8081a483          	lw	s1,-2040(gp) # 20000a00 <_global_impure_ptr>
    1678:	4c9c                	lw	a5,24(s1)
    167a:	e399                	bnez	a5,1680 <__sfp+0x1a>
    167c:	8526                	mv	a0,s1
    167e:	3741                	jal	15fe <__sinit>
    1680:	04848493          	addi	s1,s1,72
    1684:	4480                	lw	s0,8(s1)
    1686:	40dc                	lw	a5,4(s1)
    1688:	17fd                	addi	a5,a5,-1
    168a:	0007d663          	bgez	a5,1696 <__sfp+0x30>
    168e:	409c                	lw	a5,0(s1)
    1690:	c3bd                	beqz	a5,16f6 <__sfp+0x90>
    1692:	4084                	lw	s1,0(s1)
    1694:	bfc5                	j	1684 <__sfp+0x1e>
    1696:	00c41703          	lh	a4,12(s0)
    169a:	eb39                	bnez	a4,16f0 <__sfp+0x8a>
    169c:	77c1                	lui	a5,0xffff0
    169e:	0785                	addi	a5,a5,1 # ffff0001 <_eusrstack+0xdffed001>
    16a0:	c45c                	sw	a5,12(s0)
    16a2:	05840513          	addi	a0,s0,88
    16a6:	06042223          	sw	zero,100(s0)
    16aa:	20e9                	jal	1774 <__retarget_lock_init_recursive>
    16ac:	3781                	jal	15ec <__sfp_lock_release>
    16ae:	4621                	li	a2,8
    16b0:	00042023          	sw	zero,0(s0)
    16b4:	00042423          	sw	zero,8(s0)
    16b8:	00042223          	sw	zero,4(s0)
    16bc:	00042823          	sw	zero,16(s0)
    16c0:	00042a23          	sw	zero,20(s0)
    16c4:	00042c23          	sw	zero,24(s0)
    16c8:	4581                	li	a1,0
    16ca:	05c40513          	addi	a0,s0,92
    16ce:	b80ff0ef          	jal	ra,a4e <memset>
    16d2:	02042a23          	sw	zero,52(s0)
    16d6:	02042c23          	sw	zero,56(s0)
    16da:	04042423          	sw	zero,72(s0)
    16de:	04042623          	sw	zero,76(s0)
    16e2:	40b2                	lw	ra,12(sp)
    16e4:	8522                	mv	a0,s0
    16e6:	4422                	lw	s0,8(sp)
    16e8:	4492                	lw	s1,4(sp)
    16ea:	4902                	lw	s2,0(sp)
    16ec:	0141                	addi	sp,sp,16
    16ee:	8082                	ret
    16f0:	06840413          	addi	s0,s0,104
    16f4:	bf51                	j	1688 <__sfp+0x22>
    16f6:	4591                	li	a1,4
    16f8:	854a                	mv	a0,s2
    16fa:	355d                	jal	15a0 <__sfmoreglue>
    16fc:	c088                	sw	a0,0(s1)
    16fe:	842a                	mv	s0,a0
    1700:	f949                	bnez	a0,1692 <__sfp+0x2c>
    1702:	35ed                	jal	15ec <__sfp_lock_release>
    1704:	47b1                	li	a5,12
    1706:	00f92023          	sw	a5,0(s2)
    170a:	bfe1                	j	16e2 <__sfp+0x7c>

0000170c <_fwalk_reent>:
_fwalk_reent():
    170c:	7179                	addi	sp,sp,-48
    170e:	d422                	sw	s0,40(sp)
    1710:	d04a                	sw	s2,32(sp)
    1712:	ce4e                	sw	s3,28(sp)
    1714:	cc52                	sw	s4,24(sp)
    1716:	c85a                	sw	s6,16(sp)
    1718:	c65e                	sw	s7,12(sp)
    171a:	d606                	sw	ra,44(sp)
    171c:	d226                	sw	s1,36(sp)
    171e:	ca56                	sw	s5,20(sp)
    1720:	892a                	mv	s2,a0
    1722:	8a2e                	mv	s4,a1
    1724:	04850413          	addi	s0,a0,72
    1728:	4981                	li	s3,0
    172a:	4b05                	li	s6,1
    172c:	5bfd                	li	s7,-1
    172e:	4404                	lw	s1,8(s0)
    1730:	00442a83          	lw	s5,4(s0)
    1734:	1afd                	addi	s5,s5,-1 # ffff <_data_lma+0xdae3>
    1736:	020ad063          	bgez	s5,1756 <_fwalk_reent+0x4a>
    173a:	4000                	lw	s0,0(s0)
    173c:	f86d                	bnez	s0,172e <_fwalk_reent+0x22>
    173e:	50b2                	lw	ra,44(sp)
    1740:	5422                	lw	s0,40(sp)
    1742:	5492                	lw	s1,36(sp)
    1744:	5902                	lw	s2,32(sp)
    1746:	4a62                	lw	s4,24(sp)
    1748:	4ad2                	lw	s5,20(sp)
    174a:	4b42                	lw	s6,16(sp)
    174c:	4bb2                	lw	s7,12(sp)
    174e:	854e                	mv	a0,s3
    1750:	49f2                	lw	s3,28(sp)
    1752:	6145                	addi	sp,sp,48
    1754:	8082                	ret
    1756:	24de                	lhu	a5,12(s1)
    1758:	00fb7b63          	bgeu	s6,a5,176e <_fwalk_reent+0x62>
    175c:	00e49783          	lh	a5,14(s1)
    1760:	01778763          	beq	a5,s7,176e <_fwalk_reent+0x62>
    1764:	85a6                	mv	a1,s1
    1766:	854a                	mv	a0,s2
    1768:	9a02                	jalr	s4
    176a:	00a9e9b3          	or	s3,s3,a0
    176e:	06848493          	addi	s1,s1,104
    1772:	b7c9                	j	1734 <_fwalk_reent+0x28>

00001774 <__retarget_lock_init_recursive>:
__retarget_lock_init_recursive():
    1774:	8082                	ret

00001776 <__retarget_lock_acquire_recursive>:
__retarget_lock_acquire_recursive():
    1776:	8082                	ret

00001778 <__retarget_lock_release_recursive>:
__retarget_lock_release_recursive():
    1778:	8082                	ret

0000177a <__swhatbuf_r>:
__swhatbuf_r():
    177a:	7159                	addi	sp,sp,-112
    177c:	d4a2                	sw	s0,104(sp)
    177e:	842e                	mv	s0,a1
    1780:	00e59583          	lh	a1,14(a1)
    1784:	d2a6                	sw	s1,100(sp)
    1786:	d0ca                	sw	s2,96(sp)
    1788:	d686                	sw	ra,108(sp)
    178a:	84b2                	mv	s1,a2
    178c:	8936                	mv	s2,a3
    178e:	0205d263          	bgez	a1,17b2 <__swhatbuf_r+0x38>
    1792:	245e                	lhu	a5,12(s0)
    1794:	0807f793          	andi	a5,a5,128
    1798:	eb8d                	bnez	a5,17ca <__swhatbuf_r+0x50>
    179a:	40000713          	li	a4,1024
    179e:	50b6                	lw	ra,108(sp)
    17a0:	5426                	lw	s0,104(sp)
    17a2:	00f92023          	sw	a5,0(s2)
    17a6:	c098                	sw	a4,0(s1)
    17a8:	5906                	lw	s2,96(sp)
    17aa:	5496                	lw	s1,100(sp)
    17ac:	4501                	li	a0,0
    17ae:	6165                	addi	sp,sp,112
    17b0:	8082                	ret
    17b2:	0030                	addi	a2,sp,8
    17b4:	2de1                	jal	1e8c <_fstat_r>
    17b6:	fc054ee3          	bltz	a0,1792 <__swhatbuf_r+0x18>
    17ba:	4732                	lw	a4,12(sp)
    17bc:	67bd                	lui	a5,0xf
    17be:	8ff9                	and	a5,a5,a4
    17c0:	7779                	lui	a4,0xffffe
    17c2:	97ba                	add	a5,a5,a4
    17c4:	0017b793          	seqz	a5,a5
    17c8:	bfc9                	j	179a <__swhatbuf_r+0x20>
    17ca:	4781                	li	a5,0
    17cc:	04000713          	li	a4,64
    17d0:	b7f9                	j	179e <__swhatbuf_r+0x24>

000017d2 <__smakebuf_r>:
__smakebuf_r():
    17d2:	25de                	lhu	a5,12(a1)
    17d4:	7179                	addi	sp,sp,-48
    17d6:	d422                	sw	s0,40(sp)
    17d8:	d606                	sw	ra,44(sp)
    17da:	d226                	sw	s1,36(sp)
    17dc:	d04a                	sw	s2,32(sp)
    17de:	ce4e                	sw	s3,28(sp)
    17e0:	8b89                	andi	a5,a5,2
    17e2:	842e                	mv	s0,a1
    17e4:	cf91                	beqz	a5,1800 <__smakebuf_r+0x2e>
    17e6:	04740793          	addi	a5,s0,71
    17ea:	c01c                	sw	a5,0(s0)
    17ec:	c81c                	sw	a5,16(s0)
    17ee:	4785                	li	a5,1
    17f0:	c85c                	sw	a5,20(s0)
    17f2:	50b2                	lw	ra,44(sp)
    17f4:	5422                	lw	s0,40(sp)
    17f6:	5492                	lw	s1,36(sp)
    17f8:	5902                	lw	s2,32(sp)
    17fa:	49f2                	lw	s3,28(sp)
    17fc:	6145                	addi	sp,sp,48
    17fe:	8082                	ret
    1800:	0074                	addi	a3,sp,12
    1802:	0030                	addi	a2,sp,8
    1804:	84aa                	mv	s1,a0
    1806:	3f95                	jal	177a <__swhatbuf_r>
    1808:	49a2                	lw	s3,8(sp)
    180a:	892a                	mv	s2,a0
    180c:	8526                	mv	a0,s1
    180e:	85ce                	mv	a1,s3
    1810:	2299                	jal	1956 <_malloc_r>
    1812:	e919                	bnez	a0,1828 <__smakebuf_r+0x56>
    1814:	00c41783          	lh	a5,12(s0)
    1818:	2007f713          	andi	a4,a5,512
    181c:	fb79                	bnez	a4,17f2 <__smakebuf_r+0x20>
    181e:	9bf1                	andi	a5,a5,-4
    1820:	0027e793          	ori	a5,a5,2
    1824:	a45e                	sh	a5,12(s0)
    1826:	b7c1                	j	17e6 <__smakebuf_r+0x14>
    1828:	00000797          	auipc	a5,0x0
    182c:	d6e78793          	addi	a5,a5,-658 # 1596 <_cleanup_r>
    1830:	d49c                	sw	a5,40(s1)
    1832:	245e                	lhu	a5,12(s0)
    1834:	c008                	sw	a0,0(s0)
    1836:	c808                	sw	a0,16(s0)
    1838:	0807e793          	ori	a5,a5,128
    183c:	a45e                	sh	a5,12(s0)
    183e:	47b2                	lw	a5,12(sp)
    1840:	01342a23          	sw	s3,20(s0)
    1844:	cb99                	beqz	a5,185a <__smakebuf_r+0x88>
    1846:	00e41583          	lh	a1,14(s0)
    184a:	8526                	mv	a0,s1
    184c:	25a5                	jal	1eb4 <_isatty_r>
    184e:	c511                	beqz	a0,185a <__smakebuf_r+0x88>
    1850:	245e                	lhu	a5,12(s0)
    1852:	9bf1                	andi	a5,a5,-4
    1854:	0017e793          	ori	a5,a5,1
    1858:	a45e                	sh	a5,12(s0)
    185a:	245e                	lhu	a5,12(s0)
    185c:	0127e533          	or	a0,a5,s2
    1860:	a44a                	sh	a0,12(s0)
    1862:	bf41                	j	17f2 <__smakebuf_r+0x20>

00001864 <_free_r>:
_free_r():
    1864:	cdd1                	beqz	a1,1900 <_free_r+0x9c>
    1866:	ffc5a783          	lw	a5,-4(a1)
    186a:	1101                	addi	sp,sp,-32
    186c:	cc22                	sw	s0,24(sp)
    186e:	ce06                	sw	ra,28(sp)
    1870:	ffc58413          	addi	s0,a1,-4
    1874:	0007d363          	bgez	a5,187a <_free_r+0x16>
    1878:	943e                	add	s0,s0,a5
    187a:	c62a                	sw	a0,12(sp)
    187c:	2545                	jal	1f1c <__malloc_lock>
    187e:	82018713          	addi	a4,gp,-2016 # 20000a18 <__malloc_free_list>
    1882:	431c                	lw	a5,0(a4)
    1884:	4532                	lw	a0,12(sp)
    1886:	eb81                	bnez	a5,1896 <_free_r+0x32>
    1888:	00042223          	sw	zero,4(s0)
    188c:	c300                	sw	s0,0(a4)
    188e:	4462                	lw	s0,24(sp)
    1890:	40f2                	lw	ra,28(sp)
    1892:	6105                	addi	sp,sp,32
    1894:	ad41                	j	1f24 <__malloc_unlock>
    1896:	00f47d63          	bgeu	s0,a5,18b0 <_free_r+0x4c>
    189a:	4010                	lw	a2,0(s0)
    189c:	00c406b3          	add	a3,s0,a2
    18a0:	00d79663          	bne	a5,a3,18ac <_free_r+0x48>
    18a4:	4394                	lw	a3,0(a5)
    18a6:	43dc                	lw	a5,4(a5)
    18a8:	96b2                	add	a3,a3,a2
    18aa:	c014                	sw	a3,0(s0)
    18ac:	c05c                	sw	a5,4(s0)
    18ae:	bff9                	j	188c <_free_r+0x28>
    18b0:	873e                	mv	a4,a5
    18b2:	43dc                	lw	a5,4(a5)
    18b4:	c399                	beqz	a5,18ba <_free_r+0x56>
    18b6:	fef47de3          	bgeu	s0,a5,18b0 <_free_r+0x4c>
    18ba:	4314                	lw	a3,0(a4)
    18bc:	00d70633          	add	a2,a4,a3
    18c0:	00861f63          	bne	a2,s0,18de <_free_r+0x7a>
    18c4:	4010                	lw	a2,0(s0)
    18c6:	96b2                	add	a3,a3,a2
    18c8:	c314                	sw	a3,0(a4)
    18ca:	00d70633          	add	a2,a4,a3
    18ce:	fcc790e3          	bne	a5,a2,188e <_free_r+0x2a>
    18d2:	4390                	lw	a2,0(a5)
    18d4:	43dc                	lw	a5,4(a5)
    18d6:	96b2                	add	a3,a3,a2
    18d8:	c314                	sw	a3,0(a4)
    18da:	c35c                	sw	a5,4(a4)
    18dc:	bf4d                	j	188e <_free_r+0x2a>
    18de:	00c47563          	bgeu	s0,a2,18e8 <_free_r+0x84>
    18e2:	47b1                	li	a5,12
    18e4:	c11c                	sw	a5,0(a0)
    18e6:	b765                	j	188e <_free_r+0x2a>
    18e8:	4010                	lw	a2,0(s0)
    18ea:	00c406b3          	add	a3,s0,a2
    18ee:	00d79663          	bne	a5,a3,18fa <_free_r+0x96>
    18f2:	4394                	lw	a3,0(a5)
    18f4:	43dc                	lw	a5,4(a5)
    18f6:	96b2                	add	a3,a3,a2
    18f8:	c014                	sw	a3,0(s0)
    18fa:	c05c                	sw	a5,4(s0)
    18fc:	c340                	sw	s0,4(a4)
    18fe:	bf41                	j	188e <_free_r+0x2a>
    1900:	8082                	ret

00001902 <sbrk_aligned>:
sbrk_aligned():
    1902:	1141                	addi	sp,sp,-16
    1904:	c04a                	sw	s2,0(sp)
    1906:	81c18913          	addi	s2,gp,-2020 # 20000a14 <__malloc_sbrk_start>
    190a:	00092783          	lw	a5,0(s2)
    190e:	c422                	sw	s0,8(sp)
    1910:	c226                	sw	s1,4(sp)
    1912:	c606                	sw	ra,12(sp)
    1914:	84aa                	mv	s1,a0
    1916:	842e                	mv	s0,a1
    1918:	e789                	bnez	a5,1922 <sbrk_aligned+0x20>
    191a:	4581                	li	a1,0
    191c:	2989                	jal	1d6e <_sbrk_r>
    191e:	00a92023          	sw	a0,0(s2)
    1922:	85a2                	mv	a1,s0
    1924:	8526                	mv	a0,s1
    1926:	21a1                	jal	1d6e <_sbrk_r>
    1928:	597d                	li	s2,-1
    192a:	01251a63          	bne	a0,s2,193e <sbrk_aligned+0x3c>
    192e:	547d                	li	s0,-1
    1930:	40b2                	lw	ra,12(sp)
    1932:	8522                	mv	a0,s0
    1934:	4422                	lw	s0,8(sp)
    1936:	4492                	lw	s1,4(sp)
    1938:	4902                	lw	s2,0(sp)
    193a:	0141                	addi	sp,sp,16
    193c:	8082                	ret
    193e:	00350413          	addi	s0,a0,3
    1942:	9871                	andi	s0,s0,-4
    1944:	fe8506e3          	beq	a0,s0,1930 <sbrk_aligned+0x2e>
    1948:	40a405b3          	sub	a1,s0,a0
    194c:	8526                	mv	a0,s1
    194e:	2105                	jal	1d6e <_sbrk_r>
    1950:	ff2510e3          	bne	a0,s2,1930 <sbrk_aligned+0x2e>
    1954:	bfe9                	j	192e <sbrk_aligned+0x2c>

00001956 <_malloc_r>:
_malloc_r():
    1956:	1101                	addi	sp,sp,-32
    1958:	ca26                	sw	s1,20(sp)
    195a:	00358493          	addi	s1,a1,3
    195e:	98f1                	andi	s1,s1,-4
    1960:	c84a                	sw	s2,16(sp)
    1962:	04a1                	addi	s1,s1,8
    1964:	47b1                	li	a5,12
    1966:	ce06                	sw	ra,28(sp)
    1968:	cc22                	sw	s0,24(sp)
    196a:	c64e                	sw	s3,12(sp)
    196c:	892a                	mv	s2,a0
    196e:	0af4f4b3          	maxu	s1,s1,a5
    1972:	0004c463          	bltz	s1,197a <_malloc_r+0x24>
    1976:	00b4fd63          	bgeu	s1,a1,1990 <_malloc_r+0x3a>
    197a:	47b1                	li	a5,12
    197c:	00f92023          	sw	a5,0(s2)
    1980:	4501                	li	a0,0
    1982:	40f2                	lw	ra,28(sp)
    1984:	4462                	lw	s0,24(sp)
    1986:	44d2                	lw	s1,20(sp)
    1988:	4942                	lw	s2,16(sp)
    198a:	49b2                	lw	s3,12(sp)
    198c:	6105                	addi	sp,sp,32
    198e:	8082                	ret
    1990:	2371                	jal	1f1c <__malloc_lock>
    1992:	82018993          	addi	s3,gp,-2016 # 20000a18 <__malloc_free_list>
    1996:	0009a783          	lw	a5,0(s3)
    199a:	843e                	mv	s0,a5
    199c:	e431                	bnez	s0,19e8 <_malloc_r+0x92>
    199e:	85a6                	mv	a1,s1
    19a0:	854a                	mv	a0,s2
    19a2:	3785                	jal	1902 <sbrk_aligned>
    19a4:	57fd                	li	a5,-1
    19a6:	842a                	mv	s0,a0
    19a8:	0af51663          	bne	a0,a5,1a54 <_malloc_r+0xfe>
    19ac:	0009a403          	lw	s0,0(s3)
    19b0:	87a2                	mv	a5,s0
    19b2:	ebc1                	bnez	a5,1a42 <_malloc_r+0xec>
    19b4:	00042983          	lw	s3,0(s0)
    19b8:	4581                	li	a1,0
    19ba:	854a                	mv	a0,s2
    19bc:	99a2                	add	s3,s3,s0
    19be:	2e45                	jal	1d6e <_sbrk_r>
    19c0:	08a99463          	bne	s3,a0,1a48 <_malloc_r+0xf2>
    19c4:	401c                	lw	a5,0(s0)
    19c6:	048d                	addi	s1,s1,3
    19c8:	854a                	mv	a0,s2
    19ca:	8c9d                	sub	s1,s1,a5
    19cc:	98f1                	andi	s1,s1,-4
    19ce:	47b1                	li	a5,12
    19d0:	04a1                	addi	s1,s1,8
    19d2:	0af4f4b3          	maxu	s1,s1,a5
    19d6:	85a6                	mv	a1,s1
    19d8:	372d                	jal	1902 <sbrk_aligned>
    19da:	57fd                	li	a5,-1
    19dc:	06f50663          	beq	a0,a5,1a48 <_malloc_r+0xf2>
    19e0:	401c                	lw	a5,0(s0)
    19e2:	97a6                	add	a5,a5,s1
    19e4:	c01c                	sw	a5,0(s0)
    19e6:	a015                	j	1a0a <_malloc_r+0xb4>
    19e8:	4014                	lw	a3,0(s0)
    19ea:	8e85                	sub	a3,a3,s1
    19ec:	0406c863          	bltz	a3,1a3c <_malloc_r+0xe6>
    19f0:	472d                	li	a4,11
    19f2:	02d77d63          	bgeu	a4,a3,1a2c <_malloc_r+0xd6>
    19f6:	c004                	sw	s1,0(s0)
    19f8:	00940733          	add	a4,s0,s1
    19fc:	02879663          	bne	a5,s0,1a28 <_malloc_r+0xd2>
    1a00:	00e9a023          	sw	a4,0(s3)
    1a04:	405c                	lw	a5,4(s0)
    1a06:	c314                	sw	a3,0(a4)
    1a08:	c35c                	sw	a5,4(a4)
    1a0a:	854a                	mv	a0,s2
    1a0c:	2b21                	jal	1f24 <__malloc_unlock>
    1a0e:	00b40513          	addi	a0,s0,11
    1a12:	00440793          	addi	a5,s0,4
    1a16:	9961                	andi	a0,a0,-8
    1a18:	40f50733          	sub	a4,a0,a5
    1a1c:	f6f503e3          	beq	a0,a5,1982 <_malloc_r+0x2c>
    1a20:	943a                	add	s0,s0,a4
    1a22:	8f89                	sub	a5,a5,a0
    1a24:	c01c                	sw	a5,0(s0)
    1a26:	bfb1                	j	1982 <_malloc_r+0x2c>
    1a28:	c3d8                	sw	a4,4(a5)
    1a2a:	bfe9                	j	1a04 <_malloc_r+0xae>
    1a2c:	4058                	lw	a4,4(s0)
    1a2e:	00879563          	bne	a5,s0,1a38 <_malloc_r+0xe2>
    1a32:	00e9a023          	sw	a4,0(s3)
    1a36:	bfd1                	j	1a0a <_malloc_r+0xb4>
    1a38:	c3d8                	sw	a4,4(a5)
    1a3a:	bfc1                	j	1a0a <_malloc_r+0xb4>
    1a3c:	87a2                	mv	a5,s0
    1a3e:	4040                	lw	s0,4(s0)
    1a40:	bfb1                	j	199c <_malloc_r+0x46>
    1a42:	843e                	mv	s0,a5
    1a44:	43dc                	lw	a5,4(a5)
    1a46:	b7b5                	j	19b2 <_malloc_r+0x5c>
    1a48:	47b1                	li	a5,12
    1a4a:	00f92023          	sw	a5,0(s2)
    1a4e:	854a                	mv	a0,s2
    1a50:	29d1                	jal	1f24 <__malloc_unlock>
    1a52:	b73d                	j	1980 <_malloc_r+0x2a>
    1a54:	c104                	sw	s1,0(a0)
    1a56:	bf55                	j	1a0a <_malloc_r+0xb4>

00001a58 <__sfputc_r>:
__sfputc_r():
    1a58:	461c                	lw	a5,8(a2)
    1a5a:	17fd                	addi	a5,a5,-1
    1a5c:	c61c                	sw	a5,8(a2)
    1a5e:	0007da63          	bgez	a5,1a72 <__sfputc_r+0x1a>
    1a62:	4e18                	lw	a4,24(a2)
    1a64:	00e7c563          	blt	a5,a4,1a6e <__sfputc_r+0x16>
    1a68:	47a9                	li	a5,10
    1a6a:	00f59463          	bne	a1,a5,1a72 <__sfputc_r+0x1a>
    1a6e:	f5cff06f          	j	11ca <__swbuf_r>
    1a72:	421c                	lw	a5,0(a2)
    1a74:	852e                	mv	a0,a1
    1a76:	00178713          	addi	a4,a5,1
    1a7a:	c218                	sw	a4,0(a2)
    1a7c:	a38c                	sb	a1,0(a5)
    1a7e:	8082                	ret

00001a80 <__sfputs_r>:
__sfputs_r():
    1a80:	1101                	addi	sp,sp,-32
    1a82:	cc22                	sw	s0,24(sp)
    1a84:	ca26                	sw	s1,20(sp)
    1a86:	c84a                	sw	s2,16(sp)
    1a88:	c64e                	sw	s3,12(sp)
    1a8a:	c452                	sw	s4,8(sp)
    1a8c:	ce06                	sw	ra,28(sp)
    1a8e:	892a                	mv	s2,a0
    1a90:	89ae                	mv	s3,a1
    1a92:	8432                	mv	s0,a2
    1a94:	00d604b3          	add	s1,a2,a3
    1a98:	5a7d                	li	s4,-1
    1a9a:	00941463          	bne	s0,s1,1aa2 <__sfputs_r+0x22>
    1a9e:	4501                	li	a0,0
    1aa0:	a801                	j	1ab0 <__sfputs_r+0x30>
    1aa2:	200c                	lbu	a1,0(s0)
    1aa4:	864e                	mv	a2,s3
    1aa6:	854a                	mv	a0,s2
    1aa8:	3f45                	jal	1a58 <__sfputc_r>
    1aaa:	0405                	addi	s0,s0,1
    1aac:	ff4517e3          	bne	a0,s4,1a9a <__sfputs_r+0x1a>
    1ab0:	40f2                	lw	ra,28(sp)
    1ab2:	4462                	lw	s0,24(sp)
    1ab4:	44d2                	lw	s1,20(sp)
    1ab6:	4942                	lw	s2,16(sp)
    1ab8:	49b2                	lw	s3,12(sp)
    1aba:	4a22                	lw	s4,8(sp)
    1abc:	6105                	addi	sp,sp,32
    1abe:	8082                	ret

00001ac0 <_vfiprintf_r>:
_vfiprintf_r():
    1ac0:	7135                	addi	sp,sp,-160
    1ac2:	cd22                	sw	s0,152(sp)
    1ac4:	cb26                	sw	s1,148(sp)
    1ac6:	c94a                	sw	s2,144(sp)
    1ac8:	c74e                	sw	s3,140(sp)
    1aca:	cf06                	sw	ra,156(sp)
    1acc:	c552                	sw	s4,136(sp)
    1ace:	c356                	sw	s5,132(sp)
    1ad0:	c15a                	sw	s6,128(sp)
    1ad2:	dede                	sw	s7,124(sp)
    1ad4:	dce2                	sw	s8,120(sp)
    1ad6:	89aa                	mv	s3,a0
    1ad8:	842e                	mv	s0,a1
    1ada:	8932                	mv	s2,a2
    1adc:	84b6                	mv	s1,a3
    1ade:	c501                	beqz	a0,1ae6 <_vfiprintf_r+0x26>
    1ae0:	4d1c                	lw	a5,24(a0)
    1ae2:	e391                	bnez	a5,1ae6 <_vfiprintf_r+0x26>
    1ae4:	3e29                	jal	15fe <__sinit>
    1ae6:	00001797          	auipc	a5,0x1
    1aea:	97e78793          	addi	a5,a5,-1666 # 2464 <__sf_fake_stdin>
    1aee:	04f41763          	bne	s0,a5,1b3c <_vfiprintf_r+0x7c>
    1af2:	0049a403          	lw	s0,4(s3)
    1af6:	507c                	lw	a5,100(s0)
    1af8:	8b85                	andi	a5,a5,1
    1afa:	e799                	bnez	a5,1b08 <_vfiprintf_r+0x48>
    1afc:	245e                	lhu	a5,12(s0)
    1afe:	2007f793          	andi	a5,a5,512
    1b02:	e399                	bnez	a5,1b08 <_vfiprintf_r+0x48>
    1b04:	4c28                	lw	a0,88(s0)
    1b06:	3985                	jal	1776 <__retarget_lock_acquire_recursive>
    1b08:	245e                	lhu	a5,12(s0)
    1b0a:	8ba1                	andi	a5,a5,8
    1b0c:	c399                	beqz	a5,1b12 <_vfiprintf_r+0x52>
    1b0e:	481c                	lw	a5,16(s0)
    1b10:	efb9                	bnez	a5,1b6e <_vfiprintf_r+0xae>
    1b12:	85a2                	mv	a1,s0
    1b14:	854e                	mv	a0,s3
    1b16:	f70ff0ef          	jal	ra,1286 <__swsetup_r>
    1b1a:	c931                	beqz	a0,1b6e <_vfiprintf_r+0xae>
    1b1c:	507c                	lw	a5,100(s0)
    1b1e:	8b85                	andi	a5,a5,1
    1b20:	c3a1                	beqz	a5,1b60 <_vfiprintf_r+0xa0>
    1b22:	557d                	li	a0,-1
    1b24:	40fa                	lw	ra,156(sp)
    1b26:	446a                	lw	s0,152(sp)
    1b28:	44da                	lw	s1,148(sp)
    1b2a:	494a                	lw	s2,144(sp)
    1b2c:	49ba                	lw	s3,140(sp)
    1b2e:	4a2a                	lw	s4,136(sp)
    1b30:	4a9a                	lw	s5,132(sp)
    1b32:	4b0a                	lw	s6,128(sp)
    1b34:	5bf6                	lw	s7,124(sp)
    1b36:	5c66                	lw	s8,120(sp)
    1b38:	610d                	addi	sp,sp,160
    1b3a:	8082                	ret
    1b3c:	00001797          	auipc	a5,0x1
    1b40:	90878793          	addi	a5,a5,-1784 # 2444 <__sf_fake_stdout>
    1b44:	00f41563          	bne	s0,a5,1b4e <_vfiprintf_r+0x8e>
    1b48:	0089a403          	lw	s0,8(s3)
    1b4c:	b76d                	j	1af6 <_vfiprintf_r+0x36>
    1b4e:	00001797          	auipc	a5,0x1
    1b52:	8d678793          	addi	a5,a5,-1834 # 2424 <__sf_fake_stderr>
    1b56:	faf410e3          	bne	s0,a5,1af6 <_vfiprintf_r+0x36>
    1b5a:	00c9a403          	lw	s0,12(s3)
    1b5e:	bf61                	j	1af6 <_vfiprintf_r+0x36>
    1b60:	245e                	lhu	a5,12(s0)
    1b62:	2007f793          	andi	a5,a5,512
    1b66:	ffd5                	bnez	a5,1b22 <_vfiprintf_r+0x62>
    1b68:	4c28                	lw	a0,88(s0)
    1b6a:	3139                	jal	1778 <__retarget_lock_release_recursive>
    1b6c:	bf5d                	j	1b22 <_vfiprintf_r+0x62>
    1b6e:	02000793          	li	a5,32
    1b72:	02f104a3          	sb	a5,41(sp)
    1b76:	03000793          	li	a5,48
    1b7a:	d202                	sw	zero,36(sp)
    1b7c:	02f10523          	sb	a5,42(sp)
    1b80:	c626                	sw	s1,12(sp)
    1b82:	02500b93          	li	s7,37
    1b86:	00001a97          	auipc	s5,0x1
    1b8a:	8fea8a93          	addi	s5,s5,-1794 # 2484 <__sf_fake_stdin+0x20>
    1b8e:	4b29                	li	s6,10
    1b90:	84ca                	mv	s1,s2
    1b92:	209c                	lbu	a5,0(s1)
    1b94:	c399                	beqz	a5,1b9a <_vfiprintf_r+0xda>
    1b96:	09779963          	bne	a5,s7,1c28 <_vfiprintf_r+0x168>
    1b9a:	41248c33          	sub	s8,s1,s2
    1b9e:	01248d63          	beq	s1,s2,1bb8 <_vfiprintf_r+0xf8>
    1ba2:	86e2                	mv	a3,s8
    1ba4:	864a                	mv	a2,s2
    1ba6:	85a2                	mv	a1,s0
    1ba8:	854e                	mv	a0,s3
    1baa:	3dd9                	jal	1a80 <__sfputs_r>
    1bac:	57fd                	li	a5,-1
    1bae:	18f50663          	beq	a0,a5,1d3a <_vfiprintf_r+0x27a>
    1bb2:	5792                	lw	a5,36(sp)
    1bb4:	97e2                	add	a5,a5,s8
    1bb6:	d23e                	sw	a5,36(sp)
    1bb8:	209c                	lbu	a5,0(s1)
    1bba:	18078063          	beqz	a5,1d3a <_vfiprintf_r+0x27a>
    1bbe:	57fd                	li	a5,-1
    1bc0:	00148913          	addi	s2,s1,1
    1bc4:	c802                	sw	zero,16(sp)
    1bc6:	ce02                	sw	zero,28(sp)
    1bc8:	ca3e                	sw	a5,20(sp)
    1bca:	cc02                	sw	zero,24(sp)
    1bcc:	040109a3          	sb	zero,83(sp)
    1bd0:	d482                	sw	zero,104(sp)
    1bd2:	00094583          	lbu	a1,0(s2)
    1bd6:	4615                	li	a2,5
    1bd8:	8556                	mv	a0,s5
    1bda:	262d                	jal	1f04 <memchr>
    1bdc:	47c2                	lw	a5,16(sp)
    1bde:	00190493          	addi	s1,s2,1
    1be2:	e529                	bnez	a0,1c2c <_vfiprintf_r+0x16c>
    1be4:	0107f713          	andi	a4,a5,16
    1be8:	c709                	beqz	a4,1bf2 <_vfiprintf_r+0x132>
    1bea:	02000713          	li	a4,32
    1bee:	04e109a3          	sb	a4,83(sp)
    1bf2:	0087f713          	andi	a4,a5,8
    1bf6:	c709                	beqz	a4,1c00 <_vfiprintf_r+0x140>
    1bf8:	02b00713          	li	a4,43
    1bfc:	04e109a3          	sb	a4,83(sp)
    1c00:	00094683          	lbu	a3,0(s2)
    1c04:	02a00713          	li	a4,42
    1c08:	02e68963          	beq	a3,a4,1c3a <_vfiprintf_r+0x17a>
    1c0c:	47f2                	lw	a5,28(sp)
    1c0e:	84ca                	mv	s1,s2
    1c10:	4681                	li	a3,0
    1c12:	4625                	li	a2,9
    1c14:	2098                	lbu	a4,0(s1)
    1c16:	00148593          	addi	a1,s1,1
    1c1a:	fd070713          	addi	a4,a4,-48 # ffffdfd0 <_eusrstack+0xdfffafd0>
    1c1e:	06e67263          	bgeu	a2,a4,1c82 <_vfiprintf_r+0x1c2>
    1c22:	c685                	beqz	a3,1c4a <_vfiprintf_r+0x18a>
    1c24:	ce3e                	sw	a5,28(sp)
    1c26:	a015                	j	1c4a <_vfiprintf_r+0x18a>
    1c28:	0485                	addi	s1,s1,1
    1c2a:	b7a5                	j	1b92 <_vfiprintf_r+0xd2>
    1c2c:	41550533          	sub	a0,a0,s5
    1c30:	28a797b3          	bset	a5,a5,a0
    1c34:	8926                	mv	s2,s1
    1c36:	c83e                	sw	a5,16(sp)
    1c38:	bf69                	j	1bd2 <_vfiprintf_r+0x112>
    1c3a:	4732                	lw	a4,12(sp)
    1c3c:	00470693          	addi	a3,a4,4
    1c40:	4318                	lw	a4,0(a4)
    1c42:	c636                	sw	a3,12(sp)
    1c44:	02074863          	bltz	a4,1c74 <_vfiprintf_r+0x1b4>
    1c48:	ce3a                	sw	a4,28(sp)
    1c4a:	2098                	lbu	a4,0(s1)
    1c4c:	02e00793          	li	a5,46
    1c50:	04f71c63          	bne	a4,a5,1ca8 <_vfiprintf_r+0x1e8>
    1c54:	3098                	lbu	a4,1(s1)
    1c56:	02a00793          	li	a5,42
    1c5a:	02f71a63          	bne	a4,a5,1c8e <_vfiprintf_r+0x1ce>
    1c5e:	47b2                	lw	a5,12(sp)
    1c60:	0489                	addi	s1,s1,2
    1c62:	00478713          	addi	a4,a5,4
    1c66:	439c                	lw	a5,0(a5)
    1c68:	c63a                	sw	a4,12(sp)
    1c6a:	577d                	li	a4,-1
    1c6c:	0ae7e7b3          	max	a5,a5,a4
    1c70:	ca3e                	sw	a5,20(sp)
    1c72:	a81d                	j	1ca8 <_vfiprintf_r+0x1e8>
    1c74:	40e00733          	neg	a4,a4
    1c78:	0027e793          	ori	a5,a5,2
    1c7c:	ce3a                	sw	a4,28(sp)
    1c7e:	c83e                	sw	a5,16(sp)
    1c80:	b7e9                	j	1c4a <_vfiprintf_r+0x18a>
    1c82:	036787b3          	mul	a5,a5,s6
    1c86:	84ae                	mv	s1,a1
    1c88:	4685                	li	a3,1
    1c8a:	97ba                	add	a5,a5,a4
    1c8c:	b761                	j	1c14 <_vfiprintf_r+0x154>
    1c8e:	0485                	addi	s1,s1,1
    1c90:	ca02                	sw	zero,20(sp)
    1c92:	4681                	li	a3,0
    1c94:	4781                	li	a5,0
    1c96:	4625                	li	a2,9
    1c98:	2098                	lbu	a4,0(s1)
    1c9a:	00148593          	addi	a1,s1,1
    1c9e:	fd070713          	addi	a4,a4,-48
    1ca2:	06e67263          	bgeu	a2,a4,1d06 <_vfiprintf_r+0x246>
    1ca6:	f6e9                	bnez	a3,1c70 <_vfiprintf_r+0x1b0>
    1ca8:	208c                	lbu	a1,0(s1)
    1caa:	460d                	li	a2,3
    1cac:	00000517          	auipc	a0,0x0
    1cb0:	7e050513          	addi	a0,a0,2016 # 248c <__sf_fake_stdin+0x28>
    1cb4:	2c81                	jal	1f04 <memchr>
    1cb6:	cd11                	beqz	a0,1cd2 <_vfiprintf_r+0x212>
    1cb8:	00000797          	auipc	a5,0x0
    1cbc:	7d478793          	addi	a5,a5,2004 # 248c <__sf_fake_stdin+0x28>
    1cc0:	8d1d                	sub	a0,a0,a5
    1cc2:	47c2                	lw	a5,16(sp)
    1cc4:	04000713          	li	a4,64
    1cc8:	00a71733          	sll	a4,a4,a0
    1ccc:	8fd9                	or	a5,a5,a4
    1cce:	0485                	addi	s1,s1,1
    1cd0:	c83e                	sw	a5,16(sp)
    1cd2:	208c                	lbu	a1,0(s1)
    1cd4:	4619                	li	a2,6
    1cd6:	00000517          	auipc	a0,0x0
    1cda:	7ba50513          	addi	a0,a0,1978 # 2490 <__sf_fake_stdin+0x2c>
    1cde:	00148913          	addi	s2,s1,1
    1ce2:	02b10423          	sb	a1,40(sp)
    1ce6:	2c39                	jal	1f04 <memchr>
    1ce8:	c92d                	beqz	a0,1d5a <_vfiprintf_r+0x29a>
    1cea:	00000793          	li	a5,0
    1cee:	e795                	bnez	a5,1d1a <_vfiprintf_r+0x25a>
    1cf0:	4742                	lw	a4,16(sp)
    1cf2:	47b2                	lw	a5,12(sp)
    1cf4:	10077713          	andi	a4,a4,256
    1cf8:	cf09                	beqz	a4,1d12 <_vfiprintf_r+0x252>
    1cfa:	0791                	addi	a5,a5,4
    1cfc:	c63e                	sw	a5,12(sp)
    1cfe:	5792                	lw	a5,36(sp)
    1d00:	97d2                	add	a5,a5,s4
    1d02:	d23e                	sw	a5,36(sp)
    1d04:	b571                	j	1b90 <_vfiprintf_r+0xd0>
    1d06:	036787b3          	mul	a5,a5,s6
    1d0a:	84ae                	mv	s1,a1
    1d0c:	4685                	li	a3,1
    1d0e:	97ba                	add	a5,a5,a4
    1d10:	b761                	j	1c98 <_vfiprintf_r+0x1d8>
    1d12:	079d                	addi	a5,a5,7
    1d14:	9be1                	andi	a5,a5,-8
    1d16:	07a1                	addi	a5,a5,8
    1d18:	b7d5                	j	1cfc <_vfiprintf_r+0x23c>
    1d1a:	0078                	addi	a4,sp,12
    1d1c:	00000697          	auipc	a3,0x0
    1d20:	d6468693          	addi	a3,a3,-668 # 1a80 <__sfputs_r>
    1d24:	8622                	mv	a2,s0
    1d26:	080c                	addi	a1,sp,16
    1d28:	854e                	mv	a0,s3
    1d2a:	00000097          	auipc	ra,0x0
    1d2e:	000000e7          	jalr	zero # 0 <_sinit>
    1d32:	57fd                	li	a5,-1
    1d34:	8a2a                	mv	s4,a0
    1d36:	fcf514e3          	bne	a0,a5,1cfe <_vfiprintf_r+0x23e>
    1d3a:	507c                	lw	a5,100(s0)
    1d3c:	8b85                	andi	a5,a5,1
    1d3e:	e799                	bnez	a5,1d4c <_vfiprintf_r+0x28c>
    1d40:	245e                	lhu	a5,12(s0)
    1d42:	2007f793          	andi	a5,a5,512
    1d46:	e399                	bnez	a5,1d4c <_vfiprintf_r+0x28c>
    1d48:	4c28                	lw	a0,88(s0)
    1d4a:	343d                	jal	1778 <__retarget_lock_release_recursive>
    1d4c:	245e                	lhu	a5,12(s0)
    1d4e:	0407f793          	andi	a5,a5,64
    1d52:	dc0798e3          	bnez	a5,1b22 <_vfiprintf_r+0x62>
    1d56:	5512                	lw	a0,36(sp)
    1d58:	b3f1                	j	1b24 <_vfiprintf_r+0x64>
    1d5a:	0078                	addi	a4,sp,12
    1d5c:	00000697          	auipc	a3,0x0
    1d60:	d2468693          	addi	a3,a3,-732 # 1a80 <__sfputs_r>
    1d64:	8622                	mv	a2,s0
    1d66:	080c                	addi	a1,sp,16
    1d68:	854e                	mv	a0,s3
    1d6a:	24f1                	jal	2036 <_printf_i>
    1d6c:	b7d9                	j	1d32 <_vfiprintf_r+0x272>

00001d6e <_sbrk_r>:
_sbrk_r():
    1d6e:	1141                	addi	sp,sp,-16
    1d70:	c422                	sw	s0,8(sp)
    1d72:	842a                	mv	s0,a0
    1d74:	852e                	mv	a0,a1
    1d76:	8201a223          	sw	zero,-2012(gp) # 20000a1c <errno>
    1d7a:	c606                	sw	ra,12(sp)
    1d7c:	918ff0ef          	jal	ra,e94 <_sbrk>
    1d80:	57fd                	li	a5,-1
    1d82:	00f51663          	bne	a0,a5,1d8e <_sbrk_r+0x20>
    1d86:	8241a783          	lw	a5,-2012(gp) # 20000a1c <errno>
    1d8a:	c391                	beqz	a5,1d8e <_sbrk_r+0x20>
    1d8c:	c01c                	sw	a5,0(s0)
    1d8e:	40b2                	lw	ra,12(sp)
    1d90:	4422                	lw	s0,8(sp)
    1d92:	0141                	addi	sp,sp,16
    1d94:	8082                	ret

00001d96 <__sread>:
__sread():
    1d96:	1141                	addi	sp,sp,-16
    1d98:	c422                	sw	s0,8(sp)
    1d9a:	842e                	mv	s0,a1
    1d9c:	00e59583          	lh	a1,14(a1)
    1da0:	c606                	sw	ra,12(sp)
    1da2:	2331                	jal	22ae <_read_r>
    1da4:	00054963          	bltz	a0,1db6 <__sread+0x20>
    1da8:	487c                	lw	a5,84(s0)
    1daa:	97aa                	add	a5,a5,a0
    1dac:	c87c                	sw	a5,84(s0)
    1dae:	40b2                	lw	ra,12(sp)
    1db0:	4422                	lw	s0,8(sp)
    1db2:	0141                	addi	sp,sp,16
    1db4:	8082                	ret
    1db6:	245e                	lhu	a5,12(s0)
    1db8:	48c79793          	bclri	a5,a5,0xc
    1dbc:	a45e                	sh	a5,12(s0)
    1dbe:	bfc5                	j	1dae <__sread+0x18>

00001dc0 <__swrite>:
__swrite():
    1dc0:	25de                	lhu	a5,12(a1)
    1dc2:	1101                	addi	sp,sp,-32
    1dc4:	cc22                	sw	s0,24(sp)
    1dc6:	ca26                	sw	s1,20(sp)
    1dc8:	c84a                	sw	s2,16(sp)
    1dca:	c64e                	sw	s3,12(sp)
    1dcc:	ce06                	sw	ra,28(sp)
    1dce:	1007f793          	andi	a5,a5,256
    1dd2:	84aa                	mv	s1,a0
    1dd4:	842e                	mv	s0,a1
    1dd6:	8932                	mv	s2,a2
    1dd8:	89b6                	mv	s3,a3
    1dda:	c791                	beqz	a5,1de6 <__swrite+0x26>
    1ddc:	00e59583          	lh	a1,14(a1)
    1de0:	4689                	li	a3,2
    1de2:	4601                	li	a2,0
    1de4:	28dd                	jal	1eda <_lseek_r>
    1de6:	245e                	lhu	a5,12(s0)
    1de8:	00e41583          	lh	a1,14(s0)
    1dec:	40f2                	lw	ra,28(sp)
    1dee:	48c79793          	bclri	a5,a5,0xc
    1df2:	a45e                	sh	a5,12(s0)
    1df4:	4462                	lw	s0,24(sp)
    1df6:	86ce                	mv	a3,s3
    1df8:	864a                	mv	a2,s2
    1dfa:	49b2                	lw	s3,12(sp)
    1dfc:	4942                	lw	s2,16(sp)
    1dfe:	8526                	mv	a0,s1
    1e00:	44d2                	lw	s1,20(sp)
    1e02:	6105                	addi	sp,sp,32
    1e04:	a81d                	j	1e3a <_write_r>

00001e06 <__sseek>:
__sseek():
    1e06:	1141                	addi	sp,sp,-16
    1e08:	c422                	sw	s0,8(sp)
    1e0a:	842e                	mv	s0,a1
    1e0c:	00e59583          	lh	a1,14(a1)
    1e10:	c606                	sw	ra,12(sp)
    1e12:	20e1                	jal	1eda <_lseek_r>
    1e14:	577d                	li	a4,-1
    1e16:	245e                	lhu	a5,12(s0)
    1e18:	00e51963          	bne	a0,a4,1e2a <__sseek+0x24>
    1e1c:	48c79793          	bclri	a5,a5,0xc
    1e20:	a45e                	sh	a5,12(s0)
    1e22:	40b2                	lw	ra,12(sp)
    1e24:	4422                	lw	s0,8(sp)
    1e26:	0141                	addi	sp,sp,16
    1e28:	8082                	ret
    1e2a:	28c79793          	bseti	a5,a5,0xc
    1e2e:	c868                	sw	a0,84(s0)
    1e30:	a45e                	sh	a5,12(s0)
    1e32:	bfc5                	j	1e22 <__sseek+0x1c>

00001e34 <__sclose>:
__sclose():
    1e34:	00e59583          	lh	a1,14(a1)
    1e38:	a03d                	j	1e66 <_close_r>

00001e3a <_write_r>:
_write_r():
    1e3a:	1141                	addi	sp,sp,-16
    1e3c:	c422                	sw	s0,8(sp)
    1e3e:	842a                	mv	s0,a0
    1e40:	852e                	mv	a0,a1
    1e42:	85b2                	mv	a1,a2
    1e44:	8636                	mv	a2,a3
    1e46:	8201a223          	sw	zero,-2012(gp) # 20000a1c <errno>
    1e4a:	c606                	sw	ra,12(sp)
    1e4c:	822ff0ef          	jal	ra,e6e <_write>
    1e50:	57fd                	li	a5,-1
    1e52:	00f51663          	bne	a0,a5,1e5e <_write_r+0x24>
    1e56:	8241a783          	lw	a5,-2012(gp) # 20000a1c <errno>
    1e5a:	c391                	beqz	a5,1e5e <_write_r+0x24>
    1e5c:	c01c                	sw	a5,0(s0)
    1e5e:	40b2                	lw	ra,12(sp)
    1e60:	4422                	lw	s0,8(sp)
    1e62:	0141                	addi	sp,sp,16
    1e64:	8082                	ret

00001e66 <_close_r>:
_close_r():
    1e66:	1141                	addi	sp,sp,-16
    1e68:	c422                	sw	s0,8(sp)
    1e6a:	842a                	mv	s0,a0
    1e6c:	852e                	mv	a0,a1
    1e6e:	8201a223          	sw	zero,-2012(gp) # 20000a1c <errno>
    1e72:	c606                	sw	ra,12(sp)
    1e74:	2195                	jal	22d8 <_close>
    1e76:	57fd                	li	a5,-1
    1e78:	00f51663          	bne	a0,a5,1e84 <_close_r+0x1e>
    1e7c:	8241a783          	lw	a5,-2012(gp) # 20000a1c <errno>
    1e80:	c391                	beqz	a5,1e84 <_close_r+0x1e>
    1e82:	c01c                	sw	a5,0(s0)
    1e84:	40b2                	lw	ra,12(sp)
    1e86:	4422                	lw	s0,8(sp)
    1e88:	0141                	addi	sp,sp,16
    1e8a:	8082                	ret

00001e8c <_fstat_r>:
_fstat_r():
    1e8c:	1141                	addi	sp,sp,-16
    1e8e:	c422                	sw	s0,8(sp)
    1e90:	842a                	mv	s0,a0
    1e92:	852e                	mv	a0,a1
    1e94:	85b2                	mv	a1,a2
    1e96:	8201a223          	sw	zero,-2012(gp) # 20000a1c <errno>
    1e9a:	c606                	sw	ra,12(sp)
    1e9c:	21a1                	jal	22e4 <_fstat>
    1e9e:	57fd                	li	a5,-1
    1ea0:	00f51663          	bne	a0,a5,1eac <_fstat_r+0x20>
    1ea4:	8241a783          	lw	a5,-2012(gp) # 20000a1c <errno>
    1ea8:	c391                	beqz	a5,1eac <_fstat_r+0x20>
    1eaa:	c01c                	sw	a5,0(s0)
    1eac:	40b2                	lw	ra,12(sp)
    1eae:	4422                	lw	s0,8(sp)
    1eb0:	0141                	addi	sp,sp,16
    1eb2:	8082                	ret

00001eb4 <_isatty_r>:
_isatty_r():
    1eb4:	1141                	addi	sp,sp,-16
    1eb6:	c422                	sw	s0,8(sp)
    1eb8:	842a                	mv	s0,a0
    1eba:	852e                	mv	a0,a1
    1ebc:	8201a223          	sw	zero,-2012(gp) # 20000a1c <errno>
    1ec0:	c606                	sw	ra,12(sp)
    1ec2:	213d                	jal	22f0 <_isatty>
    1ec4:	57fd                	li	a5,-1
    1ec6:	00f51663          	bne	a0,a5,1ed2 <_isatty_r+0x1e>
    1eca:	8241a783          	lw	a5,-2012(gp) # 20000a1c <errno>
    1ece:	c391                	beqz	a5,1ed2 <_isatty_r+0x1e>
    1ed0:	c01c                	sw	a5,0(s0)
    1ed2:	40b2                	lw	ra,12(sp)
    1ed4:	4422                	lw	s0,8(sp)
    1ed6:	0141                	addi	sp,sp,16
    1ed8:	8082                	ret

00001eda <_lseek_r>:
_lseek_r():
    1eda:	1141                	addi	sp,sp,-16
    1edc:	c422                	sw	s0,8(sp)
    1ede:	842a                	mv	s0,a0
    1ee0:	852e                	mv	a0,a1
    1ee2:	85b2                	mv	a1,a2
    1ee4:	8636                	mv	a2,a3
    1ee6:	8201a223          	sw	zero,-2012(gp) # 20000a1c <errno>
    1eea:	c606                	sw	ra,12(sp)
    1eec:	2901                	jal	22fc <_lseek>
    1eee:	57fd                	li	a5,-1
    1ef0:	00f51663          	bne	a0,a5,1efc <_lseek_r+0x22>
    1ef4:	8241a783          	lw	a5,-2012(gp) # 20000a1c <errno>
    1ef8:	c391                	beqz	a5,1efc <_lseek_r+0x22>
    1efa:	c01c                	sw	a5,0(s0)
    1efc:	40b2                	lw	ra,12(sp)
    1efe:	4422                	lw	s0,8(sp)
    1f00:	0141                	addi	sp,sp,16
    1f02:	8082                	ret

00001f04 <memchr>:
memchr():
    1f04:	0ff5f593          	zext.b	a1,a1
    1f08:	962a                	add	a2,a2,a0
    1f0a:	00c51463          	bne	a0,a2,1f12 <memchr+0xe>
    1f0e:	4501                	li	a0,0
    1f10:	8082                	ret
    1f12:	211c                	lbu	a5,0(a0)
    1f14:	feb78ee3          	beq	a5,a1,1f10 <memchr+0xc>
    1f18:	0505                	addi	a0,a0,1
    1f1a:	bfc5                	j	1f0a <memchr+0x6>

00001f1c <__malloc_lock>:
__malloc_lock():
    1f1c:	81018513          	addi	a0,gp,-2032 # 20000a08 <__lock___malloc_recursive_mutex>
    1f20:	857ff06f          	j	1776 <__retarget_lock_acquire_recursive>

00001f24 <__malloc_unlock>:
__malloc_unlock():
    1f24:	81018513          	addi	a0,gp,-2032 # 20000a08 <__lock___malloc_recursive_mutex>
    1f28:	851ff06f          	j	1778 <__retarget_lock_release_recursive>

00001f2c <_printf_common>:
_printf_common():
    1f2c:	7179                	addi	sp,sp,-48
    1f2e:	ca56                	sw	s5,20(sp)
    1f30:	499c                	lw	a5,16(a1)
    1f32:	8aba                	mv	s5,a4
    1f34:	4598                	lw	a4,8(a1)
    1f36:	d422                	sw	s0,40(sp)
    1f38:	d04a                	sw	s2,32(sp)
    1f3a:	ce4e                	sw	s3,28(sp)
    1f3c:	cc52                	sw	s4,24(sp)
    1f3e:	d606                	sw	ra,44(sp)
    1f40:	d226                	sw	s1,36(sp)
    1f42:	c85a                	sw	s6,16(sp)
    1f44:	c65e                	sw	s7,12(sp)
    1f46:	0ae7e7b3          	max	a5,a5,a4
    1f4a:	c21c                	sw	a5,0(a2)
    1f4c:	0435c703          	lbu	a4,67(a1)
    1f50:	89aa                	mv	s3,a0
    1f52:	842e                	mv	s0,a1
    1f54:	8932                	mv	s2,a2
    1f56:	8a36                	mv	s4,a3
    1f58:	c319                	beqz	a4,1f5e <_printf_common+0x32>
    1f5a:	0785                	addi	a5,a5,1
    1f5c:	c21c                	sw	a5,0(a2)
    1f5e:	401c                	lw	a5,0(s0)
    1f60:	0207f793          	andi	a5,a5,32
    1f64:	c791                	beqz	a5,1f70 <_printf_common+0x44>
    1f66:	00092783          	lw	a5,0(s2)
    1f6a:	0789                	addi	a5,a5,2
    1f6c:	00f92023          	sw	a5,0(s2)
    1f70:	4004                	lw	s1,0(s0)
    1f72:	8899                	andi	s1,s1,6
    1f74:	e891                	bnez	s1,1f88 <_printf_common+0x5c>
    1f76:	01940b13          	addi	s6,s0,25
    1f7a:	5bfd                	li	s7,-1
    1f7c:	445c                	lw	a5,12(s0)
    1f7e:	00092703          	lw	a4,0(s2)
    1f82:	8f99                	sub	a5,a5,a4
    1f84:	04f4cc63          	blt	s1,a5,1fdc <_printf_common+0xb0>
    1f88:	04344783          	lbu	a5,67(s0)
    1f8c:	00f036b3          	snez	a3,a5
    1f90:	401c                	lw	a5,0(s0)
    1f92:	0207f793          	andi	a5,a5,32
    1f96:	eba5                	bnez	a5,2006 <_printf_common+0xda>
    1f98:	04340613          	addi	a2,s0,67
    1f9c:	85d2                	mv	a1,s4
    1f9e:	854e                	mv	a0,s3
    1fa0:	9a82                	jalr	s5
    1fa2:	57fd                	li	a5,-1
    1fa4:	04f50363          	beq	a0,a5,1fea <_printf_common+0xbe>
    1fa8:	401c                	lw	a5,0(s0)
    1faa:	4711                	li	a4,4
    1fac:	4481                	li	s1,0
    1fae:	8b99                	andi	a5,a5,6
    1fb0:	00e79963          	bne	a5,a4,1fc2 <_printf_common+0x96>
    1fb4:	00092783          	lw	a5,0(s2)
    1fb8:	4444                	lw	s1,12(s0)
    1fba:	8c9d                	sub	s1,s1,a5
    1fbc:	4781                	li	a5,0
    1fbe:	0af4e4b3          	max	s1,s1,a5
    1fc2:	441c                	lw	a5,8(s0)
    1fc4:	4818                	lw	a4,16(s0)
    1fc6:	00f75463          	bge	a4,a5,1fce <_printf_common+0xa2>
    1fca:	8f99                	sub	a5,a5,a4
    1fcc:	94be                	add	s1,s1,a5
    1fce:	4901                	li	s2,0
    1fd0:	0469                	addi	s0,s0,26
    1fd2:	5b7d                	li	s6,-1
    1fd4:	05249863          	bne	s1,s2,2024 <_printf_common+0xf8>
    1fd8:	4501                	li	a0,0
    1fda:	a809                	j	1fec <_printf_common+0xc0>
    1fdc:	4685                	li	a3,1
    1fde:	865a                	mv	a2,s6
    1fe0:	85d2                	mv	a1,s4
    1fe2:	854e                	mv	a0,s3
    1fe4:	9a82                	jalr	s5
    1fe6:	01751e63          	bne	a0,s7,2002 <_printf_common+0xd6>
    1fea:	557d                	li	a0,-1
    1fec:	50b2                	lw	ra,44(sp)
    1fee:	5422                	lw	s0,40(sp)
    1ff0:	5492                	lw	s1,36(sp)
    1ff2:	5902                	lw	s2,32(sp)
    1ff4:	49f2                	lw	s3,28(sp)
    1ff6:	4a62                	lw	s4,24(sp)
    1ff8:	4ad2                	lw	s5,20(sp)
    1ffa:	4b42                	lw	s6,16(sp)
    1ffc:	4bb2                	lw	s7,12(sp)
    1ffe:	6145                	addi	sp,sp,48
    2000:	8082                	ret
    2002:	0485                	addi	s1,s1,1
    2004:	bfa5                	j	1f7c <_printf_common+0x50>
    2006:	00d40733          	add	a4,s0,a3
    200a:	03000613          	li	a2,48
    200e:	04c701a3          	sb	a2,67(a4)
    2012:	04544703          	lbu	a4,69(s0)
    2016:	00168793          	addi	a5,a3,1
    201a:	97a2                	add	a5,a5,s0
    201c:	0689                	addi	a3,a3,2
    201e:	04e781a3          	sb	a4,67(a5)
    2022:	bf9d                	j	1f98 <_printf_common+0x6c>
    2024:	4685                	li	a3,1
    2026:	8622                	mv	a2,s0
    2028:	85d2                	mv	a1,s4
    202a:	854e                	mv	a0,s3
    202c:	9a82                	jalr	s5
    202e:	fb650ee3          	beq	a0,s6,1fea <_printf_common+0xbe>
    2032:	0905                	addi	s2,s2,1
    2034:	b745                	j	1fd4 <_printf_common+0xa8>

00002036 <_printf_i>:
_printf_i():
    2036:	7179                	addi	sp,sp,-48
    2038:	d422                	sw	s0,40(sp)
    203a:	d04a                	sw	s2,32(sp)
    203c:	ce4e                	sw	s3,28(sp)
    203e:	cc52                	sw	s4,24(sp)
    2040:	d606                	sw	ra,44(sp)
    2042:	d226                	sw	s1,36(sp)
    2044:	ca56                	sw	s5,20(sp)
    2046:	c85a                	sw	s6,16(sp)
    2048:	0185c803          	lbu	a6,24(a1)
    204c:	07800793          	li	a5,120
    2050:	892a                	mv	s2,a0
    2052:	842e                	mv	s0,a1
    2054:	89b2                	mv	s3,a2
    2056:	8a36                	mv	s4,a3
    2058:	0307e263          	bltu	a5,a6,207c <_printf_i+0x46>
    205c:	06200793          	li	a5,98
    2060:	04358693          	addi	a3,a1,67
    2064:	0307e163          	bltu	a5,a6,2086 <_printf_i+0x50>
    2068:	1c080b63          	beqz	a6,223e <_printf_i+0x208>
    206c:	05800793          	li	a5,88
    2070:	00000617          	auipc	a2,0x0
    2074:	42860613          	addi	a2,a2,1064 # 2498 <__sf_fake_stdin+0x34>
    2078:	14f80763          	beq	a6,a5,21c6 <_printf_i+0x190>
    207c:	04240493          	addi	s1,s0,66
    2080:	05040123          	sb	a6,66(s0)
    2084:	a815                	j	20b8 <_printf_i+0x82>
    2086:	f9d80793          	addi	a5,a6,-99
    208a:	0ff7f793          	zext.b	a5,a5
    208e:	4655                	li	a2,21
    2090:	fef666e3          	bltu	a2,a5,207c <_printf_i+0x46>
    2094:	00000617          	auipc	a2,0x0
    2098:	42c60613          	addi	a2,a2,1068 # 24c0 <__sf_fake_stdin+0x5c>
    209c:	20c7c7b3          	sh2add	a5,a5,a2
    20a0:	439c                	lw	a5,0(a5)
    20a2:	97b2                	add	a5,a5,a2
    20a4:	8782                	jr	a5
    20a6:	431c                	lw	a5,0(a4)
    20a8:	04258493          	addi	s1,a1,66
    20ac:	00478693          	addi	a3,a5,4
    20b0:	439c                	lw	a5,0(a5)
    20b2:	c314                	sw	a3,0(a4)
    20b4:	04f58123          	sb	a5,66(a1)
    20b8:	4785                	li	a5,1
    20ba:	a265                	j	2262 <_printf_i+0x22c>
    20bc:	4190                	lw	a2,0(a1)
    20be:	431c                	lw	a5,0(a4)
    20c0:	08067513          	andi	a0,a2,128
    20c4:	00478593          	addi	a1,a5,4
    20c8:	c129                	beqz	a0,210a <_printf_i+0xd4>
    20ca:	439c                	lw	a5,0(a5)
    20cc:	c30c                	sw	a1,0(a4)
    20ce:	4058                	lw	a4,4(s0)
    20d0:	1207de63          	bgez	a5,220c <_printf_i+0x1d6>
    20d4:	02d00593          	li	a1,45
    20d8:	04b401a3          	sb	a1,67(s0)
    20dc:	c418                	sw	a4,8(s0)
    20de:	02075e63          	bgez	a4,211a <_printf_i+0xe4>
    20e2:	40f007b3          	neg	a5,a5
    20e6:	00000617          	auipc	a2,0x0
    20ea:	3b260613          	addi	a2,a2,946 # 2498 <__sf_fake_stdin+0x34>
    20ee:	4829                	li	a6,10
    20f0:	84b6                	mv	s1,a3
    20f2:	0307f733          	remu	a4,a5,a6
    20f6:	14fd                	addi	s1,s1,-1
    20f8:	9732                	add	a4,a4,a2
    20fa:	2318                	lbu	a4,0(a4)
    20fc:	a098                	sb	a4,0(s1)
    20fe:	873e                	mv	a4,a5
    2100:	0307d7b3          	divu	a5,a5,a6
    2104:	ff0777e3          	bgeu	a4,a6,20f2 <_printf_i+0xbc>
    2108:	a085                	j	2168 <_printf_i+0x132>
    210a:	439c                	lw	a5,0(a5)
    210c:	04067513          	andi	a0,a2,64
    2110:	c30c                	sw	a1,0(a4)
    2112:	dd55                	beqz	a0,20ce <_printf_i+0x98>
    2114:	60579793          	sext.h	a5,a5
    2118:	bf5d                	j	20ce <_printf_i+0x98>
    211a:	9a6d                	andi	a2,a2,-5
    211c:	c010                	sw	a2,0(s0)
    211e:	b7d1                	j	20e2 <_printf_i+0xac>
    2120:	4190                	lw	a2,0(a1)
    2122:	431c                	lw	a5,0(a4)
    2124:	08067513          	andi	a0,a2,128
    2128:	00478593          	addi	a1,a5,4
    212c:	c501                	beqz	a0,2134 <_printf_i+0xfe>
    212e:	c30c                	sw	a1,0(a4)
    2130:	439c                	lw	a5,0(a5)
    2132:	a031                	j	213e <_printf_i+0x108>
    2134:	04067613          	andi	a2,a2,64
    2138:	c30c                	sw	a1,0(a4)
    213a:	da7d                	beqz	a2,2130 <_printf_i+0xfa>
    213c:	239e                	lhu	a5,0(a5)
    213e:	06f00713          	li	a4,111
    2142:	00000617          	auipc	a2,0x0
    2146:	35660613          	addi	a2,a2,854 # 2498 <__sf_fake_stdin+0x34>
    214a:	0ae81f63          	bne	a6,a4,2208 <_printf_i+0x1d2>
    214e:	4821                	li	a6,8
    2150:	040401a3          	sb	zero,67(s0)
    2154:	4058                	lw	a4,4(s0)
    2156:	c418                	sw	a4,8(s0)
    2158:	f8074ce3          	bltz	a4,20f0 <_printf_i+0xba>
    215c:	400c                	lw	a1,0(s0)
    215e:	99ed                	andi	a1,a1,-5
    2160:	c00c                	sw	a1,0(s0)
    2162:	f7d9                	bnez	a5,20f0 <_printf_i+0xba>
    2164:	84b6                	mv	s1,a3
    2166:	f749                	bnez	a4,20f0 <_printf_i+0xba>
    2168:	47a1                	li	a5,8
    216a:	00f81e63          	bne	a6,a5,2186 <_printf_i+0x150>
    216e:	401c                	lw	a5,0(s0)
    2170:	8b85                	andi	a5,a5,1
    2172:	cb91                	beqz	a5,2186 <_printf_i+0x150>
    2174:	4058                	lw	a4,4(s0)
    2176:	481c                	lw	a5,16(s0)
    2178:	00e7c763          	blt	a5,a4,2186 <_printf_i+0x150>
    217c:	03000793          	li	a5,48
    2180:	fef48fa3          	sb	a5,-1(s1)
    2184:	14fd                	addi	s1,s1,-1
    2186:	8e85                	sub	a3,a3,s1
    2188:	c814                	sw	a3,16(s0)
    218a:	8752                	mv	a4,s4
    218c:	86ce                	mv	a3,s3
    218e:	0070                	addi	a2,sp,12
    2190:	85a2                	mv	a1,s0
    2192:	854a                	mv	a0,s2
    2194:	3b61                	jal	1f2c <_printf_common>
    2196:	5afd                	li	s5,-1
    2198:	0d551963          	bne	a0,s5,226a <_printf_i+0x234>
    219c:	557d                	li	a0,-1
    219e:	50b2                	lw	ra,44(sp)
    21a0:	5422                	lw	s0,40(sp)
    21a2:	5492                	lw	s1,36(sp)
    21a4:	5902                	lw	s2,32(sp)
    21a6:	49f2                	lw	s3,28(sp)
    21a8:	4a62                	lw	s4,24(sp)
    21aa:	4ad2                	lw	s5,20(sp)
    21ac:	4b42                	lw	s6,16(sp)
    21ae:	6145                	addi	sp,sp,48
    21b0:	8082                	ret
    21b2:	419c                	lw	a5,0(a1)
    21b4:	0207e793          	ori	a5,a5,32
    21b8:	c19c                	sw	a5,0(a1)
    21ba:	07800813          	li	a6,120
    21be:	00000617          	auipc	a2,0x0
    21c2:	2ee60613          	addi	a2,a2,750 # 24ac <__sf_fake_stdin+0x48>
    21c6:	050402a3          	sb	a6,69(s0)
    21ca:	400c                	lw	a1,0(s0)
    21cc:	431c                	lw	a5,0(a4)
    21ce:	0805f813          	andi	a6,a1,128
    21d2:	00478513          	addi	a0,a5,4
    21d6:	00080563          	beqz	a6,21e0 <_printf_i+0x1aa>
    21da:	c308                	sw	a0,0(a4)
    21dc:	439c                	lw	a5,0(a5)
    21de:	a039                	j	21ec <_printf_i+0x1b6>
    21e0:	0405f813          	andi	a6,a1,64
    21e4:	c308                	sw	a0,0(a4)
    21e6:	fe080be3          	beqz	a6,21dc <_printf_i+0x1a6>
    21ea:	239e                	lhu	a5,0(a5)
    21ec:	0015f713          	andi	a4,a1,1
    21f0:	c701                	beqz	a4,21f8 <_printf_i+0x1c2>
    21f2:	0205e593          	ori	a1,a1,32
    21f6:	c00c                	sw	a1,0(s0)
    21f8:	c399                	beqz	a5,21fe <_printf_i+0x1c8>
    21fa:	4841                	li	a6,16
    21fc:	bf91                	j	2150 <_printf_i+0x11a>
    21fe:	4018                	lw	a4,0(s0)
    2200:	fdf77713          	andi	a4,a4,-33
    2204:	c018                	sw	a4,0(s0)
    2206:	bfd5                	j	21fa <_printf_i+0x1c4>
    2208:	4829                	li	a6,10
    220a:	b799                	j	2150 <_printf_i+0x11a>
    220c:	00000617          	auipc	a2,0x0
    2210:	28c60613          	addi	a2,a2,652 # 2498 <__sf_fake_stdin+0x34>
    2214:	4829                	li	a6,10
    2216:	bf3d                	j	2154 <_printf_i+0x11e>
    2218:	4190                	lw	a2,0(a1)
    221a:	431c                	lw	a5,0(a4)
    221c:	49cc                	lw	a1,20(a1)
    221e:	08067813          	andi	a6,a2,128
    2222:	00478513          	addi	a0,a5,4
    2226:	00080663          	beqz	a6,2232 <_printf_i+0x1fc>
    222a:	c308                	sw	a0,0(a4)
    222c:	439c                	lw	a5,0(a5)
    222e:	c38c                	sw	a1,0(a5)
    2230:	a039                	j	223e <_printf_i+0x208>
    2232:	c308                	sw	a0,0(a4)
    2234:	04067613          	andi	a2,a2,64
    2238:	439c                	lw	a5,0(a5)
    223a:	da75                	beqz	a2,222e <_printf_i+0x1f8>
    223c:	a38e                	sh	a1,0(a5)
    223e:	00042823          	sw	zero,16(s0)
    2242:	84b6                	mv	s1,a3
    2244:	b799                	j	218a <_printf_i+0x154>
    2246:	431c                	lw	a5,0(a4)
    2248:	41d0                	lw	a2,4(a1)
    224a:	4581                	li	a1,0
    224c:	00478693          	addi	a3,a5,4
    2250:	c314                	sw	a3,0(a4)
    2252:	4384                	lw	s1,0(a5)
    2254:	8526                	mv	a0,s1
    2256:	317d                	jal	1f04 <memchr>
    2258:	c501                	beqz	a0,2260 <_printf_i+0x22a>
    225a:	409507b3          	sub	a5,a0,s1
    225e:	c05c                	sw	a5,4(s0)
    2260:	405c                	lw	a5,4(s0)
    2262:	c81c                	sw	a5,16(s0)
    2264:	040401a3          	sb	zero,67(s0)
    2268:	b70d                	j	218a <_printf_i+0x154>
    226a:	4814                	lw	a3,16(s0)
    226c:	8626                	mv	a2,s1
    226e:	85ce                	mv	a1,s3
    2270:	854a                	mv	a0,s2
    2272:	9a02                	jalr	s4
    2274:	f35504e3          	beq	a0,s5,219c <_printf_i+0x166>
    2278:	401c                	lw	a5,0(s0)
    227a:	8b89                	andi	a5,a5,2
    227c:	e785                	bnez	a5,22a4 <_printf_i+0x26e>
    227e:	4448                	lw	a0,12(s0)
    2280:	47b2                	lw	a5,12(sp)
    2282:	0af56533          	max	a0,a0,a5
    2286:	bf21                	j	219e <_printf_i+0x168>
    2288:	4685                	li	a3,1
    228a:	8656                	mv	a2,s5
    228c:	85ce                	mv	a1,s3
    228e:	854a                	mv	a0,s2
    2290:	9a02                	jalr	s4
    2292:	f16505e3          	beq	a0,s6,219c <_printf_i+0x166>
    2296:	0485                	addi	s1,s1,1
    2298:	445c                	lw	a5,12(s0)
    229a:	4732                	lw	a4,12(sp)
    229c:	8f99                	sub	a5,a5,a4
    229e:	fef4c5e3          	blt	s1,a5,2288 <_printf_i+0x252>
    22a2:	bff1                	j	227e <_printf_i+0x248>
    22a4:	4481                	li	s1,0
    22a6:	01940a93          	addi	s5,s0,25
    22aa:	5b7d                	li	s6,-1
    22ac:	b7f5                	j	2298 <_printf_i+0x262>

000022ae <_read_r>:
_read_r():
    22ae:	1141                	addi	sp,sp,-16
    22b0:	c422                	sw	s0,8(sp)
    22b2:	842a                	mv	s0,a0
    22b4:	852e                	mv	a0,a1
    22b6:	85b2                	mv	a1,a2
    22b8:	8636                	mv	a2,a3
    22ba:	8201a223          	sw	zero,-2012(gp) # 20000a1c <errno>
    22be:	c606                	sw	ra,12(sp)
    22c0:	20a1                	jal	2308 <_read>
    22c2:	57fd                	li	a5,-1
    22c4:	00f51663          	bne	a0,a5,22d0 <_read_r+0x22>
    22c8:	8241a783          	lw	a5,-2012(gp) # 20000a1c <errno>
    22cc:	c391                	beqz	a5,22d0 <_read_r+0x22>
    22ce:	c01c                	sw	a5,0(s0)
    22d0:	40b2                	lw	ra,12(sp)
    22d2:	4422                	lw	s0,8(sp)
    22d4:	0141                	addi	sp,sp,16
    22d6:	8082                	ret

000022d8 <_close>:
_close():
    22d8:	05800793          	li	a5,88
    22dc:	82f1a223          	sw	a5,-2012(gp) # 20000a1c <errno>
    22e0:	557d                	li	a0,-1
    22e2:	8082                	ret

000022e4 <_fstat>:
_fstat():
    22e4:	05800793          	li	a5,88
    22e8:	82f1a223          	sw	a5,-2012(gp) # 20000a1c <errno>
    22ec:	557d                	li	a0,-1
    22ee:	8082                	ret

000022f0 <_isatty>:
_isatty():
    22f0:	05800793          	li	a5,88
    22f4:	82f1a223          	sw	a5,-2012(gp) # 20000a1c <errno>
    22f8:	4501                	li	a0,0
    22fa:	8082                	ret

000022fc <_lseek>:
_lseek():
    22fc:	05800793          	li	a5,88
    2300:	82f1a223          	sw	a5,-2012(gp) # 20000a1c <errno>
    2304:	557d                	li	a0,-1
    2306:	8082                	ret

00002308 <_read>:
_read():
    2308:	05800793          	li	a5,88
    230c:	82f1a223          	sw	a5,-2012(gp) # 20000a1c <errno>
    2310:	557d                	li	a0,-1
    2312:	8082                	ret
    2314:	72617453          	.4byte	0x72617453
    2318:	2074                	lbu	a3,6(s0)
    231a:	7541                	lui	a0,0xffff0
    231c:	6f74                	.2byte	0x6f74
    231e:	616d                	addi	sp,sp,240
    2320:	6574                	.2byte	0x6574
    2322:	2064                	lbu	s1,6(s0)
    2324:	6f50                	.2byte	0x6f50
    2326:	20726577          	.4byte	0x20726577
    232a:	7250                	.2byte	0x7250
    232c:	6c69666f          	jal	a2,989f2 <_data_lma+0x964d6>
    2330:	6e69                	lui	t3,0x1a
    2332:	43402067          	.4byte	0x43402067
    2336:	6968                	.2byte	0x6968
    2338:	4970                	lw	a2,84(a0)
    233a:	3d44                	lbu	s1,29(a0)
    233c:	3025                	jal	1b64 <_vfiprintf_r+0xa4>
    233e:	7832                	.2byte	0x7832
    2340:	0a0a                	slli	s4,s4,0x2
    2342:	0000                	unimp
    2344:	6e45                	lui	t3,0x11
    2346:	6574                	.2byte	0x6574
    2348:	6972                	.2byte	0x6972
    234a:	676e                	.2byte	0x676e
    234c:	4920                	lw	s0,80(a0)
    234e:	4c44                	lw	s1,28(s0)
    2350:	2045                	jal	23f0 <_read+0xe8>
    2352:	6f6d                	lui	t5,0x1b
    2354:	6564                	.2byte	0x6564
    2356:	6620                	.2byte	0x6620
    2358:	3520726f          	jal	tp,96aa <_data_lma+0x718e>
    235c:	7320                	.2byte	0x7320
    235e:	6365                	lui	t1,0x19
    2360:	73646e6f          	jal	t3,48a96 <_data_lma+0x4657a>
    2364:	2e2e                	lhu	a1,26(a2)
    2366:	002e                	c.slli	zero,0xb
    2368:	656b6f57          	.4byte	0x656b6f57
    236c:	6620                	.2byte	0x6620
    236e:	6f72                	.2byte	0x6f72
    2370:	206d                	jal	241a <_read+0x112>
    2372:	4449                	li	s0,18
    2374:	454c                	lw	a1,12(a0)
    2376:	0a2e                	slli	s4,s4,0xb
    2378:	0000                	unimp
    237a:	0000                	unimp
    237c:	6e45                	lui	t3,0x11
    237e:	6574                	.2byte	0x6574
    2380:	6972                	.2byte	0x6972
    2382:	676e                	.2byte	0x676e
    2384:	4820                	lw	s0,80(s0)
    2386:	4c41                	li	s8,16
    2388:	2054                	lbu	a3,4(s0)
    238a:	6f6d                	lui	t5,0x1b
    238c:	6564                	.2byte	0x6564
    238e:	6620                	.2byte	0x6620
    2390:	3520726f          	jal	tp,96e2 <_data_lma+0x71c6>
    2394:	7320                	.2byte	0x7320
    2396:	6365                	lui	t1,0x19
    2398:	73646e6f          	jal	t3,48ace <_data_lma+0x465b2>
    239c:	2e2e                	lhu	a1,26(a2)
    239e:	002e                	c.slli	zero,0xb
    23a0:	656b6f57          	.4byte	0x656b6f57
    23a4:	6620                	.2byte	0x6620
    23a6:	6f72                	.2byte	0x6f72
    23a8:	206d                	jal	2452 <__sf_fake_stdout+0xe>
    23aa:	4148                	lw	a0,4(a0)
    23ac:	544c                	lw	a1,44(s0)
    23ae:	0a2e                	slli	s4,s4,0xb
    23b0:	0000                	unimp
    23b2:	0000                	unimp
    23b4:	6e45                	lui	t3,0x11
    23b6:	6574                	.2byte	0x6574
    23b8:	6972                	.2byte	0x6972
    23ba:	676e                	.2byte	0x676e
    23bc:	5320                	lw	s0,96(a4)
    23be:	454c                	lw	a1,12(a0)
    23c0:	5045                	c.li	zero,-15
    23c2:	6d20                	.2byte	0x6d20
    23c4:	2065646f          	jal	s0,585ca <_data_lma+0x560ae>
    23c8:	6f66                	.2byte	0x6f66
    23ca:	2072                	lhu	a2,6(s0)
    23cc:	2035                	jal	23f8 <_read+0xf0>
    23ce:	6f636573          	csrrsi	a0,0x6f6,6
    23d2:	646e                	.2byte	0x646e
    23d4:	2e2e2e73          	csrrs	t3,0x2e2,t3
    23d8:	0000                	unimp
    23da:	0000                	unimp
    23dc:	656b6f57          	.4byte	0x656b6f57
    23e0:	6620                	.2byte	0x6620
    23e2:	6f72                	.2byte	0x6f72
    23e4:	206d                	jal	248e <__sf_fake_stdin+0x2a>
    23e6:	45454c53          	.4byte	0x45454c53
    23ea:	2e50                	lbu	a2,28(a2)
    23ec:	000a                	c.slli	zero,0x2
    23ee:	0000                	unimp
    23f0:	7250                	.2byte	0x7250
    23f2:	6c69666f          	jal	a2,98ab8 <_data_lma+0x9659c>
    23f6:	6e69                	lui	t3,0x1a
    23f8:	65732067          	.4byte	0x65732067
    23fc:	7571                	lui	a0,0xffffc
    23fe:	6e65                	lui	t3,0x19
    2400:	63206563          	bltu	zero,s2,2a2a <_data_lma+0x50e>
    2404:	6c706d6f          	jal	s10,92ca <_data_lma+0x6dae>
    2408:	7465                	lui	s0,0xffff9
    240a:	2e65                	jal	27c2 <_data_lma+0x2a6>
    240c:	0000                	unimp
    240e:	0000                	unimp
    2410:	e8bc                	.2byte	0xe8bc
    2412:	ffff                	.2byte	0xffff
    2414:	e8d4                	.2byte	0xe8d4
    2416:	ffff                	.2byte	0xffff
    2418:	e8f8                	.2byte	0xe8f8
    241a:	ffff                	.2byte	0xffff
    241c:	e902                	.2byte	0xe902
    241e:	ffff                	.2byte	0xffff
    2420:	e918                	.2byte	0xe918
    2422:	ffff                	.2byte	0xffff

00002424 <__sf_fake_stderr>:
	...

00002444 <__sf_fake_stdout>:
	...

00002464 <__sf_fake_stdin>:
	...
    2484:	2d23 2b30 0020 0000 6c68 004c 6665 4567     #-0+ ...hlL.efgE
    2494:	4746 0000 3130 3332 3534 3736 3938 4241     FG..0123456789AB
    24a4:	4443 4645 0000 0000 3130 3332 3534 3736     CDEF....01234567
    24b4:	3938 6261 6463 6665 0000 0000 fbe6 ffff     89abcdef........
    24c4:	fbfc ffff fbbc ffff fbbc ffff fbbc ffff     ................
    24d4:	fbbc ffff fbfc ffff fbbc ffff fbbc ffff     ................
    24e4:	fbbc ffff fbbc ffff fd58 ffff fc60 ffff     ........X...`...
    24f4:	fcf2 ffff fbbc ffff fbbc ffff fd86 ffff     ................
    2504:	fbbc ffff fc60 ffff fbbc ffff fbbc ffff     ....`...........
    2514:	fcfa ffff                                   ....

Disassembly of section .vector_handler:

00002518 <BB_IRQHandler>:
ENDOCE_IRQHandler():
c:\Users\seanw\mounriver-studio-projects\CH570D-power_profiling_dummy_operations\obj/../Startup/startup_CH572.S:111
	j 1b
    2518:	a001                	j	2518 <BB_IRQHandler>
