
PM.elf:     file format elf32-littleriscv
PM.elf
architecture: riscv:rv32, flags 0x00000112:
EXEC_P, HAS_SYMS, D_PAGED
start address 0x00000000

Program Header:
0x70000003 off    0x0000f711 vaddr 0x00000000 paddr 0x00000000 align 2**0
         filesz 0x00000051 memsz 0x00000000 flags r--
    LOAD off    0x00001000 vaddr 0x00000000 paddr 0x00000000 align 2**12
         filesz 0x00000004 memsz 0x00000004 flags r-x
    LOAD off    0x00002000 vaddr 0x20000000 paddr 0x00000004 align 2**12
         filesz 0x00000afc memsz 0x00000afc flags r-x
    LOAD off    0x00002b00 vaddr 0x00000b00 paddr 0x00000b00 align 2**12
         filesz 0x00001216 memsz 0x00001218 flags rwx
    LOAD off    0x00004afc vaddr 0x20000afc paddr 0x00001d18 align 2**12
         filesz 0x00000070 memsz 0x00000088 flags rw-

Sections:
Idx Name                 Size      VMA       LMA       File off  Algn  Flags
  0 .init                00000004  00000000  00000000  00001000  2**1  CONTENTS, ALLOC, LOAD, READONLY, CODE
  1 .highcode_initlalign 00000000  00000004  00000004  00004b6c  2**0  CONTENTS
  2 .highcodelalign      00000000  00000004  00000004  00004b6c  2**0  CONTENTS
  3 .highcode            00000afc  20000000  00000004  00002000  2**1  CONTENTS, ALLOC, LOAD, READONLY, CODE
  4 .text                00001214  00000b00  00000b00  00002b00  2**2  CONTENTS, ALLOC, LOAD, READONLY, CODE
  5 .vector_handler      00000002  00001d14  00001d14  00003d14  2**0  CONTENTS, ALLOC, LOAD, READONLY, CODE
  6 .fini                00000002  00001d16  00001d16  00003d16  2**0  ALLOC, CODE
  7 .dlalign             00000000  00001d18  00001d18  00004b6c  2**0  CONTENTS
  8 .data                00000070  20000afc  00001d18  00004afc  2**2  CONTENTS, ALLOC, LOAD, DATA
  9 .bss                 00000018  20000b6c  00001d88  00004b6c  2**2  ALLOC
 10 .stack               00000000  20003000  20003000  00004b6c  2**0  CONTENTS
 11 .debug_info          000032ea  00000000  00000000  00004b6c  2**0  CONTENTS, READONLY, DEBUGGING, OCTETS
 12 .debug_abbrev        00000d6d  00000000  00000000  00007e56  2**0  CONTENTS, READONLY, DEBUGGING, OCTETS
 13 .debug_loclists      0000103b  00000000  00000000  00008bc3  2**0  CONTENTS, READONLY, DEBUGGING, OCTETS
 14 .debug_aranges       00000200  00000000  00000000  00009c00  2**3  CONTENTS, READONLY, DEBUGGING, OCTETS
 15 .debug_rnglists      000002ee  00000000  00000000  00009e00  2**0  CONTENTS, READONLY, DEBUGGING, OCTETS
 16 .debug_line          000041f4  00000000  00000000  0000a0ee  2**0  CONTENTS, READONLY, DEBUGGING, OCTETS
 17 .debug_str           00000e9c  00000000  00000000  0000e2e2  2**0  CONTENTS, READONLY, DEBUGGING, OCTETS
 18 .debug_line_str      0000052f  00000000  00000000  0000f17e  2**0  CONTENTS, READONLY, DEBUGGING, OCTETS
 19 .comment             00000064  00000000  00000000  0000f6ad  2**0  CONTENTS, READONLY
 20 .riscv.attributes    00000051  00000000  00000000  0000f711  2**0  CONTENTS, READONLY
 21 .debug_frame         00000460  00000000  00000000  0000f764  2**2  CONTENTS, READONLY, DEBUGGING, OCTETS
SYMBOL TABLE:
00000000 l    d  .init	00000000 .init
00000004 l    d  .highcode_initlalign	00000000 .highcode_initlalign
00000004 l    d  .highcodelalign	00000000 .highcodelalign
20000000 l    d  .highcode	00000000 .highcode
00000b00 l    d  .text	00000000 .text
00001d14 l    d  .vector_handler	00000000 .vector_handler
00001d16 l    d  .fini	00000000 .fini
00001d18 l    d  .dlalign	00000000 .dlalign
20000afc l    d  .data	00000000 .data
20000b6c l    d  .bss	00000000 .bss
20003000 l    d  .stack	00000000 .stack
00000000 l    d  .debug_info	00000000 .debug_info
00000000 l    d  .debug_abbrev	00000000 .debug_abbrev
00000000 l    d  .debug_loclists	00000000 .debug_loclists
00000000 l    d  .debug_aranges	00000000 .debug_aranges
00000000 l    d  .debug_rnglists	00000000 .debug_rnglists
00000000 l    d  .debug_line	00000000 .debug_line
00000000 l    d  .debug_str	00000000 .debug_str
00000000 l    d  .debug_line_str	00000000 .debug_line_str
00000000 l    d  .comment	00000000 .comment
00000000 l    d  .riscv.attributes	00000000 .riscv.attributes
00000000 l    d  .debug_frame	00000000 .debug_frame
00000000 l    df *ABS*	00000000 startup_CH572.o
00001d14 l       .vector_handler	00000000 ENDOCE_IRQHandler
00000000 l    df *ABS*	00000000 Main.c
00000000 l    df *ABS*	00000000 CH57x_pwr.c
00000000 l    df *ABS*	00000000 CH57x_sys.c
20000b60 l     O .data	00000004 curbrk.0
00000000 l    df *ABS*	00000000 ISP572.c
20000830 l       .highcode	00000000 .loop52
2000083e l       .highcode	00000000 .loop63
2000084c l       .highcode	00000000 .loop74
2000094c l       .highcode	00000000 .loop247
00000000 l    df *ABS*	00000000 lib_a-memset.o
00000000 l    df *ABS*	00000000 CH57x_clk.c
00000000 l    df *ABS*	00000000 CH57x_gpio.c
00000000 l    df *ABS*	00000000 lib_a-puts.o
00000000 l    df *ABS*	00000000 lib_a-wbuf.o
00000000 l    df *ABS*	00000000 lib_a-wsetup.o
00000000 l    df *ABS*	00000000 lib_a-fflush.o
00000000 l    df *ABS*	00000000 lib_a-findfp.o
0000152c l     F .text	00000066 std
00000000 l    df *ABS*	00000000 lib_a-fwalk.o
00000000 l    df *ABS*	00000000 lib_a-lock.o
00000000 l    df *ABS*	00000000 lib_a-makebuf.o
00000000 l    df *ABS*	00000000 lib_a-nano-freer.o
00000000 l    df *ABS*	00000000 lib_a-nano-mallocr.o
000018fe l     F .text	00000054 sbrk_aligned
00000000 l    df *ABS*	00000000 lib_a-sbrkr.o
00000000 l    df *ABS*	00000000 lib_a-stdio.o
00000000 l    df *ABS*	00000000 lib_a-writer.o
00000000 l    df *ABS*	00000000 lib_a-closer.o
00000000 l    df *ABS*	00000000 lib_a-fstatr.o
00000000 l    df *ABS*	00000000 lib_a-isattyr.o
00000000 l    df *ABS*	00000000 lib_a-lseekr.o
00000000 l    df *ABS*	00000000 lib_a-mlock.o
00000000 l    df *ABS*	00000000 lib_a-readr.o
00000000 l    df *ABS*	00000000 close.o
00000000 l    df *ABS*	00000000 fstat.o
00000000 l    df *ABS*	00000000 isatty.o
00000000 l    df *ABS*	00000000 lseek.o
00000000 l    df *ABS*	00000000 read.o
00000000 l    df *ABS*	00000000 lib_a-impure.o
20000afc l     O .data	00000060 impure_data
00001b9a g     F .text	00000026 _isatty_r
000010b6 g     F .text	00000104 _puts_r
00001bc0 g     F .text	0000002a _lseek_r
2000084c g     F .highcode	0000000e FLASH_ROM_OUT
00001d14  w      .vector_handler	00000000 CMP_IRQHandler
20001360 g       .data	00000000 __global_pointer$
00001aec g     F .text	0000002e __sseek
000015fa g     F .text	00000068 __sinit
000011c6 g     F .text	000000bc __swbuf_r
200007bc g     F .highcode	0000000e mDelayuS
20000738  w    F .highcode	00000084 HardFault_Handler
0000159c g     F .text	00000046 __sfmoreglue
00001bf0 g     F .text	00000006 __malloc_unlock
20000090 g     F .highcode	00000010 GPIOA_IRQHandler
00001d14  w      .vector_handler	00000000 SysTick_Handler
00001d14  w      .vector_handler	00000000 NMI_Handler
00001d14  w      .vector_handler	00000000 UART_IRQHandler
20000208 g     F .highcode	0000017c LowPower_Sleep
00001b72 g     F .text	00000028 _fstat_r
20000b80 g     O .bss	00000004 errno
20000910 g     F .highcode	00000060 FLASH_CMD_ROM_WRITE
20000b6c g       .bss	00000000 _sbss
2000083e g     F .highcode	0000000e FLASH_ROM_IN
00000d06 g     F .text	00000050 HSECFG_Capacitance
00000dd8 g     F .text	00000074 GPIOA_ITModeCfg
00001592 g     F .text	0000000a _cleanup_r
000011ba g     F .text	0000000c puts
00001d14  w      .vector_handler	00000000 SWI_Handler
00001c2c g     F .text	0000000c _fstat
00000004 g       .init	00000000 _einit
00001d14  w      .vector_handler	00000000 BB_IRQHandler
00000f80 g     F .text	00000136 FLASH_EEPROM_CMD
00001d14  w      .vector_handler	00000000 Break_Point_Handler
200008da g     F .highcode	00000036 FLASH_START
00001a54 g     F .text	00000028 _sbrk_r
00001bf6 g     F .text	0000002a _read_r
2000081c g     F .highcode	00000014 FLASH_ROM_BEG
20000970 g     F .highcode	00000072 FLASH_CMD_ROM_ERASE
200007ca g     F .highcode	0000001e mDelaymS
00001d14  w      .vector_handler	00000000 Ecall_M_Mode_Handler
00001c38 g     F .text	0000000c _isatty
20000b74 g     O .bss	00000001 __lock___sinit_recursive_mutex
20000b68 g     O .data	00000004 _global_impure_ptr
2000085a g     F .highcode	00000048 FLASH_ROM_ADDR
00000f58 g     F .text	00000028 _sbrk
00001d14  w      .vector_handler	00000000 RTC_IRQHandler
20000b84 g       .bss	00000000 _ebss
00001d14  w      .vector_handler	00000000 SPI_IRQHandler
20000b6c g     O .bss	00000001 __lock___malloc_recursive_mutex
200008a2 g     F .highcode	00000038 FLASH_ROM_WAIT
00001cb4 g     O .text	00000020 __sf_fake_stderr
20000000 g       .highcode	00000000 _vector_base
00001774 g     F .text	00000002 __retarget_lock_release_recursive
00001d14  w      .vector_handler	00000000 PWMX_IRQHandler
000015e2 g     F .text	00000006 __sfp_lock_acquire
00001860 g     F .text	0000009e _free_r
00000000 g       .init	00000000 _start
00001c44 g     F .text	0000000c _lseek
20000000 g       .highcode	00000000 _highcode_vma_start
200000e0 g     F .highcode	00000128 LowPower_Halt
00000e4c g     F .text	000000e6 PWR_PeriphWakeUpCfg
00001b4c g     F .text	00000026 _close_r
00001d14  w      .vector_handler	00000000 KEYSCAN_IRQHandler
20000afc g       .data	00000000 _data_vma
200004f8 g     F .highcode	00000240 SetSysClock
00001d14  w      .vector_handler	00000000 USB_IRQHandler
00001282 g     F .text	000000f2 __swsetup_r
20000aa4 g     F .highcode	0000003e FLASH_CMD_GET_UNIQUE_ID
00001662 g     F .text	000000a6 __sfp
20000a32 g     F .highcode	00000012 FLASH_CMD_ROM_PWR
000015f4 g     F .text	00000006 __sinit_lock_release
00001a7c g     F .text	0000002a __sread
00001bea g     F .text	00000006 __malloc_lock
000014a6 g     F .text	00000086 _fflush_r
00001cf4 g     O .text	00000020 __sf_fake_stdin
00001772 g     F .text	00000002 __retarget_lock_acquire_recursive
00001d14  w      .vector_handler	00000000 I2C_IRQHandler
00000bb2 g     F .text	00000010 memset
00000bc2 g     F .text	000000f6 main
00001770 g     F .text	00000002 __retarget_lock_init_recursive
00001b1a g     F .text	00000006 __sclose
00001952 g     F .text	00000102 _malloc_r
00000004 g       .highcodelalign	00000000 _highcode_lma
00000cb8 g     F .text	0000004e HSECFG_Current
00001d14  w      .vector_handler	00000000 LLE_IRQHandler
00000000 g       .init	00000000 _sinit
00001b20 g     F .text	0000002c _write_r
20000ae2 g     F .highcode	0000001a FLASH_CMD_ROM_SW_RESET
00001d14  w      .vector_handler	00000000 TMR_IRQHandler
20000b64 g     O .data	00000004 _impure_ptr
00001374 g     F .text	00000132 __sflush_r
00001d14  w      .vector_handler	00000000 WDOG_BAT_IRQHandler
00001d14  w      .vector_handler	00000000 Ecall_U_Mode_Handler
20003000 g       .stack	00000000 _eusrstack
00000d56 g     F .text	00000082 GPIOA_ModeCfg
00001776 g     F .text	00000058 __swhatbuf_r
200007e8 g     F .highcode	00000034 FLASH_ROM_BEG_FF
20000a44 g     F .highcode	00000060 FLASH_CMD_GET_ROM_INFO
00000f32 g     F .text	00000026 _write
20000b6c g       .data	00000000 _edata
20000b84 g       .bss	00000000 _end
20000afc g       .highcode	00000000 _highcode_vma_end
00001d18 g       .dlalign	00000000 _data_lma
00001aa6 g     F .text	00000046 __swrite
00001708 g     F .text	00000068 _fwalk_reent
000015e8 g     F .text	00000006 __sfp_lock_release
00001cd4 g     O .text	00000020 __sf_fake_stdout
00001c50 g     F .text	0000000c _read
00000b00  w      .text	00000000 handle_reset
20000384 g     F .highcode	00000174 LowPower_Shutdown
000017ce g     F .text	00000092 __smakebuf_r
20000b78 g     O .bss	00000004 __malloc_sbrk_start
20000830 g     F .highcode	0000000e FLASH_ROM_END
20000b7c g     O .bss	00000004 __malloc_free_list
200000a0 g     F .highcode	00000040 LowPower_Idle
200009e2 g     F .highcode	00000050 FLASH_CMD_ROM_VERIFY
20000b70 g     O .bss	00000001 __lock___sfp_recursive_mutex
00001c20 g     F .text	0000000c _close
000015ee g     F .text	00000006 __sinit_lock_acquire



Disassembly of section .init:

00000000 <_sinit>:
_start():
c:/Users/seanw/Documents/Data D/CP4101/CH572EVT/EVT/EXAM/SRC/Startup/startup_CH572.S:18
	.section	.init,"ax",@progbits
	.global	_start
 	.global	_vector_base
	.align	1
_start:
	j	handle_reset
   0:	3010006f          	j	b00 <handle_reset>

Disassembly of section .highcode:

20000000 <_highcode_vma_start>:
	...
_vector_base():
20000008:	00001d14          	.word	0x00001d14
2000000c:	20000738          	.word	0x20000738
20000010:	f3f9bda9          	.word	0xf3f9bda9
20000014:	00001d14          	.word	0x00001d14
	...
20000020:	00001d14          	.word	0x00001d14
20000024:	00001d14          	.word	0x00001d14
	...
20000030:	00001d14          	.word	0x00001d14
20000034:	00000000          	.word	0x00000000
20000038:	00001d14          	.word	0x00001d14
	...
20000044:	20000090          	.word	0x20000090
20000048:	00000000          	.word	0x00000000
2000004c:	00001d14          	.word	0x00001d14
20000050:	00001d14          	.word	0x00001d14
20000054:	00001d14          	.word	0x00001d14
20000058:	00001d14          	.word	0x00001d14
2000005c:	00000000          	.word	0x00000000
20000060:	00001d14          	.word	0x00001d14
	...
2000006c:	00001d14          	.word	0x00001d14
20000070:	00001d14          	.word	0x00001d14
20000074:	00001d14          	.word	0x00001d14
20000078:	00001d14          	.word	0x00001d14
2000007c:	00001d14          	.word	0x00001d14
20000080:	00000000          	.word	0x00000000
20000084:	00001d14          	.word	0x00001d14
20000088:	00000000          	.word	0x00000000
2000008c:	00001d14          	.word	0x00001d14

20000090 <GPIOA_IRQHandler>:
GPIOA_IRQHandler():
c:\Users\seanw\Documents\Data D\CP4101\CH572EVT\EVT\EXAM\PM\obj/../src/Main.c:138
 */
__INTERRUPT
__HIGH_CODE
void GPIOA_IRQHandler(void)
{
    GPIOA_ClearITFlagBit(GPIO_Pin_5);
20000090:	400017b7          	lui	a5,0x40001
20000094:	02000713          	li	a4,32
20000098:	08e79e23          	sh	a4,156(a5) # 4000109c <_eusrstack+0x1fffe09c>
c:\Users\seanw\Documents\Data D\CP4101\CH572EVT\EVT\EXAM\PM\obj/../src/Main.c:139
}
2000009c:	30200073          	mret

200000a0 <LowPower_Idle>:
LowPower_Idle():
c:/Users/seanw/Documents/Data D/CP4101/CH572EVT/EVT/EXAM/SRC/StdPeriphDriver/CH57x_pwr.c:132
 *
 * @return  none
 */
__HIGH_CODE
void LowPower_Idle(void)
{
200000a0:	1141                	addi	sp,sp,-16
c:/Users/seanw/Documents/Data D/CP4101/CH572EVT/EVT/EXAM/SRC/StdPeriphDriver/CH57x_pwr.c:133
    FLASH_ROM_SW_RESET();
200000a2:	4681                	li	a3,0
200000a4:	4601                	li	a2,0
200000a6:	4581                	li	a1,0
200000a8:	4511                	li	a0,4
c:/Users/seanw/Documents/Data D/CP4101/CH572EVT/EVT/EXAM/SRC/StdPeriphDriver/CH57x_pwr.c:132
{
200000aa:	c606                	sw	ra,12(sp)
c:/Users/seanw/Documents/Data D/CP4101/CH572EVT/EVT/EXAM/SRC/StdPeriphDriver/CH57x_pwr.c:133
    FLASH_ROM_SW_RESET();
200000ac:	e0001097          	auipc	ra,0xe0001
200000b0:	ed4080e7          	jalr	-300(ra) # f80 <FLASH_EEPROM_CMD>
c:/Users/seanw/Documents/Data D/CP4101/CH572EVT/EVT/EXAM/SRC/StdPeriphDriver/CH57x_pwr.c:134
    R8_FLASH_CTRL = 0x04; //flash关闭
200000b4:	400027b7          	lui	a5,0x40002
200000b8:	4711                	li	a4,4
200000ba:	80e78323          	sb	a4,-2042(a5) # 40001806 <_eusrstack+0x1fffe806>
c:/Users/seanw/Documents/Data D/CP4101/CH572EVT/EVT/EXAM/SRC/StdPeriphDriver/CH57x_pwr.c:136

    PFIC->SCTLR &= ~(1 << 2); // sleep
200000be:	e000f7b7          	lui	a5,0xe000f
200000c2:	d0078793          	addi	a5,a5,-768 # e000ed00 <_eusrstack+0xc000bd00>
200000c6:	4b98                	lw	a4,16(a5)
200000c8:	9b6d                	andi	a4,a4,-5
200000ca:	cb98                	sw	a4,16(a5)
__WFI():
c:/Users/seanw/Documents/Data D/CP4101/CH572EVT/EVT/EXAM/SRC/RVMSIS/core_riscv.h:348
 *
 * @brief   Wait for Interrupt
 */
__attribute__((always_inline)) RV_STATIC_INLINE void __WFI(void)
{
    PFIC->SCTLR &= ~(1 << 3); // wfi
200000cc:	4b98                	lw	a4,16(a5)
200000ce:	9b5d                	andi	a4,a4,-9
200000d0:	cb98                	sw	a4,16(a5)
c:/Users/seanw/Documents/Data D/CP4101/CH572EVT/EVT/EXAM/SRC/RVMSIS/core_riscv.h:349
    __asm__ volatile("wfi");
200000d2:	10500073          	wfi
LowPower_Idle():
c:/Users/seanw/Documents/Data D/CP4101/CH572EVT/EVT/EXAM/SRC/StdPeriphDriver/CH57x_pwr.c:138
    __WFI();
    __nop();
200000d6:	0001                	nop
c:/Users/seanw/Documents/Data D/CP4101/CH572EVT/EVT/EXAM/SRC/StdPeriphDriver/CH57x_pwr.c:139
    __nop();
200000d8:	0001                	nop
c:/Users/seanw/Documents/Data D/CP4101/CH572EVT/EVT/EXAM/SRC/StdPeriphDriver/CH57x_pwr.c:140
}
200000da:	40b2                	lw	ra,12(sp)
200000dc:	0141                	addi	sp,sp,16
200000de:	8082                	ret

200000e0 <LowPower_Halt>:
LowPower_Halt():
c:/Users/seanw/Documents/Data D/CP4101/CH572EVT/EVT/EXAM/SRC/StdPeriphDriver/CH57x_pwr.c:153
 *
 * @return  none
 */
__HIGH_CODE
void LowPower_Halt(void)
{
200000e0:	1101                	addi	sp,sp,-32
c:/Users/seanw/Documents/Data D/CP4101/CH572EVT/EVT/EXAM/SRC/StdPeriphDriver/CH57x_pwr.c:156
    uint8_t x32Mpw;

    FLASH_ROM_SW_RESET();
200000e2:	4681                	li	a3,0
200000e4:	4601                	li	a2,0
200000e6:	4581                	li	a1,0
200000e8:	4511                	li	a0,4
c:/Users/seanw/Documents/Data D/CP4101/CH572EVT/EVT/EXAM/SRC/StdPeriphDriver/CH57x_pwr.c:153
{
200000ea:	ce06                	sw	ra,28(sp)
c:/Users/seanw/Documents/Data D/CP4101/CH572EVT/EVT/EXAM/SRC/StdPeriphDriver/CH57x_pwr.c:156
    FLASH_ROM_SW_RESET();
200000ec:	e0001097          	auipc	ra,0xe0001
200000f0:	e94080e7          	jalr	-364(ra) # f80 <FLASH_EEPROM_CMD>
c:/Users/seanw/Documents/Data D/CP4101/CH572EVT/EVT/EXAM/SRC/StdPeriphDriver/CH57x_pwr.c:157
    R8_FLASH_CTRL = 0x04; //flash关闭
200000f4:	400027b7          	lui	a5,0x40002
200000f8:	4711                	li	a4,4
200000fa:	80e78323          	sb	a4,-2042(a5) # 40001806 <_eusrstack+0x1fffe806>
c:/Users/seanw/Documents/Data D/CP4101/CH572EVT/EVT/EXAM/SRC/StdPeriphDriver/CH57x_pwr.c:158
    x32Mpw = R8_XT32M_TUNE;
200000fe:	400017b7          	lui	a5,0x40001
20000102:	04e7c683          	lbu	a3,78(a5) # 4000104e <_eusrstack+0x1fffe04e>
c:/Users/seanw/Documents/Data D/CP4101/CH572EVT/EVT/EXAM/SRC/StdPeriphDriver/CH57x_pwr.c:159
    if(!(R8_HFCK_PWR_CTRL&RB_CLK_XT32M_KEEP))
20000106:	27bc                	lbu	a5,10(a5)
c:/Users/seanw/Documents/Data D/CP4101/CH572EVT/EVT/EXAM/SRC/StdPeriphDriver/CH57x_pwr.c:158
    x32Mpw = R8_XT32M_TUNE;
20000108:	0ff6f693          	zext.b	a3,a3
c:/Users/seanw/Documents/Data D/CP4101/CH572EVT/EVT/EXAM/SRC/StdPeriphDriver/CH57x_pwr.c:159
    if(!(R8_HFCK_PWR_CTRL&RB_CLK_XT32M_KEEP))
2000010c:	8ba1                	andi	a5,a5,8
2000010e:	e399                	bnez	a5,20000114 <LowPower_Halt+0x34>
c:/Users/seanw/Documents/Data D/CP4101/CH572EVT/EVT/EXAM/SRC/StdPeriphDriver/CH57x_pwr.c:161
    {
        x32Mpw = (x32Mpw & 0xfc) | 0x03; // 150%额定电流
20000110:	0036e693          	ori	a3,a3,3
__risc_v_disable_irq():
c:/Users/seanw/Documents/Data D/CP4101/CH572EVT/EVT/EXAM/SRC/RVMSIS/core_riscv.h:154
    __asm volatile("csrrc %0, 0x800, %1" : \
20000114:	08800713          	li	a4,136
20000118:	800737f3          	csrrc	a5,0x800,a4
c:/Users/seanw/Documents/Data D/CP4101/CH572EVT/EVT/EXAM/SRC/RVMSIS/core_riscv.h:156
    return result & 0x88;
2000011c:	0887f793          	andi	a5,a5,136
LowPower_Halt():
c:/Users/seanw/Documents/Data D/CP4101/CH572EVT/EVT/EXAM/SRC/StdPeriphDriver/CH57x_pwr.c:164
    }

    sys_safe_access_enable();
20000120:	c03e                	sw	a5,0(sp)
20000122:	0000100f          	fence.i
20000126:	400017b7          	lui	a5,0x40001
2000012a:	05700593          	li	a1,87
2000012e:	04b78023          	sb	a1,64(a5) # 40001040 <_eusrstack+0x1fffe040>
20000132:	fa800613          	li	a2,-88
20000136:	04c78023          	sb	a2,64(a5)
2000013a:	0000100f          	fence.i
c:/Users/seanw/Documents/Data D/CP4101/CH572EVT/EVT/EXAM/SRC/StdPeriphDriver/CH57x_pwr.c:165
    R8_BAT_DET_CTRL = 0; // 关闭电压监控
2000013e:	02078223          	sb	zero,36(a5)
c:/Users/seanw/Documents/Data D/CP4101/CH572EVT/EVT/EXAM/SRC/StdPeriphDriver/CH57x_pwr.c:166
    sys_safe_access_disable();
20000142:	04078023          	sb	zero,64(a5)
20000146:	4502                	lw	a0,0(sp)
__risc_v_enable_irq():
c:/Users/seanw/Documents/Data D/CP4101/CH572EVT/EVT/EXAM/SRC/RVMSIS/core_riscv.h:138
    __asm volatile("csrrs %0, 0x800, %1" : \
20000148:	80052573          	csrrs	a0,0x800,a0
LowPower_Halt():
c:/Users/seanw/Documents/Data D/CP4101/CH572EVT/EVT/EXAM/SRC/StdPeriphDriver/CH57x_pwr.c:166
2000014c:	0000100f          	fence.i
__risc_v_disable_irq():
c:/Users/seanw/Documents/Data D/CP4101/CH572EVT/EVT/EXAM/SRC/RVMSIS/core_riscv.h:154
    __asm volatile("csrrc %0, 0x800, %1" : \
20000150:	80073573          	csrrc	a0,0x800,a4
c:/Users/seanw/Documents/Data D/CP4101/CH572EVT/EVT/EXAM/SRC/RVMSIS/core_riscv.h:156
    return result & 0x88;
20000154:	08857513          	andi	a0,a0,136
LowPower_Halt():
c:/Users/seanw/Documents/Data D/CP4101/CH572EVT/EVT/EXAM/SRC/StdPeriphDriver/CH57x_pwr.c:167
    sys_safe_access_enable();
20000158:	c22a                	sw	a0,4(sp)
2000015a:	0000100f          	fence.i
2000015e:	04b78023          	sb	a1,64(a5)
20000162:	04c78023          	sb	a2,64(a5)
20000166:	0000100f          	fence.i
c:/Users/seanw/Documents/Data D/CP4101/CH572EVT/EVT/EXAM/SRC/StdPeriphDriver/CH57x_pwr.c:168
    R8_XT32M_TUNE = x32Mpw;
2000016a:	04d78723          	sb	a3,78(a5)
c:/Users/seanw/Documents/Data D/CP4101/CH572EVT/EVT/EXAM/SRC/StdPeriphDriver/CH57x_pwr.c:169
    sys_safe_access_disable();
2000016e:	04078023          	sb	zero,64(a5)
20000172:	4692                	lw	a3,4(sp)
__risc_v_enable_irq():
c:/Users/seanw/Documents/Data D/CP4101/CH572EVT/EVT/EXAM/SRC/RVMSIS/core_riscv.h:138
    __asm volatile("csrrs %0, 0x800, %1" : \
20000174:	8006a6f3          	csrrs	a3,0x800,a3
LowPower_Halt():
c:/Users/seanw/Documents/Data D/CP4101/CH572EVT/EVT/EXAM/SRC/StdPeriphDriver/CH57x_pwr.c:169
20000178:	0000100f          	fence.i
__risc_v_disable_irq():
c:/Users/seanw/Documents/Data D/CP4101/CH572EVT/EVT/EXAM/SRC/RVMSIS/core_riscv.h:154
    __asm volatile("csrrc %0, 0x800, %1" : \
2000017c:	800736f3          	csrrc	a3,0x800,a4
c:/Users/seanw/Documents/Data D/CP4101/CH572EVT/EVT/EXAM/SRC/RVMSIS/core_riscv.h:156
    return result & 0x88;
20000180:	0886f693          	andi	a3,a3,136
LowPower_Halt():
c:/Users/seanw/Documents/Data D/CP4101/CH572EVT/EVT/EXAM/SRC/StdPeriphDriver/CH57x_pwr.c:170
    sys_safe_access_enable();
20000184:	c436                	sw	a3,8(sp)
20000186:	0000100f          	fence.i
2000018a:	04b78023          	sb	a1,64(a5)
2000018e:	04c78023          	sb	a2,64(a5)
20000192:	0000100f          	fence.i
c:/Users/seanw/Documents/Data D/CP4101/CH572EVT/EVT/EXAM/SRC/StdPeriphDriver/CH57x_pwr.c:171
    R8_PLL_CONFIG |= (1 << 5);
20000196:	04b7c683          	lbu	a3,75(a5)
2000019a:	0206e693          	ori	a3,a3,32
2000019e:	04d785a3          	sb	a3,75(a5)
c:/Users/seanw/Documents/Data D/CP4101/CH572EVT/EVT/EXAM/SRC/StdPeriphDriver/CH57x_pwr.c:172
    sys_safe_access_disable();
200001a2:	04078023          	sb	zero,64(a5)
200001a6:	46a2                	lw	a3,8(sp)
__risc_v_enable_irq():
c:/Users/seanw/Documents/Data D/CP4101/CH572EVT/EVT/EXAM/SRC/RVMSIS/core_riscv.h:138
    __asm volatile("csrrs %0, 0x800, %1" : \
200001a8:	8006a6f3          	csrrs	a3,0x800,a3
LowPower_Halt():
c:/Users/seanw/Documents/Data D/CP4101/CH572EVT/EVT/EXAM/SRC/StdPeriphDriver/CH57x_pwr.c:172
200001ac:	0000100f          	fence.i
c:/Users/seanw/Documents/Data D/CP4101/CH572EVT/EVT/EXAM/SRC/StdPeriphDriver/CH57x_pwr.c:174

    PFIC->SCTLR |= (1 << 2); //deep sleep
200001b0:	e000f6b7          	lui	a3,0xe000f
200001b4:	d0068693          	addi	a3,a3,-768 # e000ed00 <_eusrstack+0xc000bd00>
200001b8:	4a88                	lw	a0,16(a3)
200001ba:	00456513          	ori	a0,a0,4
200001be:	ca88                	sw	a0,16(a3)
__WFI():
c:/Users/seanw/Documents/Data D/CP4101/CH572EVT/EVT/EXAM/SRC/RVMSIS/core_riscv.h:348
    PFIC->SCTLR &= ~(1 << 3); // wfi
200001c0:	4a88                	lw	a0,16(a3)
200001c2:	995d                	andi	a0,a0,-9
200001c4:	ca88                	sw	a0,16(a3)
c:/Users/seanw/Documents/Data D/CP4101/CH572EVT/EVT/EXAM/SRC/RVMSIS/core_riscv.h:349
    __asm__ volatile("wfi");
200001c6:	10500073          	wfi
LowPower_Halt():
c:/Users/seanw/Documents/Data D/CP4101/CH572EVT/EVT/EXAM/SRC/StdPeriphDriver/CH57x_pwr.c:176
    __WFI();
    __nop();
200001ca:	0001                	nop
c:/Users/seanw/Documents/Data D/CP4101/CH572EVT/EVT/EXAM/SRC/StdPeriphDriver/CH57x_pwr.c:177
    __nop();
200001cc:	0001                	nop
__risc_v_disable_irq():
c:/Users/seanw/Documents/Data D/CP4101/CH572EVT/EVT/EXAM/SRC/RVMSIS/core_riscv.h:154
    __asm volatile("csrrc %0, 0x800, %1" : \
200001ce:	80073773          	csrrc	a4,0x800,a4
c:/Users/seanw/Documents/Data D/CP4101/CH572EVT/EVT/EXAM/SRC/RVMSIS/core_riscv.h:156
    return result & 0x88;
200001d2:	08877713          	andi	a4,a4,136
LowPower_Halt():
c:/Users/seanw/Documents/Data D/CP4101/CH572EVT/EVT/EXAM/SRC/StdPeriphDriver/CH57x_pwr.c:178
    sys_safe_access_enable();
200001d6:	c63a                	sw	a4,12(sp)
200001d8:	0000100f          	fence.i
200001dc:	04b78023          	sb	a1,64(a5)
200001e0:	04c78023          	sb	a2,64(a5)
200001e4:	0000100f          	fence.i
c:/Users/seanw/Documents/Data D/CP4101/CH572EVT/EVT/EXAM/SRC/StdPeriphDriver/CH57x_pwr.c:179
    R8_PLL_CONFIG &= ~(1 << 5);
200001e8:	04b7c703          	lbu	a4,75(a5)
200001ec:	0df77713          	andi	a4,a4,223
200001f0:	04e785a3          	sb	a4,75(a5)
c:/Users/seanw/Documents/Data D/CP4101/CH572EVT/EVT/EXAM/SRC/StdPeriphDriver/CH57x_pwr.c:180
    sys_safe_access_disable();
200001f4:	04078023          	sb	zero,64(a5)
200001f8:	47b2                	lw	a5,12(sp)
__risc_v_enable_irq():
c:/Users/seanw/Documents/Data D/CP4101/CH572EVT/EVT/EXAM/SRC/RVMSIS/core_riscv.h:138
    __asm volatile("csrrs %0, 0x800, %1" : \
200001fa:	8007a7f3          	csrrs	a5,0x800,a5
LowPower_Halt():
c:/Users/seanw/Documents/Data D/CP4101/CH572EVT/EVT/EXAM/SRC/StdPeriphDriver/CH57x_pwr.c:180
200001fe:	0000100f          	fence.i
c:/Users/seanw/Documents/Data D/CP4101/CH572EVT/EVT/EXAM/SRC/StdPeriphDriver/CH57x_pwr.c:181
}
20000202:	40f2                	lw	ra,28(sp)
20000204:	6105                	addi	sp,sp,32
20000206:	8082                	ret

20000208 <LowPower_Sleep>:
LowPower_Sleep():
c:/Users/seanw/Documents/Data D/CP4101/CH572EVT/EVT/EXAM/SRC/StdPeriphDriver/CH57x_pwr.c:201
    uint8_t x32Mpw;
    uint16_t power_plan;
    uint8_t clk_sys_cfg;
    uint16_t hfck_pwr_ctrl;

    clk_sys_cfg = R8_CLK_SYS_CFG;
20000208:	400017b7          	lui	a5,0x40001
2000020c:	0087c803          	lbu	a6,8(a5) # 40001008 <_eusrstack+0x1fffe008>
c:/Users/seanw/Documents/Data D/CP4101/CH572EVT/EVT/EXAM/SRC/StdPeriphDriver/CH57x_pwr.c:202
    hfck_pwr_ctrl = R8_HFCK_PWR_CTRL;
20000210:	27b8                	lbu	a4,10(a5)
c:/Users/seanw/Documents/Data D/CP4101/CH572EVT/EVT/EXAM/SRC/StdPeriphDriver/CH57x_pwr.c:203
    x32Mpw = R8_XT32M_TUNE;
20000212:	04e7c583          	lbu	a1,78(a5)
c:/Users/seanw/Documents/Data D/CP4101/CH572EVT/EVT/EXAM/SRC/StdPeriphDriver/CH57x_pwr.c:195
{
20000216:	1101                	addi	sp,sp,-32
c:/Users/seanw/Documents/Data D/CP4101/CH572EVT/EVT/EXAM/SRC/StdPeriphDriver/CH57x_pwr.c:201
    clk_sys_cfg = R8_CLK_SYS_CFG;
20000218:	0ff87813          	zext.b	a6,a6
c:/Users/seanw/Documents/Data D/CP4101/CH572EVT/EVT/EXAM/SRC/StdPeriphDriver/CH57x_pwr.c:204
    x32Mpw = (x32Mpw & 0xfc) | 0x03; // 150%额定电流
2000021c:	0035e593          	ori	a1,a1,3
__risc_v_disable_irq():
c:/Users/seanw/Documents/Data D/CP4101/CH572EVT/EVT/EXAM/SRC/RVMSIS/core_riscv.h:154
    __asm volatile("csrrc %0, 0x800, %1" : \
20000220:	08800713          	li	a4,136
20000224:	800736f3          	csrrc	a3,0x800,a4
c:/Users/seanw/Documents/Data D/CP4101/CH572EVT/EVT/EXAM/SRC/RVMSIS/core_riscv.h:156
    return result & 0x88;
20000228:	0886f693          	andi	a3,a3,136
LowPower_Sleep():
c:/Users/seanw/Documents/Data D/CP4101/CH572EVT/EVT/EXAM/SRC/StdPeriphDriver/CH57x_pwr.c:206

    sys_safe_access_enable();
2000022c:	c436                	sw	a3,8(sp)
2000022e:	0000100f          	fence.i
20000232:	05700613          	li	a2,87
20000236:	04c78023          	sb	a2,64(a5)
2000023a:	fa800693          	li	a3,-88
2000023e:	04d78023          	sb	a3,64(a5)
20000242:	0000100f          	fence.i
c:/Users/seanw/Documents/Data D/CP4101/CH572EVT/EVT/EXAM/SRC/StdPeriphDriver/CH57x_pwr.c:207
    R8_BAT_DET_CTRL = 0; // 关闭电压监控
20000246:	02078223          	sb	zero,36(a5)
c:/Users/seanw/Documents/Data D/CP4101/CH572EVT/EVT/EXAM/SRC/StdPeriphDriver/CH57x_pwr.c:208
    sys_safe_access_disable();
2000024a:	04078023          	sb	zero,64(a5)
2000024e:	48a2                	lw	a7,8(sp)
__risc_v_enable_irq():
c:/Users/seanw/Documents/Data D/CP4101/CH572EVT/EVT/EXAM/SRC/RVMSIS/core_riscv.h:138
    __asm volatile("csrrs %0, 0x800, %1" : \
20000250:	8008a8f3          	csrrs	a7,0x800,a7
LowPower_Sleep():
c:/Users/seanw/Documents/Data D/CP4101/CH572EVT/EVT/EXAM/SRC/StdPeriphDriver/CH57x_pwr.c:208
20000254:	0000100f          	fence.i
__risc_v_disable_irq():
c:/Users/seanw/Documents/Data D/CP4101/CH572EVT/EVT/EXAM/SRC/RVMSIS/core_riscv.h:154
    __asm volatile("csrrc %0, 0x800, %1" : \
20000258:	800738f3          	csrrc	a7,0x800,a4
c:/Users/seanw/Documents/Data D/CP4101/CH572EVT/EVT/EXAM/SRC/RVMSIS/core_riscv.h:156
    return result & 0x88;
2000025c:	0888f893          	andi	a7,a7,136
LowPower_Sleep():
c:/Users/seanw/Documents/Data D/CP4101/CH572EVT/EVT/EXAM/SRC/StdPeriphDriver/CH57x_pwr.c:209
    sys_safe_access_enable();
20000260:	c646                	sw	a7,12(sp)
20000262:	0000100f          	fence.i
20000266:	04c78023          	sb	a2,64(a5)
2000026a:	04d78023          	sb	a3,64(a5)
2000026e:	0000100f          	fence.i
c:/Users/seanw/Documents/Data D/CP4101/CH572EVT/EVT/EXAM/SRC/StdPeriphDriver/CH57x_pwr.c:210
    R8_XT32M_TUNE = x32Mpw;
20000272:	04b78723          	sb	a1,78(a5)
c:/Users/seanw/Documents/Data D/CP4101/CH572EVT/EVT/EXAM/SRC/StdPeriphDriver/CH57x_pwr.c:211
    sys_safe_access_disable();
20000276:	04078023          	sb	zero,64(a5)
2000027a:	45b2                	lw	a1,12(sp)
__risc_v_enable_irq():
c:/Users/seanw/Documents/Data D/CP4101/CH572EVT/EVT/EXAM/SRC/RVMSIS/core_riscv.h:138
    __asm volatile("csrrs %0, 0x800, %1" : \
2000027c:	8005a5f3          	csrrs	a1,0x800,a1
LowPower_Sleep():
c:/Users/seanw/Documents/Data D/CP4101/CH572EVT/EVT/EXAM/SRC/StdPeriphDriver/CH57x_pwr.c:211
20000280:	0000100f          	fence.i
c:/Users/seanw/Documents/Data D/CP4101/CH572EVT/EVT/EXAM/SRC/StdPeriphDriver/CH57x_pwr.c:213

    PFIC->SCTLR |= (1 << 2); //deep sleep
20000284:	e000f5b7          	lui	a1,0xe000f
20000288:	d0058593          	addi	a1,a1,-768 # e000ed00 <_eusrstack+0xc000bd00>
2000028c:	0105a883          	lw	a7,16(a1)
20000290:	0048e893          	ori	a7,a7,4
20000294:	0115a823          	sw	a7,16(a1)
c:/Users/seanw/Documents/Data D/CP4101/CH572EVT/EVT/EXAM/SRC/StdPeriphDriver/CH57x_pwr.c:215

    power_plan = RB_PWR_PLAN_EN | RB_PWR_CORE | rm | (2<<11);
20000298:	78e5                	lui	a7,0xffff9
2000029a:	0891                	addi	a7,a7,4 # ffff9004 <_eusrstack+0xdfff6004>
2000029c:	01156533          	or	a0,a0,a7
200002a0:	08054533          	zext.h	a0,a0
__risc_v_disable_irq():
c:/Users/seanw/Documents/Data D/CP4101/CH572EVT/EVT/EXAM/SRC/RVMSIS/core_riscv.h:154
    __asm volatile("csrrc %0, 0x800, %1" : \
200002a4:	800738f3          	csrrc	a7,0x800,a4
c:/Users/seanw/Documents/Data D/CP4101/CH572EVT/EVT/EXAM/SRC/RVMSIS/core_riscv.h:156
    return result & 0x88;
200002a8:	0888f893          	andi	a7,a7,136
LowPower_Sleep():
c:/Users/seanw/Documents/Data D/CP4101/CH572EVT/EVT/EXAM/SRC/StdPeriphDriver/CH57x_pwr.c:217

    sys_safe_access_enable();
200002ac:	c846                	sw	a7,16(sp)
200002ae:	0000100f          	fence.i
200002b2:	04c78023          	sb	a2,64(a5)
200002b6:	04d78023          	sb	a3,64(a5)
200002ba:	0000100f          	fence.i
c:/Users/seanw/Documents/Data D/CP4101/CH572EVT/EVT/EXAM/SRC/StdPeriphDriver/CH57x_pwr.c:220

    // 需要测试周期数 目前用的3584
    R8_SLP_POWER_CTRL |= 0x40;
200002be:	00f7c883          	lbu	a7,15(a5)
200002c2:	0408e893          	ori	a7,a7,64
200002c6:	011787a3          	sb	a7,15(a5)
c:/Users/seanw/Documents/Data D/CP4101/CH572EVT/EVT/EXAM/SRC/StdPeriphDriver/CH57x_pwr.c:222

    R16_POWER_PLAN = power_plan;
200002ca:	b38a                	sh	a0,32(a5)
c:/Users/seanw/Documents/Data D/CP4101/CH572EVT/EVT/EXAM/SRC/StdPeriphDriver/CH57x_pwr.c:223
    sys_safe_access_disable();
200002cc:	04078023          	sb	zero,64(a5)
200002d0:	4542                	lw	a0,16(sp)
__risc_v_enable_irq():
c:/Users/seanw/Documents/Data D/CP4101/CH572EVT/EVT/EXAM/SRC/RVMSIS/core_riscv.h:138
    __asm volatile("csrrs %0, 0x800, %1" : \
200002d2:	80052573          	csrrs	a0,0x800,a0
LowPower_Sleep():
c:/Users/seanw/Documents/Data D/CP4101/CH572EVT/EVT/EXAM/SRC/StdPeriphDriver/CH57x_pwr.c:223
200002d6:	0000100f          	fence.i
__risc_v_disable_irq():
c:/Users/seanw/Documents/Data D/CP4101/CH572EVT/EVT/EXAM/SRC/RVMSIS/core_riscv.h:154
    __asm volatile("csrrc %0, 0x800, %1" : \
200002da:	80073573          	csrrc	a0,0x800,a4
c:/Users/seanw/Documents/Data D/CP4101/CH572EVT/EVT/EXAM/SRC/RVMSIS/core_riscv.h:156
    return result & 0x88;
200002de:	08857513          	andi	a0,a0,136
LowPower_Sleep():
c:/Users/seanw/Documents/Data D/CP4101/CH572EVT/EVT/EXAM/SRC/StdPeriphDriver/CH57x_pwr.c:224
    sys_safe_access_enable();
200002e2:	ca2a                	sw	a0,20(sp)
200002e4:	0000100f          	fence.i
200002e8:	04c78023          	sb	a2,64(a5)
200002ec:	04d78023          	sb	a3,64(a5)
200002f0:	0000100f          	fence.i
c:/Users/seanw/Documents/Data D/CP4101/CH572EVT/EVT/EXAM/SRC/StdPeriphDriver/CH57x_pwr.c:225
    R8_CLK_SYS_CFG = CLK_SOURCE_HSE_PLL_24MHz;
200002f4:	05900513          	li	a0,89
200002f8:	a788                	sb	a0,8(a5)
c:/Users/seanw/Documents/Data D/CP4101/CH572EVT/EVT/EXAM/SRC/StdPeriphDriver/CH57x_pwr.c:226
    sys_safe_access_disable();
200002fa:	04078023          	sb	zero,64(a5)
200002fe:	4552                	lw	a0,20(sp)
__risc_v_enable_irq():
c:/Users/seanw/Documents/Data D/CP4101/CH572EVT/EVT/EXAM/SRC/RVMSIS/core_riscv.h:138
    __asm volatile("csrrs %0, 0x800, %1" : \
20000300:	80052573          	csrrs	a0,0x800,a0
LowPower_Sleep():
c:/Users/seanw/Documents/Data D/CP4101/CH572EVT/EVT/EXAM/SRC/StdPeriphDriver/CH57x_pwr.c:226
20000304:	0000100f          	fence.i
__WFI():
c:/Users/seanw/Documents/Data D/CP4101/CH572EVT/EVT/EXAM/SRC/RVMSIS/core_riscv.h:348
    PFIC->SCTLR &= ~(1 << 3); // wfi
20000308:	4988                	lw	a0,16(a1)
2000030a:	995d                	andi	a0,a0,-9
2000030c:	c988                	sw	a0,16(a1)
c:/Users/seanw/Documents/Data D/CP4101/CH572EVT/EVT/EXAM/SRC/RVMSIS/core_riscv.h:349
    __asm__ volatile("wfi");
2000030e:	10500073          	wfi
LowPower_Sleep():
c:/Users/seanw/Documents/Data D/CP4101/CH572EVT/EVT/EXAM/SRC/StdPeriphDriver/CH57x_pwr.c:238
//    sys_safe_access_enable();
//    R8_PLL_CONFIG |= (1 << 5);
//    sys_safe_access_disable();

    __WFI();
    __nop();
20000312:	0001                	nop
c:/Users/seanw/Documents/Data D/CP4101/CH572EVT/EVT/EXAM/SRC/StdPeriphDriver/CH57x_pwr.c:239
    __nop();
20000314:	0001                	nop
__risc_v_disable_irq():
c:/Users/seanw/Documents/Data D/CP4101/CH572EVT/EVT/EXAM/SRC/RVMSIS/core_riscv.h:154
    __asm volatile("csrrc %0, 0x800, %1" : \
20000316:	800735f3          	csrrc	a1,0x800,a4
c:/Users/seanw/Documents/Data D/CP4101/CH572EVT/EVT/EXAM/SRC/RVMSIS/core_riscv.h:156
    return result & 0x88;
2000031a:	0885f593          	andi	a1,a1,136
LowPower_Sleep():
c:/Users/seanw/Documents/Data D/CP4101/CH572EVT/EVT/EXAM/SRC/StdPeriphDriver/CH57x_pwr.c:241

    sys_safe_access_enable();
2000031e:	cc2e                	sw	a1,24(sp)
20000320:	0000100f          	fence.i
20000324:	04c78023          	sb	a2,64(a5)
20000328:	04d78023          	sb	a3,64(a5)
2000032c:	0000100f          	fence.i
c:/Users/seanw/Documents/Data D/CP4101/CH572EVT/EVT/EXAM/SRC/StdPeriphDriver/CH57x_pwr.c:242
    R8_CLK_SYS_CFG = clk_sys_cfg;
20000330:	01078423          	sb	a6,8(a5)
c:/Users/seanw/Documents/Data D/CP4101/CH572EVT/EVT/EXAM/SRC/StdPeriphDriver/CH57x_pwr.c:244
//    R8_HFCK_PWR_CTRL = hfck_pwr_ctrl;
    sys_safe_access_disable();
20000334:	04078023          	sb	zero,64(a5)
20000338:	45e2                	lw	a1,24(sp)
__risc_v_enable_irq():
c:/Users/seanw/Documents/Data D/CP4101/CH572EVT/EVT/EXAM/SRC/RVMSIS/core_riscv.h:138
    __asm volatile("csrrs %0, 0x800, %1" : \
2000033a:	8005a5f3          	csrrs	a1,0x800,a1
LowPower_Sleep():
c:/Users/seanw/Documents/Data D/CP4101/CH572EVT/EVT/EXAM/SRC/StdPeriphDriver/CH57x_pwr.c:244
2000033e:	0000100f          	fence.i
__risc_v_disable_irq():
c:/Users/seanw/Documents/Data D/CP4101/CH572EVT/EVT/EXAM/SRC/RVMSIS/core_riscv.h:154
    __asm volatile("csrrc %0, 0x800, %1" : \
20000342:	80073773          	csrrc	a4,0x800,a4
c:/Users/seanw/Documents/Data D/CP4101/CH572EVT/EVT/EXAM/SRC/RVMSIS/core_riscv.h:156
    return result & 0x88;
20000346:	08877713          	andi	a4,a4,136
LowPower_Sleep():
c:/Users/seanw/Documents/Data D/CP4101/CH572EVT/EVT/EXAM/SRC/StdPeriphDriver/CH57x_pwr.c:245
    sys_safe_access_enable();
2000034a:	ce3a                	sw	a4,28(sp)
2000034c:	0000100f          	fence.i
20000350:	04c78023          	sb	a2,64(a5)
20000354:	04d78023          	sb	a3,64(a5)
20000358:	0000100f          	fence.i
c:/Users/seanw/Documents/Data D/CP4101/CH572EVT/EVT/EXAM/SRC/StdPeriphDriver/CH57x_pwr.c:246
    R16_POWER_PLAN &= ~RB_PWR_PLAN_EN;
2000035c:	339a                	lhu	a4,32(a5)
c:/Users/seanw/Documents/Data D/CP4101/CH572EVT/EVT/EXAM/SRC/StdPeriphDriver/CH57x_pwr.c:247
    R16_POWER_PLAN &= ~RB_XT_PRE_EN;
2000035e:	76f1                	lui	a3,0xffffc
20000360:	16fd                	addi	a3,a3,-1 # ffffbfff <_eusrstack+0xdfff8fff>
c:/Users/seanw/Documents/Data D/CP4101/CH572EVT/EVT/EXAM/SRC/StdPeriphDriver/CH57x_pwr.c:246
    R16_POWER_PLAN &= ~RB_PWR_PLAN_EN;
20000362:	0746                	slli	a4,a4,0x11
20000364:	8345                	srli	a4,a4,0x11
20000366:	b39a                	sh	a4,32(a5)
c:/Users/seanw/Documents/Data D/CP4101/CH572EVT/EVT/EXAM/SRC/StdPeriphDriver/CH57x_pwr.c:247
    R16_POWER_PLAN &= ~RB_XT_PRE_EN;
20000368:	339a                	lhu	a4,32(a5)
2000036a:	8f75                	and	a4,a4,a3
2000036c:	b39a                	sh	a4,32(a5)
c:/Users/seanw/Documents/Data D/CP4101/CH572EVT/EVT/EXAM/SRC/StdPeriphDriver/CH57x_pwr.c:248
    sys_safe_access_disable();
2000036e:	04078023          	sb	zero,64(a5)
20000372:	47f2                	lw	a5,28(sp)
__risc_v_enable_irq():
c:/Users/seanw/Documents/Data D/CP4101/CH572EVT/EVT/EXAM/SRC/RVMSIS/core_riscv.h:138
    __asm volatile("csrrs %0, 0x800, %1" : \
20000374:	8007a7f3          	csrrs	a5,0x800,a5
LowPower_Sleep():
c:/Users/seanw/Documents/Data D/CP4101/CH572EVT/EVT/EXAM/SRC/StdPeriphDriver/CH57x_pwr.c:248
20000378:	0000100f          	fence.i
c:/Users/seanw/Documents/Data D/CP4101/CH572EVT/EVT/EXAM/SRC/StdPeriphDriver/CH57x_pwr.c:252
//    sys_safe_access_enable();
//    R8_PLL_CONFIG &= ~(1 << 5);
//    sys_safe_access_disable();
    DelayUs(40);
2000037c:	02800513          	li	a0,40
c:/Users/seanw/Documents/Data D/CP4101/CH572EVT/EVT/EXAM/SRC/StdPeriphDriver/CH57x_pwr.c:253
}
20000380:	6105                	addi	sp,sp,32
c:/Users/seanw/Documents/Data D/CP4101/CH572EVT/EVT/EXAM/SRC/StdPeriphDriver/CH57x_pwr.c:252
    DelayUs(40);
20000382:	a92d                	j	200007bc <mDelayuS>

20000384 <LowPower_Shutdown>:
LowPower_Shutdown():
c:/Users/seanw/Documents/Data D/CP4101/CH572EVT/EVT/EXAM/SRC/StdPeriphDriver/CH57x_pwr.c:270
 *
 * @return  none
 */
__HIGH_CODE
void LowPower_Shutdown(uint16_t rm)
{
20000384:	7139                	addi	sp,sp,-64
20000386:	d256                	sw	s5,36(sp)
c:/Users/seanw/Documents/Data D/CP4101/CH572EVT/EVT/EXAM/SRC/StdPeriphDriver/CH57x_pwr.c:273
    uint8_t x32Mpw;

    FLASH_ROM_SW_RESET();
20000388:	4681                	li	a3,0
c:/Users/seanw/Documents/Data D/CP4101/CH572EVT/EVT/EXAM/SRC/StdPeriphDriver/CH57x_pwr.c:270
{
2000038a:	8aaa                	mv	s5,a0
c:/Users/seanw/Documents/Data D/CP4101/CH572EVT/EVT/EXAM/SRC/StdPeriphDriver/CH57x_pwr.c:273
    FLASH_ROM_SW_RESET();
2000038c:	4601                	li	a2,0
2000038e:	4581                	li	a1,0
20000390:	4511                	li	a0,4
c:/Users/seanw/Documents/Data D/CP4101/CH572EVT/EVT/EXAM/SRC/StdPeriphDriver/CH57x_pwr.c:270
{
20000392:	dc22                	sw	s0,56(sp)
20000394:	da26                	sw	s1,52(sp)
20000396:	de06                	sw	ra,60(sp)
20000398:	d84a                	sw	s2,48(sp)
2000039a:	d64e                	sw	s3,44(sp)
2000039c:	d452                	sw	s4,40(sp)
c:/Users/seanw/Documents/Data D/CP4101/CH572EVT/EVT/EXAM/SRC/StdPeriphDriver/CH57x_pwr.c:274
    x32Mpw = R8_XT32M_TUNE;
2000039e:	40001437          	lui	s0,0x40001
c:/Users/seanw/Documents/Data D/CP4101/CH572EVT/EVT/EXAM/SRC/StdPeriphDriver/CH57x_pwr.c:273
    FLASH_ROM_SW_RESET();
200003a2:	e0001097          	auipc	ra,0xe0001
200003a6:	bde080e7          	jalr	-1058(ra) # f80 <FLASH_EEPROM_CMD>
c:/Users/seanw/Documents/Data D/CP4101/CH572EVT/EVT/EXAM/SRC/StdPeriphDriver/CH57x_pwr.c:274
    x32Mpw = R8_XT32M_TUNE;
200003aa:	04e44783          	lbu	a5,78(s0) # 4000104e <_eusrstack+0x1fffe04e>
__risc_v_disable_irq():
c:/Users/seanw/Documents/Data D/CP4101/CH572EVT/EVT/EXAM/SRC/RVMSIS/core_riscv.h:154
    __asm volatile("csrrc %0, 0x800, %1" : \
200003ae:	08800493          	li	s1,136
LowPower_Shutdown():
c:/Users/seanw/Documents/Data D/CP4101/CH572EVT/EVT/EXAM/SRC/StdPeriphDriver/CH57x_pwr.c:275
    x32Mpw = (x32Mpw & 0xfc) | 0x03; // 150%额定电流
200003b2:	0037e793          	ori	a5,a5,3
__risc_v_disable_irq():
c:/Users/seanw/Documents/Data D/CP4101/CH572EVT/EVT/EXAM/SRC/RVMSIS/core_riscv.h:154
200003b6:	8004b773          	csrrc	a4,0x800,s1
c:/Users/seanw/Documents/Data D/CP4101/CH572EVT/EVT/EXAM/SRC/RVMSIS/core_riscv.h:156
    return result & 0x88;
200003ba:	08877713          	andi	a4,a4,136
LowPower_Shutdown():
c:/Users/seanw/Documents/Data D/CP4101/CH572EVT/EVT/EXAM/SRC/StdPeriphDriver/CH57x_pwr.c:277

    sys_safe_access_enable();
200003be:	c63a                	sw	a4,12(sp)
200003c0:	0000100f          	fence.i
200003c4:	05700a13          	li	s4,87
200003c8:	05440023          	sb	s4,64(s0)
200003cc:	fa800993          	li	s3,-88
200003d0:	05340023          	sb	s3,64(s0)
200003d4:	0000100f          	fence.i
c:/Users/seanw/Documents/Data D/CP4101/CH572EVT/EVT/EXAM/SRC/StdPeriphDriver/CH57x_pwr.c:278
    R8_BAT_DET_CTRL = 0; // 关闭电压监控
200003d8:	02040223          	sb	zero,36(s0)
c:/Users/seanw/Documents/Data D/CP4101/CH572EVT/EVT/EXAM/SRC/StdPeriphDriver/CH57x_pwr.c:279
    sys_safe_access_disable();
200003dc:	04040023          	sb	zero,64(s0)
200003e0:	4732                	lw	a4,12(sp)
__risc_v_enable_irq():
c:/Users/seanw/Documents/Data D/CP4101/CH572EVT/EVT/EXAM/SRC/RVMSIS/core_riscv.h:138
    __asm volatile("csrrs %0, 0x800, %1" : \
200003e2:	80072773          	csrrs	a4,0x800,a4
LowPower_Shutdown():
c:/Users/seanw/Documents/Data D/CP4101/CH572EVT/EVT/EXAM/SRC/StdPeriphDriver/CH57x_pwr.c:279
200003e6:	0000100f          	fence.i
__risc_v_disable_irq():
c:/Users/seanw/Documents/Data D/CP4101/CH572EVT/EVT/EXAM/SRC/RVMSIS/core_riscv.h:154
    __asm volatile("csrrc %0, 0x800, %1" : \
200003ea:	8004b773          	csrrc	a4,0x800,s1
c:/Users/seanw/Documents/Data D/CP4101/CH572EVT/EVT/EXAM/SRC/RVMSIS/core_riscv.h:156
    return result & 0x88;
200003ee:	08877713          	andi	a4,a4,136
LowPower_Shutdown():
c:/Users/seanw/Documents/Data D/CP4101/CH572EVT/EVT/EXAM/SRC/StdPeriphDriver/CH57x_pwr.c:280
    sys_safe_access_enable();
200003f2:	c83a                	sw	a4,16(sp)
200003f4:	0000100f          	fence.i
200003f8:	05440023          	sb	s4,64(s0)
200003fc:	05340023          	sb	s3,64(s0)
20000400:	0000100f          	fence.i
c:/Users/seanw/Documents/Data D/CP4101/CH572EVT/EVT/EXAM/SRC/StdPeriphDriver/CH57x_pwr.c:281
    R8_XT32M_TUNE = x32Mpw;
20000404:	04f40723          	sb	a5,78(s0)
c:/Users/seanw/Documents/Data D/CP4101/CH572EVT/EVT/EXAM/SRC/StdPeriphDriver/CH57x_pwr.c:282
    sys_safe_access_disable();
20000408:	04040023          	sb	zero,64(s0)
2000040c:	47c2                	lw	a5,16(sp)
__risc_v_enable_irq():
c:/Users/seanw/Documents/Data D/CP4101/CH572EVT/EVT/EXAM/SRC/RVMSIS/core_riscv.h:138
    __asm volatile("csrrs %0, 0x800, %1" : \
2000040e:	8007a7f3          	csrrs	a5,0x800,a5
LowPower_Shutdown():
c:/Users/seanw/Documents/Data D/CP4101/CH572EVT/EVT/EXAM/SRC/StdPeriphDriver/CH57x_pwr.c:282
20000412:	0000100f          	fence.i
c:/Users/seanw/Documents/Data D/CP4101/CH572EVT/EVT/EXAM/SRC/StdPeriphDriver/CH57x_pwr.c:284

    PFIC->SCTLR |= (1 << 2); //deep sleep
20000416:	e000f937          	lui	s2,0xe000f
2000041a:	d1092783          	lw	a5,-752(s2) # e000ed10 <_eusrstack+0xc000bd10>
c:/Users/seanw/Documents/Data D/CP4101/CH572EVT/EVT/EXAM/SRC/StdPeriphDriver/CH57x_pwr.c:286

    SetSysClock(CLK_SOURCE_HSE_PLL_24MHz);
2000041e:	05900513          	li	a0,89
c:/Users/seanw/Documents/Data D/CP4101/CH572EVT/EVT/EXAM/SRC/StdPeriphDriver/CH57x_pwr.c:284
    PFIC->SCTLR |= (1 << 2); //deep sleep
20000422:	d0090913          	addi	s2,s2,-768
20000426:	0047e793          	ori	a5,a5,4
2000042a:	00f92823          	sw	a5,16(s2)
c:/Users/seanw/Documents/Data D/CP4101/CH572EVT/EVT/EXAM/SRC/StdPeriphDriver/CH57x_pwr.c:286
    SetSysClock(CLK_SOURCE_HSE_PLL_24MHz);
2000042e:	20e9                	jal	200004f8 <SetSysClock>
__risc_v_disable_irq():
c:/Users/seanw/Documents/Data D/CP4101/CH572EVT/EVT/EXAM/SRC/RVMSIS/core_riscv.h:154
    __asm volatile("csrrc %0, 0x800, %1" : \
20000430:	8004b7f3          	csrrc	a5,0x800,s1
c:/Users/seanw/Documents/Data D/CP4101/CH572EVT/EVT/EXAM/SRC/RVMSIS/core_riscv.h:156
    return result & 0x88;
20000434:	0887f793          	andi	a5,a5,136
LowPower_Shutdown():
c:/Users/seanw/Documents/Data D/CP4101/CH572EVT/EVT/EXAM/SRC/StdPeriphDriver/CH57x_pwr.c:287
    sys_safe_access_enable();
20000438:	ca3e                	sw	a5,20(sp)
2000043a:	0000100f          	fence.i
2000043e:	05440023          	sb	s4,64(s0)
20000442:	05340023          	sb	s3,64(s0)
20000446:	0000100f          	fence.i
c:/Users/seanw/Documents/Data D/CP4101/CH572EVT/EVT/EXAM/SRC/StdPeriphDriver/CH57x_pwr.c:288
    R8_SLP_POWER_CTRL |= 0x40;
2000044a:	347c                	lbu	a5,15(s0)
2000044c:	0407e793          	ori	a5,a5,64
20000450:	b47c                	sb	a5,15(s0)
c:/Users/seanw/Documents/Data D/CP4101/CH572EVT/EVT/EXAM/SRC/StdPeriphDriver/CH57x_pwr.c:289
    sys_safe_access_disable();
20000452:	04040023          	sb	zero,64(s0)
20000456:	47d2                	lw	a5,20(sp)
__risc_v_enable_irq():
c:/Users/seanw/Documents/Data D/CP4101/CH572EVT/EVT/EXAM/SRC/RVMSIS/core_riscv.h:138
    __asm volatile("csrrs %0, 0x800, %1" : \
20000458:	8007a7f3          	csrrs	a5,0x800,a5
LowPower_Shutdown():
c:/Users/seanw/Documents/Data D/CP4101/CH572EVT/EVT/EXAM/SRC/StdPeriphDriver/CH57x_pwr.c:289
2000045c:	0000100f          	fence.i
__risc_v_disable_irq():
c:/Users/seanw/Documents/Data D/CP4101/CH572EVT/EVT/EXAM/SRC/RVMSIS/core_riscv.h:154
    __asm volatile("csrrc %0, 0x800, %1" : \
20000460:	8004b7f3          	csrrc	a5,0x800,s1
c:/Users/seanw/Documents/Data D/CP4101/CH572EVT/EVT/EXAM/SRC/RVMSIS/core_riscv.h:156
    return result & 0x88;
20000464:	0887f793          	andi	a5,a5,136
LowPower_Shutdown():
c:/Users/seanw/Documents/Data D/CP4101/CH572EVT/EVT/EXAM/SRC/StdPeriphDriver/CH57x_pwr.c:290
    sys_safe_access_enable();
20000468:	cc3e                	sw	a5,24(sp)
2000046a:	0000100f          	fence.i
2000046e:	05440023          	sb	s4,64(s0)
20000472:	05340023          	sb	s3,64(s0)
20000476:	0000100f          	fence.i
c:/Users/seanw/Documents/Data D/CP4101/CH572EVT/EVT/EXAM/SRC/StdPeriphDriver/CH57x_pwr.c:291
    R16_POWER_PLAN = RB_PWR_PLAN_EN | rm;
2000047a:	28fa9a93          	bseti	s5,s5,0xf
2000047e:	03541023          	sh	s5,32(s0)
c:/Users/seanw/Documents/Data D/CP4101/CH572EVT/EVT/EXAM/SRC/StdPeriphDriver/CH57x_pwr.c:292
    sys_safe_access_disable();
20000482:	04040023          	sb	zero,64(s0)
20000486:	47e2                	lw	a5,24(sp)
__risc_v_enable_irq():
c:/Users/seanw/Documents/Data D/CP4101/CH572EVT/EVT/EXAM/SRC/RVMSIS/core_riscv.h:138
    __asm volatile("csrrs %0, 0x800, %1" : \
20000488:	8007a7f3          	csrrs	a5,0x800,a5
LowPower_Shutdown():
c:/Users/seanw/Documents/Data D/CP4101/CH572EVT/EVT/EXAM/SRC/StdPeriphDriver/CH57x_pwr.c:292
2000048c:	0000100f          	fence.i
__WFI():
c:/Users/seanw/Documents/Data D/CP4101/CH572EVT/EVT/EXAM/SRC/RVMSIS/core_riscv.h:348
    PFIC->SCTLR &= ~(1 << 3); // wfi
20000490:	01092783          	lw	a5,16(s2)
20000494:	9bdd                	andi	a5,a5,-9
20000496:	00f92823          	sw	a5,16(s2)
c:/Users/seanw/Documents/Data D/CP4101/CH572EVT/EVT/EXAM/SRC/RVMSIS/core_riscv.h:349
    __asm__ volatile("wfi");
2000049a:	10500073          	wfi
LowPower_Shutdown():
c:/Users/seanw/Documents/Data D/CP4101/CH572EVT/EVT/EXAM/SRC/StdPeriphDriver/CH57x_pwr.c:294
    __WFI();
    __nop();
2000049e:	0001                	nop
c:/Users/seanw/Documents/Data D/CP4101/CH572EVT/EVT/EXAM/SRC/StdPeriphDriver/CH57x_pwr.c:295
    __nop();
200004a0:	0001                	nop
c:/Users/seanw/Documents/Data D/CP4101/CH572EVT/EVT/EXAM/SRC/StdPeriphDriver/CH57x_pwr.c:296
    FLASH_ROM_SW_RESET();
200004a2:	4681                	li	a3,0
200004a4:	4601                	li	a2,0
200004a6:	4581                	li	a1,0
200004a8:	4511                	li	a0,4
200004aa:	e0001097          	auipc	ra,0xe0001
200004ae:	ad6080e7          	jalr	-1322(ra) # f80 <FLASH_EEPROM_CMD>
__risc_v_disable_irq():
c:/Users/seanw/Documents/Data D/CP4101/CH572EVT/EVT/EXAM/SRC/RVMSIS/core_riscv.h:154
    __asm volatile("csrrc %0, 0x800, %1" : \
200004b2:	8004b4f3          	csrrc	s1,0x800,s1
c:/Users/seanw/Documents/Data D/CP4101/CH572EVT/EVT/EXAM/SRC/RVMSIS/core_riscv.h:156
    return result & 0x88;
200004b6:	0884f493          	andi	s1,s1,136
LowPower_Shutdown():
c:/Users/seanw/Documents/Data D/CP4101/CH572EVT/EVT/EXAM/SRC/StdPeriphDriver/CH57x_pwr.c:297
    sys_safe_access_enable();
200004ba:	ce26                	sw	s1,28(sp)
200004bc:	0000100f          	fence.i
200004c0:	05440023          	sb	s4,64(s0)
200004c4:	05340023          	sb	s3,64(s0)
200004c8:	0000100f          	fence.i
c:/Users/seanw/Documents/Data D/CP4101/CH572EVT/EVT/EXAM/SRC/StdPeriphDriver/CH57x_pwr.c:298
    R8_RST_WDOG_CTRL |= RB_SOFTWARE_RESET;
200004cc:	04644783          	lbu	a5,70(s0)
200004d0:	0017e793          	ori	a5,a5,1
200004d4:	04f40323          	sb	a5,70(s0)
c:/Users/seanw/Documents/Data D/CP4101/CH572EVT/EVT/EXAM/SRC/StdPeriphDriver/CH57x_pwr.c:299
    sys_safe_access_disable();
200004d8:	04040023          	sb	zero,64(s0)
200004dc:	47f2                	lw	a5,28(sp)
__risc_v_enable_irq():
c:/Users/seanw/Documents/Data D/CP4101/CH572EVT/EVT/EXAM/SRC/RVMSIS/core_riscv.h:138
    __asm volatile("csrrs %0, 0x800, %1" : \
200004de:	8007a7f3          	csrrs	a5,0x800,a5
LowPower_Shutdown():
c:/Users/seanw/Documents/Data D/CP4101/CH572EVT/EVT/EXAM/SRC/StdPeriphDriver/CH57x_pwr.c:299
200004e2:	0000100f          	fence.i
c:/Users/seanw/Documents/Data D/CP4101/CH572EVT/EVT/EXAM/SRC/StdPeriphDriver/CH57x_pwr.c:300
}
200004e6:	50f2                	lw	ra,60(sp)
200004e8:	5462                	lw	s0,56(sp)
200004ea:	54d2                	lw	s1,52(sp)
200004ec:	5942                	lw	s2,48(sp)
200004ee:	59b2                	lw	s3,44(sp)
200004f0:	5a22                	lw	s4,40(sp)
200004f2:	5a92                	lw	s5,36(sp)
200004f4:	6121                	addi	sp,sp,64
200004f6:	8082                	ret

200004f8 <SetSysClock>:
SetSysClock():
c:/Users/seanw/Documents/Data D/CP4101/CH572EVT/EVT/EXAM/SRC/StdPeriphDriver/CH57x_sys.c:31
{
    uint16_t clk_sys_cfg;
    uint8_t i;
    uint8_t x32M_c;

    if(sc == RB_CLK_SYS_MOD)  // LSI
200004f8:	0c000793          	li	a5,192
c:/Users/seanw/Documents/Data D/CP4101/CH572EVT/EVT/EXAM/SRC/StdPeriphDriver/CH57x_sys.c:26
{
200004fc:	1101                	addi	sp,sp,-32
c:/Users/seanw/Documents/Data D/CP4101/CH572EVT/EVT/EXAM/SRC/StdPeriphDriver/CH57x_sys.c:31
    if(sc == RB_CLK_SYS_MOD)  // LSI
200004fe:	04f51463          	bne	a0,a5,20000546 <SetSysClock+0x4e>
__risc_v_disable_irq():
c:/Users/seanw/Documents/Data D/CP4101/CH572EVT/EVT/EXAM/SRC/RVMSIS/core_riscv.h:154
    __asm volatile("csrrc %0, 0x800, %1" : \
20000502:	08800793          	li	a5,136
20000506:	8007b7f3          	csrrc	a5,0x800,a5
c:/Users/seanw/Documents/Data D/CP4101/CH572EVT/EVT/EXAM/SRC/RVMSIS/core_riscv.h:156
    return result & 0x88;
2000050a:	0887f793          	andi	a5,a5,136
SetSysClock():
c:/Users/seanw/Documents/Data D/CP4101/CH572EVT/EVT/EXAM/SRC/StdPeriphDriver/CH57x_sys.c:33
    {
        sys_safe_access_enable();
2000050e:	c03e                	sw	a5,0(sp)
20000510:	0000100f          	fence.i
20000514:	400017b7          	lui	a5,0x40001
20000518:	05700713          	li	a4,87
2000051c:	04e78023          	sb	a4,64(a5) # 40001040 <_eusrstack+0x1fffe040>
20000520:	fa800713          	li	a4,-88
20000524:	04e78023          	sb	a4,64(a5)
20000528:	0000100f          	fence.i
c:/Users/seanw/Documents/Data D/CP4101/CH572EVT/EVT/EXAM/SRC/StdPeriphDriver/CH57x_sys.c:34
        R8_CLK_SYS_CFG |= RB_CLK_SYS_MOD;
2000052c:	2798                	lbu	a4,8(a5)
2000052e:	0c076713          	ori	a4,a4,192
20000532:	a798                	sb	a4,8(a5)
c:/Users/seanw/Documents/Data D/CP4101/CH572EVT/EVT/EXAM/SRC/StdPeriphDriver/CH57x_sys.c:35
        sys_safe_access_disable();
20000534:	04078023          	sb	zero,64(a5)
20000538:	4782                	lw	a5,0(sp)
__risc_v_enable_irq():
c:/Users/seanw/Documents/Data D/CP4101/CH572EVT/EVT/EXAM/SRC/RVMSIS/core_riscv.h:138
    __asm volatile("csrrs %0, 0x800, %1" : \
2000053a:	8007a7f3          	csrrs	a5,0x800,a5
SetSysClock():
c:/Users/seanw/Documents/Data D/CP4101/CH572EVT/EVT/EXAM/SRC/StdPeriphDriver/CH57x_sys.c:86
            }
        }

        sys_safe_access_enable();
        R8_CLK_SYS_CFG = sc;
        sys_safe_access_disable();
2000053e:	0000100f          	fence.i
c:/Users/seanw/Documents/Data D/CP4101/CH572EVT/EVT/EXAM/SRC/StdPeriphDriver/CH57x_sys.c:88
    }
}
20000542:	6105                	addi	sp,sp,32
20000544:	8082                	ret
c:/Users/seanw/Documents/Data D/CP4101/CH572EVT/EVT/EXAM/SRC/StdPeriphDriver/CH57x_sys.c:39
        if(!(R8_HFCK_PWR_CTRL & RB_CLK_XT32M_PON))
20000546:	400017b7          	lui	a5,0x40001
2000054a:	27b8                	lbu	a4,10(a5)
2000054c:	8b11                	andi	a4,a4,4
2000054e:	eb69                	bnez	a4,20000620 <SetSysClock+0x128>
c:/Users/seanw/Documents/Data D/CP4101/CH572EVT/EVT/EXAM/SRC/StdPeriphDriver/CH57x_sys.c:41
            x32M_c = R8_XT32M_TUNE;
20000550:	04e7c683          	lbu	a3,78(a5) # 4000104e <_eusrstack+0x1fffe04e>
__risc_v_disable_irq():
c:/Users/seanw/Documents/Data D/CP4101/CH572EVT/EVT/EXAM/SRC/RVMSIS/core_riscv.h:154
    __asm volatile("csrrc %0, 0x800, %1" : \
20000554:	08800713          	li	a4,136
SetSysClock():
c:/Users/seanw/Documents/Data D/CP4101/CH572EVT/EVT/EXAM/SRC/StdPeriphDriver/CH57x_sys.c:41
20000558:	0ff6f693          	zext.b	a3,a3
__risc_v_disable_irq():
c:/Users/seanw/Documents/Data D/CP4101/CH572EVT/EVT/EXAM/SRC/RVMSIS/core_riscv.h:154
2000055c:	80073673          	csrrc	a2,0x800,a4
c:/Users/seanw/Documents/Data D/CP4101/CH572EVT/EVT/EXAM/SRC/RVMSIS/core_riscv.h:156
    return result & 0x88;
20000560:	08867613          	andi	a2,a2,136
SetSysClock():
c:/Users/seanw/Documents/Data D/CP4101/CH572EVT/EVT/EXAM/SRC/StdPeriphDriver/CH57x_sys.c:42
            sys_safe_access_enable();
20000564:	c232                	sw	a2,4(sp)
20000566:	0000100f          	fence.i
2000056a:	05700813          	li	a6,87
2000056e:	05078023          	sb	a6,64(a5)
20000572:	fa800593          	li	a1,-88
20000576:	04b78023          	sb	a1,64(a5)
2000057a:	0000100f          	fence.i
c:/Users/seanw/Documents/Data D/CP4101/CH572EVT/EVT/EXAM/SRC/StdPeriphDriver/CH57x_sys.c:43
            R8_XT32M_TUNE |= 0x03;
2000057e:	04e7c603          	lbu	a2,78(a5)
20000582:	00366613          	ori	a2,a2,3
20000586:	04c78723          	sb	a2,78(a5)
c:/Users/seanw/Documents/Data D/CP4101/CH572EVT/EVT/EXAM/SRC/StdPeriphDriver/CH57x_sys.c:44
            R8_HFCK_PWR_CTRL |= RB_CLK_XT32M_PON;
2000058a:	27b0                	lbu	a2,10(a5)
2000058c:	00466613          	ori	a2,a2,4
20000590:	a7b0                	sb	a2,10(a5)
c:/Users/seanw/Documents/Data D/CP4101/CH572EVT/EVT/EXAM/SRC/StdPeriphDriver/CH57x_sys.c:45
            sys_safe_access_disable();
20000592:	04078023          	sb	zero,64(a5)
20000596:	4612                	lw	a2,4(sp)
__risc_v_enable_irq():
c:/Users/seanw/Documents/Data D/CP4101/CH572EVT/EVT/EXAM/SRC/RVMSIS/core_riscv.h:138
    __asm volatile("csrrs %0, 0x800, %1" : \
20000598:	80062673          	csrrs	a2,0x800,a2
SetSysClock():
c:/Users/seanw/Documents/Data D/CP4101/CH572EVT/EVT/EXAM/SRC/StdPeriphDriver/CH57x_sys.c:45
2000059c:	0000100f          	fence.i
c:/Users/seanw/Documents/Data D/CP4101/CH572EVT/EVT/EXAM/SRC/StdPeriphDriver/CH57x_sys.c:46
            clk_sys_cfg = R8_CLK_SYS_CFG;
200005a0:	2790                	lbu	a2,8(a5)
200005a2:	0ff67613          	zext.b	a2,a2
__risc_v_disable_irq():
c:/Users/seanw/Documents/Data D/CP4101/CH572EVT/EVT/EXAM/SRC/RVMSIS/core_riscv.h:154
    __asm volatile("csrrc %0, 0x800, %1" : \
200005a6:	80073773          	csrrc	a4,0x800,a4
c:/Users/seanw/Documents/Data D/CP4101/CH572EVT/EVT/EXAM/SRC/RVMSIS/core_riscv.h:156
    return result & 0x88;
200005aa:	08877713          	andi	a4,a4,136
SetSysClock():
c:/Users/seanw/Documents/Data D/CP4101/CH572EVT/EVT/EXAM/SRC/StdPeriphDriver/CH57x_sys.c:47
            sys_safe_access_enable();
200005ae:	c43a                	sw	a4,8(sp)
200005b0:	0000100f          	fence.i
200005b4:	05078023          	sb	a6,64(a5)
200005b8:	04b78023          	sb	a1,64(a5)
200005bc:	0000100f          	fence.i
c:/Users/seanw/Documents/Data D/CP4101/CH572EVT/EVT/EXAM/SRC/StdPeriphDriver/CH57x_sys.c:48
            R8_CLK_SYS_CFG |= 0xC0;
200005c0:	2798                	lbu	a4,8(a5)
200005c2:	0c076713          	ori	a4,a4,192
200005c6:	a798                	sb	a4,8(a5)
c:/Users/seanw/Documents/Data D/CP4101/CH572EVT/EVT/EXAM/SRC/StdPeriphDriver/CH57x_sys.c:49
            sys_safe_access_disable();
200005c8:	04078023          	sb	zero,64(a5)
200005cc:	47a2                	lw	a5,8(sp)
__risc_v_enable_irq():
c:/Users/seanw/Documents/Data D/CP4101/CH572EVT/EVT/EXAM/SRC/RVMSIS/core_riscv.h:138
    __asm volatile("csrrs %0, 0x800, %1" : \
200005ce:	8007a7f3          	csrrs	a5,0x800,a5
SetSysClock():
c:/Users/seanw/Documents/Data D/CP4101/CH572EVT/EVT/EXAM/SRC/StdPeriphDriver/CH57x_sys.c:49
200005d2:	0000100f          	fence.i
200005d6:	47a5                	li	a5,9
c:/Users/seanw/Documents/Data D/CP4101/CH572EVT/EVT/EXAM/SRC/StdPeriphDriver/CH57x_sys.c:52 (discriminator 3)
                __nop();
200005d8:	0001                	nop
c:/Users/seanw/Documents/Data D/CP4101/CH572EVT/EVT/EXAM/SRC/StdPeriphDriver/CH57x_sys.c:50 (discriminator 3)
            for(i=0; i<9; i++)
200005da:	17fd                	addi	a5,a5,-1
200005dc:	0ff7f793          	zext.b	a5,a5
200005e0:	ffe5                	bnez	a5,200005d8 <SetSysClock+0xe0>
__risc_v_disable_irq():
c:/Users/seanw/Documents/Data D/CP4101/CH572EVT/EVT/EXAM/SRC/RVMSIS/core_riscv.h:154
    __asm volatile("csrrc %0, 0x800, %1" : \
200005e2:	08800793          	li	a5,136
200005e6:	8007b7f3          	csrrc	a5,0x800,a5
c:/Users/seanw/Documents/Data D/CP4101/CH572EVT/EVT/EXAM/SRC/RVMSIS/core_riscv.h:156
    return result & 0x88;
200005ea:	0887f793          	andi	a5,a5,136
SetSysClock():
c:/Users/seanw/Documents/Data D/CP4101/CH572EVT/EVT/EXAM/SRC/StdPeriphDriver/CH57x_sys.c:54
            sys_safe_access_enable();
200005ee:	c63e                	sw	a5,12(sp)
200005f0:	0000100f          	fence.i
200005f4:	400017b7          	lui	a5,0x40001
200005f8:	05700713          	li	a4,87
200005fc:	04e78023          	sb	a4,64(a5) # 40001040 <_eusrstack+0x1fffe040>
20000600:	fa800713          	li	a4,-88
20000604:	04e78023          	sb	a4,64(a5)
20000608:	0000100f          	fence.i
c:/Users/seanw/Documents/Data D/CP4101/CH572EVT/EVT/EXAM/SRC/StdPeriphDriver/CH57x_sys.c:55
            R8_CLK_SYS_CFG = clk_sys_cfg;
2000060c:	a790                	sb	a2,8(a5)
c:/Users/seanw/Documents/Data D/CP4101/CH572EVT/EVT/EXAM/SRC/StdPeriphDriver/CH57x_sys.c:56
            R8_XT32M_TUNE = x32M_c;
2000060e:	04d78723          	sb	a3,78(a5)
c:/Users/seanw/Documents/Data D/CP4101/CH572EVT/EVT/EXAM/SRC/StdPeriphDriver/CH57x_sys.c:57
            sys_safe_access_disable();
20000612:	04078023          	sb	zero,64(a5)
20000616:	47b2                	lw	a5,12(sp)
__risc_v_enable_irq():
c:/Users/seanw/Documents/Data D/CP4101/CH572EVT/EVT/EXAM/SRC/RVMSIS/core_riscv.h:138
    __asm volatile("csrrs %0, 0x800, %1" : \
20000618:	8007a7f3          	csrrs	a5,0x800,a5
SetSysClock():
c:/Users/seanw/Documents/Data D/CP4101/CH572EVT/EVT/EXAM/SRC/StdPeriphDriver/CH57x_sys.c:57
2000061c:	0000100f          	fence.i
c:/Users/seanw/Documents/Data D/CP4101/CH572EVT/EVT/EXAM/SRC/StdPeriphDriver/CH57x_sys.c:60
        if((sc & RB_CLK_SYS_MOD) == 0x40) // PLL div
20000620:	0c057793          	andi	a5,a0,192
20000624:	04000713          	li	a4,64
20000628:	08e79963          	bne	a5,a4,200006ba <SetSysClock+0x1c2>
__risc_v_disable_irq():
c:/Users/seanw/Documents/Data D/CP4101/CH572EVT/EVT/EXAM/SRC/RVMSIS/core_riscv.h:154
    __asm volatile("csrrc %0, 0x800, %1" : \
2000062c:	08800793          	li	a5,136
20000630:	8007b7f3          	csrrc	a5,0x800,a5
c:/Users/seanw/Documents/Data D/CP4101/CH572EVT/EVT/EXAM/SRC/RVMSIS/core_riscv.h:156
    return result & 0x88;
20000634:	0887f793          	andi	a5,a5,136
SetSysClock():
c:/Users/seanw/Documents/Data D/CP4101/CH572EVT/EVT/EXAM/SRC/StdPeriphDriver/CH57x_sys.c:62
            sys_safe_access_enable();
20000638:	c83e                	sw	a5,16(sp)
2000063a:	0000100f          	fence.i
2000063e:	400017b7          	lui	a5,0x40001
20000642:	05700713          	li	a4,87
20000646:	04e78023          	sb	a4,64(a5) # 40001040 <_eusrstack+0x1fffe040>
2000064a:	fa800713          	li	a4,-88
2000064e:	04e78023          	sb	a4,64(a5)
20000652:	0000100f          	fence.i
c:/Users/seanw/Documents/Data D/CP4101/CH572EVT/EVT/EXAM/SRC/StdPeriphDriver/CH57x_sys.c:63
            R8_HFCK_PWR_CTRL |= RB_CLK_PLL_PON;
20000656:	27b8                	lbu	a4,10(a5)
c:/Users/seanw/Documents/Data D/CP4101/CH572EVT/EVT/EXAM/SRC/StdPeriphDriver/CH57x_sys.c:64
            R8_FLASH_CFG = 0X01;
20000658:	4685                	li	a3,1
c:/Users/seanw/Documents/Data D/CP4101/CH572EVT/EVT/EXAM/SRC/StdPeriphDriver/CH57x_sys.c:63
            R8_HFCK_PWR_CTRL |= RB_CLK_PLL_PON;
2000065a:	01076713          	ori	a4,a4,16
2000065e:	a7b8                	sb	a4,10(a5)
c:/Users/seanw/Documents/Data D/CP4101/CH572EVT/EVT/EXAM/SRC/StdPeriphDriver/CH57x_sys.c:64
            R8_FLASH_CFG = 0X01;
20000660:	40002737          	lui	a4,0x40002
20000664:	80d703a3          	sb	a3,-2041(a4) # 40001807 <_eusrstack+0x1fffe807>
c:/Users/seanw/Documents/Data D/CP4101/CH572EVT/EVT/EXAM/SRC/StdPeriphDriver/CH57x_sys.c:65
            R8_FLASH_SCK |= 1<<4; //50M
20000668:	80574683          	lbu	a3,-2043(a4)
2000066c:	0106e693          	ori	a3,a3,16
20000670:	80d702a3          	sb	a3,-2043(a4)
c:/Users/seanw/Documents/Data D/CP4101/CH572EVT/EVT/EXAM/SRC/StdPeriphDriver/CH57x_sys.c:66
            sys_safe_access_disable();
20000674:	04078023          	sb	zero,64(a5)
20000678:	47c2                	lw	a5,16(sp)
__risc_v_enable_irq():
c:/Users/seanw/Documents/Data D/CP4101/CH572EVT/EVT/EXAM/SRC/RVMSIS/core_riscv.h:138
    __asm volatile("csrrs %0, 0x800, %1" : \
2000067a:	8007a7f3          	csrrs	a5,0x800,a5
SetSysClock():
c:/Users/seanw/Documents/Data D/CP4101/CH572EVT/EVT/EXAM/SRC/StdPeriphDriver/CH57x_sys.c:80
                sys_safe_access_disable();
2000067e:	0000100f          	fence.i
__risc_v_disable_irq():
c:/Users/seanw/Documents/Data D/CP4101/CH572EVT/EVT/EXAM/SRC/RVMSIS/core_riscv.h:154
    __asm volatile("csrrc %0, 0x800, %1" : \
20000682:	08800793          	li	a5,136
20000686:	8007b7f3          	csrrc	a5,0x800,a5
c:/Users/seanw/Documents/Data D/CP4101/CH572EVT/EVT/EXAM/SRC/RVMSIS/core_riscv.h:156
    return result & 0x88;
2000068a:	0887f793          	andi	a5,a5,136
SetSysClock():
c:/Users/seanw/Documents/Data D/CP4101/CH572EVT/EVT/EXAM/SRC/StdPeriphDriver/CH57x_sys.c:84
        sys_safe_access_enable();
2000068e:	ce3e                	sw	a5,28(sp)
20000690:	0000100f          	fence.i
20000694:	400017b7          	lui	a5,0x40001
20000698:	05700713          	li	a4,87
2000069c:	04e78023          	sb	a4,64(a5) # 40001040 <_eusrstack+0x1fffe040>
200006a0:	fa800713          	li	a4,-88
200006a4:	04e78023          	sb	a4,64(a5)
200006a8:	0000100f          	fence.i
c:/Users/seanw/Documents/Data D/CP4101/CH572EVT/EVT/EXAM/SRC/StdPeriphDriver/CH57x_sys.c:85
        R8_CLK_SYS_CFG = sc;
200006ac:	0ff57513          	zext.b	a0,a0
200006b0:	a788                	sb	a0,8(a5)
c:/Users/seanw/Documents/Data D/CP4101/CH572EVT/EVT/EXAM/SRC/StdPeriphDriver/CH57x_sys.c:86
        sys_safe_access_disable();
200006b2:	04078023          	sb	zero,64(a5)
200006b6:	47f2                	lw	a5,28(sp)
200006b8:	b549                	j	2000053a <SetSysClock+0x42>
c:/Users/seanw/Documents/Data D/CP4101/CH572EVT/EVT/EXAM/SRC/StdPeriphDriver/CH57x_sys.c:70
            if((sc&0x1F) )
200006ba:	01f57793          	andi	a5,a0,31
200006be:	cf9d                	beqz	a5,200006fc <SetSysClock+0x204>
__risc_v_disable_irq():
c:/Users/seanw/Documents/Data D/CP4101/CH572EVT/EVT/EXAM/SRC/RVMSIS/core_riscv.h:154
    __asm volatile("csrrc %0, 0x800, %1" : \
200006c0:	08800793          	li	a5,136
200006c4:	8007b7f3          	csrrc	a5,0x800,a5
c:/Users/seanw/Documents/Data D/CP4101/CH572EVT/EVT/EXAM/SRC/RVMSIS/core_riscv.h:156
    return result & 0x88;
200006c8:	0887f793          	andi	a5,a5,136
SetSysClock():
c:/Users/seanw/Documents/Data D/CP4101/CH572EVT/EVT/EXAM/SRC/StdPeriphDriver/CH57x_sys.c:72
                sys_safe_access_enable();
200006cc:	ca3e                	sw	a5,20(sp)
200006ce:	0000100f          	fence.i
200006d2:	400017b7          	lui	a5,0x40001
200006d6:	05700713          	li	a4,87
200006da:	04e78023          	sb	a4,64(a5) # 40001040 <_eusrstack+0x1fffe040>
200006de:	fa800713          	li	a4,-88
200006e2:	04e78023          	sb	a4,64(a5)
200006e6:	0000100f          	fence.i
c:/Users/seanw/Documents/Data D/CP4101/CH572EVT/EVT/EXAM/SRC/StdPeriphDriver/CH57x_sys.c:73
                R8_FLASH_CFG = 0X02;
200006ea:	40002737          	lui	a4,0x40002
200006ee:	4689                	li	a3,2
200006f0:	80d703a3          	sb	a3,-2041(a4) # 40001807 <_eusrstack+0x1fffe807>
c:/Users/seanw/Documents/Data D/CP4101/CH572EVT/EVT/EXAM/SRC/StdPeriphDriver/CH57x_sys.c:74
                sys_safe_access_disable();
200006f4:	04078023          	sb	zero,64(a5)
200006f8:	47d2                	lw	a5,20(sp)
__risc_v_enable_irq():
c:/Users/seanw/Documents/Data D/CP4101/CH572EVT/EVT/EXAM/SRC/RVMSIS/core_riscv.h:138
    __asm volatile("csrrs %0, 0x800, %1" : \
200006fa:	b741                	j	2000067a <SetSysClock+0x182>
__risc_v_disable_irq():
c:/Users/seanw/Documents/Data D/CP4101/CH572EVT/EVT/EXAM/SRC/RVMSIS/core_riscv.h:154
    __asm volatile("csrrc %0, 0x800, %1" : \
200006fc:	08800793          	li	a5,136
20000700:	8007b7f3          	csrrc	a5,0x800,a5
c:/Users/seanw/Documents/Data D/CP4101/CH572EVT/EVT/EXAM/SRC/RVMSIS/core_riscv.h:156
    return result & 0x88;
20000704:	0887f793          	andi	a5,a5,136
SetSysClock():
c:/Users/seanw/Documents/Data D/CP4101/CH572EVT/EVT/EXAM/SRC/StdPeriphDriver/CH57x_sys.c:78
                sys_safe_access_enable();
20000708:	cc3e                	sw	a5,24(sp)
2000070a:	0000100f          	fence.i
2000070e:	400017b7          	lui	a5,0x40001
20000712:	05700713          	li	a4,87
20000716:	04e78023          	sb	a4,64(a5) # 40001040 <_eusrstack+0x1fffe040>
2000071a:	fa800713          	li	a4,-88
2000071e:	04e78023          	sb	a4,64(a5)
20000722:	0000100f          	fence.i
c:/Users/seanw/Documents/Data D/CP4101/CH572EVT/EVT/EXAM/SRC/StdPeriphDriver/CH57x_sys.c:79
                R8_FLASH_CFG = 0X07;
20000726:	40002737          	lui	a4,0x40002
2000072a:	469d                	li	a3,7
2000072c:	80d703a3          	sb	a3,-2041(a4) # 40001807 <_eusrstack+0x1fffe807>
c:/Users/seanw/Documents/Data D/CP4101/CH572EVT/EVT/EXAM/SRC/StdPeriphDriver/CH57x_sys.c:80
                sys_safe_access_disable();
20000730:	04078023          	sb	zero,64(a5)
20000734:	47e2                	lw	a5,24(sp)
20000736:	b791                	j	2000067a <SetSysClock+0x182>

20000738 <HardFault_Handler>:
HardFault_Handler():
c:/Users/seanw/Documents/Data D/CP4101/CH572EVT/EVT/EXAM/SRC/StdPeriphDriver/CH57x_sys.c:283
 */
__INTERRUPT
__HIGH_CODE
__attribute__((weak))
void HardFault_Handler(void)
{
20000738:	1141                	addi	sp,sp,-16
c:/Users/seanw/Documents/Data D/CP4101/CH572EVT/EVT/EXAM/SRC/StdPeriphDriver/CH57x_sys.c:284
    FLASH_ROM_SW_RESET();
2000073a:	4681                	li	a3,0
2000073c:	4601                	li	a2,0
2000073e:	4581                	li	a1,0
20000740:	4511                	li	a0,4
20000742:	e0001097          	auipc	ra,0xe0001
20000746:	83e080e7          	jalr	-1986(ra) # f80 <FLASH_EEPROM_CMD>
__risc_v_disable_irq():
c:/Users/seanw/Documents/Data D/CP4101/CH572EVT/EVT/EXAM/SRC/RVMSIS/core_riscv.h:154
    __asm volatile("csrrc %0, 0x800, %1" : \
2000074a:	08800713          	li	a4,136
2000074e:	800737f3          	csrrc	a5,0x800,a4
c:/Users/seanw/Documents/Data D/CP4101/CH572EVT/EVT/EXAM/SRC/RVMSIS/core_riscv.h:156
    return result & 0x88;
20000752:	0887f793          	andi	a5,a5,136
HardFault_Handler():
c:/Users/seanw/Documents/Data D/CP4101/CH572EVT/EVT/EXAM/SRC/StdPeriphDriver/CH57x_sys.c:285
    sys_safe_access_enable();
20000756:	c43e                	sw	a5,8(sp)
20000758:	0000100f          	fence.i
2000075c:	400017b7          	lui	a5,0x40001
20000760:	05700613          	li	a2,87
20000764:	04c78023          	sb	a2,64(a5) # 40001040 <_eusrstack+0x1fffe040>
20000768:	fa800693          	li	a3,-88
2000076c:	04d78023          	sb	a3,64(a5)
20000770:	0000100f          	fence.i
c:/Users/seanw/Documents/Data D/CP4101/CH572EVT/EVT/EXAM/SRC/StdPeriphDriver/CH57x_sys.c:286
    R16_INT_LSI_TUNE = 0xFFFF;
20000774:	55fd                	li	a1,-1
20000776:	b7ce                	sh	a1,44(a5)
c:/Users/seanw/Documents/Data D/CP4101/CH572EVT/EVT/EXAM/SRC/StdPeriphDriver/CH57x_sys.c:287
    sys_safe_access_disable();
20000778:	04078023          	sb	zero,64(a5)
2000077c:	45a2                	lw	a1,8(sp)
__risc_v_enable_irq():
c:/Users/seanw/Documents/Data D/CP4101/CH572EVT/EVT/EXAM/SRC/RVMSIS/core_riscv.h:138
    __asm volatile("csrrs %0, 0x800, %1" : \
2000077e:	8005a5f3          	csrrs	a1,0x800,a1
HardFault_Handler():
c:/Users/seanw/Documents/Data D/CP4101/CH572EVT/EVT/EXAM/SRC/StdPeriphDriver/CH57x_sys.c:287
20000782:	0000100f          	fence.i
__risc_v_disable_irq():
c:/Users/seanw/Documents/Data D/CP4101/CH572EVT/EVT/EXAM/SRC/RVMSIS/core_riscv.h:154
    __asm volatile("csrrc %0, 0x800, %1" : \
20000786:	80073773          	csrrc	a4,0x800,a4
c:/Users/seanw/Documents/Data D/CP4101/CH572EVT/EVT/EXAM/SRC/RVMSIS/core_riscv.h:156
    return result & 0x88;
2000078a:	08877713          	andi	a4,a4,136
HardFault_Handler():
c:/Users/seanw/Documents/Data D/CP4101/CH572EVT/EVT/EXAM/SRC/StdPeriphDriver/CH57x_sys.c:288
    sys_safe_access_enable();
2000078e:	c63a                	sw	a4,12(sp)
20000790:	0000100f          	fence.i
20000794:	04c78023          	sb	a2,64(a5)
20000798:	04d78023          	sb	a3,64(a5)
2000079c:	0000100f          	fence.i
c:/Users/seanw/Documents/Data D/CP4101/CH572EVT/EVT/EXAM/SRC/StdPeriphDriver/CH57x_sys.c:289
    R8_RST_WDOG_CTRL |= RB_SOFTWARE_RESET;
200007a0:	0467c703          	lbu	a4,70(a5)
200007a4:	00176713          	ori	a4,a4,1
200007a8:	04e78323          	sb	a4,70(a5)
c:/Users/seanw/Documents/Data D/CP4101/CH572EVT/EVT/EXAM/SRC/StdPeriphDriver/CH57x_sys.c:290
    sys_safe_access_disable();
200007ac:	04078023          	sb	zero,64(a5)
200007b0:	47b2                	lw	a5,12(sp)
__risc_v_enable_irq():
c:/Users/seanw/Documents/Data D/CP4101/CH572EVT/EVT/EXAM/SRC/RVMSIS/core_riscv.h:138
    __asm volatile("csrrs %0, 0x800, %1" : \
200007b2:	8007a7f3          	csrrs	a5,0x800,a5
HardFault_Handler():
c:/Users/seanw/Documents/Data D/CP4101/CH572EVT/EVT/EXAM/SRC/StdPeriphDriver/CH57x_sys.c:290
200007b6:	0000100f          	fence.i
c:/Users/seanw/Documents/Data D/CP4101/CH572EVT/EVT/EXAM/SRC/StdPeriphDriver/CH57x_sys.c:291 (discriminator 1)
    while(1);
200007ba:	a001                	j	200007ba <HardFault_Handler+0x82>

200007bc <mDelayuS>:
mDelayuS():
c:/Users/seanw/Documents/Data D/CP4101/CH572EVT/EVT/EXAM/SRC/StdPeriphDriver/CH57x_sys.c:308
__HIGH_CODE
void mDelayuS(uint16_t t)
{
    uint32_t i;
#if(FREQ_SYS == 100000000)
    i = t * 25;
200007bc:	47e5                	li	a5,25
200007be:	02f50533          	mul	a0,a0,a5
c:/Users/seanw/Documents/Data D/CP4101/CH572EVT/EVT/EXAM/SRC/StdPeriphDriver/CH57x_sys.c:351 (discriminator 1)
        __nop();
    };
#else
    do
    {
        __nop();
200007c2:	0001                	nop
c:/Users/seanw/Documents/Data D/CP4101/CH572EVT/EVT/EXAM/SRC/StdPeriphDriver/CH57x_sys.c:352 (discriminator 1)
    }while(--i);
200007c4:	157d                	addi	a0,a0,-1
200007c6:	fd75                	bnez	a0,200007c2 <mDelayuS+0x6>
c:/Users/seanw/Documents/Data D/CP4101/CH572EVT/EVT/EXAM/SRC/StdPeriphDriver/CH57x_sys.c:354
#endif
}
200007c8:	8082                	ret

200007ca <mDelaymS>:
mDelaymS():
c:/Users/seanw/Documents/Data D/CP4101/CH572EVT/EVT/EXAM/SRC/StdPeriphDriver/CH57x_sys.c:367
 *
 * @return  none
 */
__HIGH_CODE
void mDelaymS(uint16_t t)
{
200007ca:	1141                	addi	sp,sp,-16
200007cc:	c422                	sw	s0,8(sp)
200007ce:	c606                	sw	ra,12(sp)
200007d0:	842a                	mv	s0,a0
c:/Users/seanw/Documents/Data D/CP4101/CH572EVT/EVT/EXAM/SRC/StdPeriphDriver/CH57x_sys.c:370 (discriminator 1)
    do
    {
        mDelayuS(1000);
200007d2:	3e800513          	li	a0,1000
c:/Users/seanw/Documents/Data D/CP4101/CH572EVT/EVT/EXAM/SRC/StdPeriphDriver/CH57x_sys.c:371 (discriminator 1)
    }while(--t);
200007d6:	147d                	addi	s0,s0,-1
c:/Users/seanw/Documents/Data D/CP4101/CH572EVT/EVT/EXAM/SRC/StdPeriphDriver/CH57x_sys.c:370 (discriminator 1)
        mDelayuS(1000);
200007d8:	37d5                	jal	200007bc <mDelayuS>
c:/Users/seanw/Documents/Data D/CP4101/CH572EVT/EVT/EXAM/SRC/StdPeriphDriver/CH57x_sys.c:371 (discriminator 1)
    }while(--t);
200007da:	08044433          	zext.h	s0,s0
200007de:	f875                	bnez	s0,200007d2 <mDelaymS+0x8>
c:/Users/seanw/Documents/Data D/CP4101/CH572EVT/EVT/EXAM/SRC/StdPeriphDriver/CH57x_sys.c:372
}
200007e0:	40b2                	lw	ra,12(sp)
200007e2:	4422                	lw	s0,8(sp)
200007e4:	0141                	addi	sp,sp,16
200007e6:	8082                	ret

200007e8 <FLASH_ROM_BEG_FF>:
FLASH_ROM_BEG_FF():
200007e8:	80040323          	sb	zero,-2042(s0)
200007ec:	4715                	li	a4,5
200007ee:	87a2                	mv	a5,s0
200007f0:	80e40323          	sb	a4,-2042(s0)
200007f4:	0001                	nop
200007f6:	0001                	nop
200007f8:	80a40223          	sb	a0,-2044(s0)
200007fc:	8067c703          	lbu	a4,-2042(a5)
20000800:	0762                	slli	a4,a4,0x18
20000802:	8761                	srai	a4,a4,0x18
20000804:	fe074ce3          	bltz	a4,200007fc <FLASH_ROM_BEG_FF+0x14>
20000808:	80a78223          	sb	a0,-2044(a5)
2000080c:	8722                	mv	a4,s0
2000080e:	80674783          	lbu	a5,-2042(a4)
20000812:	07e2                	slli	a5,a5,0x18
20000814:	87e1                	srai	a5,a5,0x18
20000816:	fe07cce3          	bltz	a5,2000080e <FLASH_ROM_BEG_FF+0x26>
2000081a:	8082                	ret

2000081c <FLASH_ROM_BEG>:
FLASH_ROM_BEG():
2000081c:	80040323          	sb	zero,-2042(s0)
20000820:	4715                	li	a4,5
20000822:	80e40323          	sb	a4,-2042(s0)
20000826:	0001                	nop
20000828:	0001                	nop
2000082a:	80a40223          	sb	a0,-2044(s0)
2000082e:	8082                	ret

20000830 <FLASH_ROM_END>:
FLASH_ROM_END():
20000830:	80640783          	lb	a5,-2042(s0)
20000834:	fe07cee3          	bltz	a5,20000830 <FLASH_ROM_END>
20000838:	80040323          	sb	zero,-2042(s0)
2000083c:	8082                	ret

2000083e <FLASH_ROM_IN>:
FLASH_ROM_IN():
2000083e:	80640783          	lb	a5,-2042(s0)
20000842:	fe07cee3          	bltz	a5,2000083e <FLASH_ROM_IN>
20000846:	80444503          	lbu	a0,-2044(s0)
2000084a:	8082                	ret

2000084c <FLASH_ROM_OUT>:
FLASH_ROM_OUT():
2000084c:	80640783          	lb	a5,-2042(s0)
20000850:	fe07cee3          	bltz	a5,2000084c <FLASH_ROM_OUT>
20000854:	80a40223          	sb	a0,-2044(s0)
20000858:	8082                	ret

2000085a <FLASH_ROM_ADDR>:
FLASH_ROM_ADDR():
2000085a:	1141                	addi	sp,sp,-16
2000085c:	c426                	sw	s1,8(sp)
2000085e:	c24a                	sw	s2,4(sp)
20000860:	c04e                	sw	s3,0(sp)
20000862:	c606                	sw	ra,12(sp)
20000864:	0bf57713          	andi	a4,a0,191
20000868:	47ad                	li	a5,11
2000086a:	89aa                	mv	s3,a0
2000086c:	892e                	mv	s2,a1
2000086e:	4495                	li	s1,5
20000870:	00f70663          	beq	a4,a5,2000087c <FLASH_ROM_ADDR+0x22>
20000874:	4519                	li	a0,6
20000876:	375d                	jal	2000081c <FLASH_ROM_BEG>
20000878:	3f65                	jal	20000830 <FLASH_ROM_END>
2000087a:	448d                	li	s1,3
2000087c:	854e                	mv	a0,s3
2000087e:	3f79                	jal	2000081c <FLASH_ROM_BEG>
20000880:	59fd                	li	s3,-1
20000882:	14fd                	addi	s1,s1,-1
20000884:	01349863          	bne	s1,s3,20000894 <FLASH_ROM_ADDR+0x3a>
20000888:	40b2                	lw	ra,12(sp)
2000088a:	44a2                	lw	s1,8(sp)
2000088c:	4912                	lw	s2,4(sp)
2000088e:	4982                	lw	s3,0(sp)
20000890:	0141                	addi	sp,sp,16
20000892:	8082                	ret
20000894:	01095513          	srli	a0,s2,0x10
20000898:	0ff57513          	zext.b	a0,a0
2000089c:	3f45                	jal	2000084c <FLASH_ROM_OUT>
2000089e:	0922                	slli	s2,s2,0x8
200008a0:	b7cd                	j	20000882 <FLASH_ROM_ADDR+0x28>

200008a2 <FLASH_ROM_WAIT>:
FLASH_ROM_WAIT():
200008a2:	1101                	addi	sp,sp,-32
200008a4:	cc26                	sw	s1,24(sp)
200008a6:	ce06                	sw	ra,28(sp)
200008a8:	000804b7          	lui	s1,0x80
200008ac:	3751                	jal	20000830 <FLASH_ROM_END>
200008ae:	4515                	li	a0,5
200008b0:	37b5                	jal	2000081c <FLASH_ROM_BEG>
200008b2:	3771                	jal	2000083e <FLASH_ROM_IN>
200008b4:	3769                	jal	2000083e <FLASH_ROM_IN>
200008b6:	c62a                	sw	a0,12(sp)
200008b8:	3fa5                	jal	20000830 <FLASH_ROM_END>
200008ba:	4532                	lw	a0,12(sp)
200008bc:	00157793          	andi	a5,a0,1
200008c0:	eb89                	bnez	a5,200008d2 <FLASH_ROM_WAIT+0x30>
200008c2:	00156513          	ori	a0,a0,1
200008c6:	0ff57513          	zext.b	a0,a0
200008ca:	40f2                	lw	ra,28(sp)
200008cc:	44e2                	lw	s1,24(sp)
200008ce:	6105                	addi	sp,sp,32
200008d0:	8082                	ret
200008d2:	14fd                	addi	s1,s1,-1 # 7ffff <_data_lma+0x7e2e7>
200008d4:	fce9                	bnez	s1,200008ae <FLASH_ROM_WAIT+0xc>
200008d6:	4501                	li	a0,0
200008d8:	bfcd                	j	200008ca <FLASH_ROM_WAIT+0x28>

200008da <FLASH_START>:
FLASH_START():
200008da:	1141                	addi	sp,sp,-16
200008dc:	c606                	sw	ra,12(sp)
200008de:	400017b7          	lui	a5,0x40001
200008e2:	05700713          	li	a4,87
200008e6:	04e78023          	sb	a4,64(a5) # 40001040 <_eusrstack+0x1fffe040>
200008ea:	fa800713          	li	a4,-88
200008ee:	04e78023          	sb	a4,64(a5)
200008f2:	0447c703          	lbu	a4,68(a5)
200008f6:	0ff00513          	li	a0,255
200008fa:	0e076713          	ori	a4,a4,224
200008fe:	04e78223          	sb	a4,68(a5)
20000902:	4791                	li	a5,4
20000904:	80f40323          	sb	a5,-2042(s0)
20000908:	35c5                	jal	200007e8 <FLASH_ROM_BEG_FF>
2000090a:	40b2                	lw	ra,12(sp)
2000090c:	0141                	addi	sp,sp,16
2000090e:	b70d                	j	20000830 <FLASH_ROM_END>

20000910 <FLASH_CMD_ROM_WRITE>:
FLASH_CMD_ROM_WRITE():
20000910:	1101                	addi	sp,sp,-32
20000912:	cc26                	sw	s1,24(sp)
20000914:	ca4a                	sw	s2,20(sp)
20000916:	c84e                	sw	s3,16(sp)
20000918:	c652                	sw	s4,12(sp)
2000091a:	ce06                	sw	ra,28(sp)
2000091c:	892a                	mv	s2,a0
2000091e:	89ae                	mv	s3,a1
20000920:	84b2                	mv	s1,a2
20000922:	4a55                	li	s4,21
20000924:	3f5d                	jal	200008da <FLASH_START>
20000926:	e891                	bnez	s1,2000093a <FLASH_CMD_ROM_WRITE+0x2a>
20000928:	3721                	jal	20000830 <FLASH_ROM_END>
2000092a:	40f2                	lw	ra,28(sp)
2000092c:	8526                	mv	a0,s1
2000092e:	4952                	lw	s2,20(sp)
20000930:	44e2                	lw	s1,24(sp)
20000932:	49c2                	lw	s3,16(sp)
20000934:	4a32                	lw	s4,12(sp)
20000936:	6105                	addi	sp,sp,32
20000938:	8082                	ret
2000093a:	85ca                	mv	a1,s2
2000093c:	4509                	li	a0,2
2000093e:	3f31                	jal	2000085a <FLASH_ROM_ADDR>
20000940:	0991                	addi	s3,s3,4
20000942:	ffc9a703          	lw	a4,-4(s3)
20000946:	4791                	li	a5,4
20000948:	80e42023          	sw	a4,-2048(s0)

2000094c <.loop247>:
2000094c:	80640703          	lb	a4,-2042(s0)
20000950:	fe074ee3          	bltz	a4,2000094c <.loop247>
20000954:	81440323          	sb	s4,-2042(s0)
20000958:	17fd                	addi	a5,a5,-1
2000095a:	fbed                	bnez	a5,2000094c <.loop247>
2000095c:	14fd                	addi	s1,s1,-1
2000095e:	0911                	addi	s2,s2,4
20000960:	c481                	beqz	s1,20000968 <.loop247+0x1c>
20000962:	0ff97793          	zext.b	a5,s2
20000966:	ffe9                	bnez	a5,20000940 <FLASH_CMD_ROM_WRITE+0x30>
20000968:	3f2d                	jal	200008a2 <FLASH_ROM_WAIT>
2000096a:	fd55                	bnez	a0,20000926 <FLASH_CMD_ROM_WRITE+0x16>
2000096c:	54fd                	li	s1,-1
2000096e:	bf75                	j	2000092a <FLASH_CMD_ROM_WRITE+0x1a>

20000970 <FLASH_CMD_ROM_ERASE>:
FLASH_CMD_ROM_ERASE():
20000970:	1101                	addi	sp,sp,-32
20000972:	cc26                	sw	s1,24(sp)
20000974:	ca4a                	sw	s2,20(sp)
20000976:	c84e                	sw	s3,16(sp)
20000978:	c652                	sw	s4,12(sp)
2000097a:	c456                	sw	s5,8(sp)
2000097c:	c25a                	sw	s6,4(sp)
2000097e:	ce06                	sw	ra,28(sp)
20000980:	892a                	mv	s2,a0
20000982:	8a32                	mv	s4,a2
20000984:	498d                	li	s3,3
20000986:	3f91                	jal	200008da <FLASH_START>
20000988:	64c1                	lui	s1,0x10
2000098a:	6ac1                	lui	s5,0x10
2000098c:	6b05                	lui	s6,0x1
2000098e:	fff48793          	addi	a5,s1,-1 # ffff <_data_lma+0xe2e7>
20000992:	0127f7b3          	and	a5,a5,s2
20000996:	e399                	bnez	a5,2000099c <FLASH_CMD_ROM_ERASE+0x2c>
20000998:	029a7163          	bgeu	s4,s1,200009ba <FLASH_CMD_ROM_ERASE+0x4a>
2000099c:	19fd                	addi	s3,s3,-1
2000099e:	8091                	srli	s1,s1,0x4
200009a0:	fe0997e3          	bnez	s3,2000098e <FLASH_CMD_ROM_ERASE+0x1e>
200009a4:	3571                	jal	20000830 <FLASH_ROM_END>
200009a6:	4501                	li	a0,0
200009a8:	40f2                	lw	ra,28(sp)
200009aa:	44e2                	lw	s1,24(sp)
200009ac:	4952                	lw	s2,20(sp)
200009ae:	49c2                	lw	s3,16(sp)
200009b0:	4a32                	lw	s4,12(sp)
200009b2:	4aa2                	lw	s5,8(sp)
200009b4:	4b12                	lw	s6,4(sp)
200009b6:	6105                	addi	sp,sp,32
200009b8:	8082                	ret
200009ba:	0d800513          	li	a0,216
200009be:	01548863          	beq	s1,s5,200009ce <FLASH_CMD_ROM_ERASE+0x5e>
200009c2:	02000513          	li	a0,32
200009c6:	01648463          	beq	s1,s6,200009ce <FLASH_CMD_ROM_ERASE+0x5e>
200009ca:	08100513          	li	a0,129
200009ce:	85ca                	mv	a1,s2
200009d0:	3569                	jal	2000085a <FLASH_ROM_ADDR>
200009d2:	3dc1                	jal	200008a2 <FLASH_ROM_WAIT>
200009d4:	c509                	beqz	a0,200009de <FLASH_CMD_ROM_ERASE+0x6e>
200009d6:	9926                	add	s2,s2,s1
200009d8:	409a0a33          	sub	s4,s4,s1
200009dc:	bf75                	j	20000998 <FLASH_CMD_ROM_ERASE+0x28>
200009de:	557d                	li	a0,-1
200009e0:	b7e1                	j	200009a8 <FLASH_CMD_ROM_ERASE+0x38>

200009e2 <FLASH_CMD_ROM_VERIFY>:
FLASH_CMD_ROM_VERIFY():
200009e2:	1101                	addi	sp,sp,-32
200009e4:	ce06                	sw	ra,28(sp)
200009e6:	cc26                	sw	s1,24(sp)
200009e8:	ca4a                	sw	s2,20(sp)
200009ea:	84b2                	mv	s1,a2
200009ec:	c84e                	sw	s3,16(sp)
200009ee:	c62a                	sw	a0,12(sp)
200009f0:	892e                	mv	s2,a1
200009f2:	35e5                	jal	200008da <FLASH_START>
200009f4:	4532                	lw	a0,12(sp)
200009f6:	14fd                	addi	s1,s1,-1
200009f8:	59fd                	li	s3,-1
200009fa:	85aa                	mv	a1,a0
200009fc:	452d                	li	a0,11
200009fe:	3db1                	jal	2000085a <FLASH_ROM_ADDR>
20000a00:	01349a63          	bne	s1,s3,20000a14 <FLASH_CMD_ROM_VERIFY+0x32>
20000a04:	3535                	jal	20000830 <FLASH_ROM_END>
20000a06:	40f2                	lw	ra,28(sp)
20000a08:	8526                	mv	a0,s1
20000a0a:	4952                	lw	s2,20(sp)
20000a0c:	44e2                	lw	s1,24(sp)
20000a0e:	49c2                	lw	s3,16(sp)
20000a10:	6105                	addi	sp,sp,32
20000a12:	8082                	ret
20000a14:	352d                	jal	2000083e <FLASH_ROM_IN>
20000a16:	0034f793          	andi	a5,s1,3
20000a1a:	eb91                	bnez	a5,20000a2e <FLASH_CMD_ROM_VERIFY+0x4c>
20000a1c:	80042683          	lw	a3,-2048(s0)
20000a20:	00092703          	lw	a4,0(s2)
20000a24:	00490793          	addi	a5,s2,4
20000a28:	fce69ee3          	bne	a3,a4,20000a04 <FLASH_CMD_ROM_VERIFY+0x22>
20000a2c:	893e                	mv	s2,a5
20000a2e:	14fd                	addi	s1,s1,-1
20000a30:	bfc1                	j	20000a00 <FLASH_CMD_ROM_VERIFY+0x1e>

20000a32 <FLASH_CMD_ROM_PWR>:
FLASH_CMD_ROM_PWR():
20000a32:	1101                	addi	sp,sp,-32
20000a34:	ce06                	sw	ra,28(sp)
20000a36:	c62a                	sw	a0,12(sp)
20000a38:	354d                	jal	200008da <FLASH_START>
20000a3a:	4532                	lw	a0,12(sp)
20000a3c:	33c5                	jal	2000081c <FLASH_ROM_BEG>
20000a3e:	40f2                	lw	ra,28(sp)
20000a40:	6105                	addi	sp,sp,32
20000a42:	b3fd                	j	20000830 <FLASH_ROM_END>

20000a44 <FLASH_CMD_GET_ROM_INFO>:
FLASH_CMD_GET_ROM_INFO():
20000a44:	1101                	addi	sp,sp,-32
20000a46:	ce06                	sw	ra,28(sp)
20000a48:	cc26                	sw	s1,24(sp)
20000a4a:	ca4a                	sw	s2,20(sp)
20000a4c:	c84e                	sw	s3,16(sp)
20000a4e:	c652                	sw	s4,12(sp)
20000a50:	89aa                	mv	s3,a0
20000a52:	c456                	sw	s5,8(sp)
20000a54:	892e                	mv	s2,a1
20000a56:	3551                	jal	200008da <FLASH_START>
20000a58:	000405b7          	lui	a1,0x40
20000a5c:	00b9e5b3          	or	a1,s3,a1
20000a60:	452d                	li	a0,11
20000a62:	3be5                	jal	2000085a <FLASH_ROM_ADDR>
20000a64:	4481                	li	s1,0
20000a66:	4a8d                	li	s5,3
20000a68:	4a21                	li	s4,8
20000a6a:	3bd1                	jal	2000083e <FLASH_ROM_IN>
20000a6c:	01549663          	bne	s1,s5,20000a78 <FLASH_CMD_GET_ROM_INFO+0x34>
20000a70:	80042783          	lw	a5,-2048(s0)
20000a74:	00f92023          	sw	a5,0(s2)
20000a78:	0485                	addi	s1,s1,1
20000a7a:	ff4498e3          	bne	s1,s4,20000a6a <FLASH_CMD_GET_ROM_INFO+0x26>
20000a7e:	80042783          	lw	a5,-2048(s0)
20000a82:	01299713          	slli	a4,s3,0x12
20000a86:	00075c63          	bgez	a4,20000a9e <FLASH_CMD_GET_ROM_INFO+0x5a>
20000a8a:	00f91223          	sh	a5,4(s2)
20000a8e:	40f2                	lw	ra,28(sp)
20000a90:	44e2                	lw	s1,24(sp)
20000a92:	4952                	lw	s2,20(sp)
20000a94:	49c2                	lw	s3,16(sp)
20000a96:	4a32                	lw	s4,12(sp)
20000a98:	4aa2                	lw	s5,8(sp)
20000a9a:	6105                	addi	sp,sp,32
20000a9c:	bb51                	j	20000830 <FLASH_ROM_END>
20000a9e:	00f92223          	sw	a5,4(s2)
20000aa2:	b7f5                	j	20000a8e <FLASH_CMD_GET_ROM_INFO+0x4a>

20000aa4 <FLASH_CMD_GET_UNIQUE_ID>:
FLASH_CMD_GET_UNIQUE_ID():
20000aa4:	1141                	addi	sp,sp,-16
20000aa6:	c606                	sw	ra,12(sp)
20000aa8:	c426                	sw	s1,8(sp)
20000aaa:	c24a                	sw	s2,4(sp)
20000aac:	c04e                	sw	s3,0(sp)
20000aae:	89ae                	mv	s3,a1
20000ab0:	352d                	jal	200008da <FLASH_START>
20000ab2:	4581                	li	a1,0
20000ab4:	04b00513          	li	a0,75
20000ab8:	334d                	jal	2000085a <FLASH_ROM_ADDR>
20000aba:	44bd                	li	s1,15
20000abc:	597d                	li	s2,-1
20000abe:	3341                	jal	2000083e <FLASH_ROM_IN>
20000ac0:	0074f793          	andi	a5,s1,7
20000ac4:	97ce                	add	a5,a5,s3
20000ac6:	0007c703          	lbu	a4,0(a5)
20000aca:	14fd                	addi	s1,s1,-1
20000acc:	8d39                	xor	a0,a0,a4
20000ace:	00a78023          	sb	a0,0(a5)
20000ad2:	ff2496e3          	bne	s1,s2,20000abe <FLASH_CMD_GET_UNIQUE_ID+0x1a>
20000ad6:	40b2                	lw	ra,12(sp)
20000ad8:	44a2                	lw	s1,8(sp)
20000ada:	4912                	lw	s2,4(sp)
20000adc:	4982                	lw	s3,0(sp)
20000ade:	0141                	addi	sp,sp,16
20000ae0:	bb81                	j	20000830 <FLASH_ROM_END>

20000ae2 <FLASH_CMD_ROM_SW_RESET>:
FLASH_CMD_ROM_SW_RESET():
20000ae2:	1141                	addi	sp,sp,-16
20000ae4:	c606                	sw	ra,12(sp)
20000ae6:	3bd5                	jal	200008da <FLASH_START>
20000ae8:	06600513          	li	a0,102
20000aec:	3b05                	jal	2000081c <FLASH_ROM_BEG>
20000aee:	3389                	jal	20000830 <FLASH_ROM_END>
20000af0:	09900513          	li	a0,153
20000af4:	3325                	jal	2000081c <FLASH_ROM_BEG>
20000af6:	40b2                	lw	ra,12(sp)
20000af8:	0141                	addi	sp,sp,16
20000afa:	bb1d                	j	20000830 <FLASH_ROM_END>

Disassembly of section .text:

00000b00 <handle_reset>:
handle_reset():
c:/Users/seanw/Documents/Data D/CP4101/CH572EVT/EVT/EXAM/SRC/Startup/startup_CH572.S:119
	.weak	handle_reset
	.align	1
handle_reset:
.option push 
.option	norelax 
	la gp, __global_pointer$
     b00:	20001197          	auipc	gp,0x20001
     b04:	86018193          	addi	gp,gp,-1952 # 20001360 <__global_pointer$>
c:/Users/seanw/Documents/Data D/CP4101/CH572EVT/EVT/EXAM/SRC/Startup/startup_CH572.S:121
1:
	la sp, _eusrstack 
     b08:	20002117          	auipc	sp,0x20002
     b0c:	4f810113          	addi	sp,sp,1272 # 20003000 <_eusrstack>
c:/Users/seanw/Documents/Data D/CP4101/CH572EVT/EVT/EXAM/SRC/Startup/startup_CH572.S:126
.option	pop

/* Load highcode code  section from flash to RAM */
2:
    la a0, _highcode_lma
     b10:	00400513          	li	a0,4
c:/Users/seanw/Documents/Data D/CP4101/CH572EVT/EVT/EXAM/SRC/Startup/startup_CH572.S:127
    la a1, _highcode_vma_start
     b14:	1ffff597          	auipc	a1,0x1ffff
     b18:	4ec58593          	addi	a1,a1,1260 # 20000000 <_highcode_vma_start>
c:/Users/seanw/Documents/Data D/CP4101/CH572EVT/EVT/EXAM/SRC/Startup/startup_CH572.S:128
    la a2, _highcode_vma_end
     b1c:	20000617          	auipc	a2,0x20000
     b20:	fe060613          	addi	a2,a2,-32 # 20000afc <impure_data>
c:/Users/seanw/Documents/Data D/CP4101/CH572EVT/EVT/EXAM/SRC/Startup/startup_CH572.S:129
    bgeu a1, a2, 2f
     b24:	00c5fa63          	bgeu	a1,a2,b38 <handle_reset+0x38>
c:/Users/seanw/Documents/Data D/CP4101/CH572EVT/EVT/EXAM/SRC/Startup/startup_CH572.S:131
1:
    lw t0, (a0)
     b28:	00052283          	lw	t0,0(a0)
c:/Users/seanw/Documents/Data D/CP4101/CH572EVT/EVT/EXAM/SRC/Startup/startup_CH572.S:132
    sw t0, (a1)
     b2c:	0055a023          	sw	t0,0(a1)
c:/Users/seanw/Documents/Data D/CP4101/CH572EVT/EVT/EXAM/SRC/Startup/startup_CH572.S:133
    addi a0, a0, 4
     b30:	0511                	addi	a0,a0,4
c:/Users/seanw/Documents/Data D/CP4101/CH572EVT/EVT/EXAM/SRC/Startup/startup_CH572.S:134
    addi a1, a1, 4
     b32:	0591                	addi	a1,a1,4
c:/Users/seanw/Documents/Data D/CP4101/CH572EVT/EVT/EXAM/SRC/Startup/startup_CH572.S:135
    bltu a1, a2, 1b
     b34:	fec5eae3          	bltu	a1,a2,b28 <handle_reset+0x28>
c:/Users/seanw/Documents/Data D/CP4101/CH572EVT/EVT/EXAM/SRC/Startup/startup_CH572.S:139

/* Load data section from flash to RAM */
2:
	la a0, _data_lma
     b38:	00001517          	auipc	a0,0x1
     b3c:	1e050513          	addi	a0,a0,480 # 1d18 <_data_lma>
c:/Users/seanw/Documents/Data D/CP4101/CH572EVT/EVT/EXAM/SRC/Startup/startup_CH572.S:140
	la a1, _data_vma
     b40:	20000597          	auipc	a1,0x20000
     b44:	fbc58593          	addi	a1,a1,-68 # 20000afc <impure_data>
c:/Users/seanw/Documents/Data D/CP4101/CH572EVT/EVT/EXAM/SRC/Startup/startup_CH572.S:141
	la a2, _edata
     b48:	80c18613          	addi	a2,gp,-2036 # 20000b6c <__lock___malloc_recursive_mutex>
c:/Users/seanw/Documents/Data D/CP4101/CH572EVT/EVT/EXAM/SRC/Startup/startup_CH572.S:142
	bgeu a1, a2, 2f
     b4c:	00c5fa63          	bgeu	a1,a2,b60 <handle_reset+0x60>
c:/Users/seanw/Documents/Data D/CP4101/CH572EVT/EVT/EXAM/SRC/Startup/startup_CH572.S:144
1:
	lw t0, (a0)
     b50:	00052283          	lw	t0,0(a0)
c:/Users/seanw/Documents/Data D/CP4101/CH572EVT/EVT/EXAM/SRC/Startup/startup_CH572.S:145
	sw t0, (a1)
     b54:	0055a023          	sw	t0,0(a1)
c:/Users/seanw/Documents/Data D/CP4101/CH572EVT/EVT/EXAM/SRC/Startup/startup_CH572.S:146
	addi a0, a0, 4
     b58:	0511                	addi	a0,a0,4
c:/Users/seanw/Documents/Data D/CP4101/CH572EVT/EVT/EXAM/SRC/Startup/startup_CH572.S:147
	addi a1, a1, 4
     b5a:	0591                	addi	a1,a1,4
c:/Users/seanw/Documents/Data D/CP4101/CH572EVT/EVT/EXAM/SRC/Startup/startup_CH572.S:148
	bltu a1, a2, 1b
     b5c:	fec5eae3          	bltu	a1,a2,b50 <handle_reset+0x50>
c:/Users/seanw/Documents/Data D/CP4101/CH572EVT/EVT/EXAM/SRC/Startup/startup_CH572.S:151
2:
	/* clear bss section */
	la a0, _sbss
     b60:	80c18513          	addi	a0,gp,-2036 # 20000b6c <__lock___malloc_recursive_mutex>
c:/Users/seanw/Documents/Data D/CP4101/CH572EVT/EVT/EXAM/SRC/Startup/startup_CH572.S:152
	la a1, _ebss
     b64:	82418593          	addi	a1,gp,-2012 # 20000b84 <_ebss>
c:/Users/seanw/Documents/Data D/CP4101/CH572EVT/EVT/EXAM/SRC/Startup/startup_CH572.S:153
	bgeu a0, a1, 2f
     b68:	00b57763          	bgeu	a0,a1,b76 <handle_reset+0x76>
c:/Users/seanw/Documents/Data D/CP4101/CH572EVT/EVT/EXAM/SRC/Startup/startup_CH572.S:155
1:
	sw zero, (a0)
     b6c:	00052023          	sw	zero,0(a0)
c:/Users/seanw/Documents/Data D/CP4101/CH572EVT/EVT/EXAM/SRC/Startup/startup_CH572.S:156
	addi a0, a0, 4
     b70:	0511                	addi	a0,a0,4
c:/Users/seanw/Documents/Data D/CP4101/CH572EVT/EVT/EXAM/SRC/Startup/startup_CH572.S:157
	bltu a0, a1, 1b
     b72:	feb56de3          	bltu	a0,a1,b6c <handle_reset+0x6c>
c:/Users/seanw/Documents/Data D/CP4101/CH572EVT/EVT/EXAM/SRC/Startup/startup_CH572.S:161
2:
	/* 用户模式中断使能 */
	/*预取使能*/
	li t0, 0x25
     b76:	02500293          	li	t0,37
c:/Users/seanw/Documents/Data D/CP4101/CH572EVT/EVT/EXAM/SRC/Startup/startup_CH572.S:162
	csrw 0xbc0, t0
     b7a:	bc029073          	csrw	0xbc0,t0
c:/Users/seanw/Documents/Data D/CP4101/CH572EVT/EVT/EXAM/SRC/Startup/startup_CH572.S:164
	/* 打开嵌套中断、硬件压栈功能 */
	li t0, 0x3
     b7e:	428d                	li	t0,3
c:/Users/seanw/Documents/Data D/CP4101/CH572EVT/EVT/EXAM/SRC/Startup/startup_CH572.S:165
	csrw 0x804, t0
     b80:	80429073          	csrw	0x804,t0
c:/Users/seanw/Documents/Data D/CP4101/CH572EVT/EVT/EXAM/SRC/Startup/startup_CH572.S:166
	li t0, 0x1
     b84:	4285                	li	t0,1
c:/Users/seanw/Documents/Data D/CP4101/CH572EVT/EVT/EXAM/SRC/Startup/startup_CH572.S:167
	csrw 0xbc1, t0
     b86:	bc129073          	csrw	0xbc1,t0
c:/Users/seanw/Documents/Data D/CP4101/CH572EVT/EVT/EXAM/SRC/Startup/startup_CH572.S:169
	
    li t0, 0x88
     b8a:	08800293          	li	t0,136
c:/Users/seanw/Documents/Data D/CP4101/CH572EVT/EVT/EXAM/SRC/Startup/startup_CH572.S:170
    csrw mstatus, t0
     b8e:	30029073          	csrw	mstatus,t0
c:/Users/seanw/Documents/Data D/CP4101/CH572EVT/EVT/EXAM/SRC/Startup/startup_CH572.S:171
	la t0, _vector_base
     b92:	1ffff297          	auipc	t0,0x1ffff
     b96:	46e28293          	addi	t0,t0,1134 # 20000000 <_highcode_vma_start>
c:/Users/seanw/Documents/Data D/CP4101/CH572EVT/EVT/EXAM/SRC/Startup/startup_CH572.S:174

	/* 配置向量表模式为绝对地址模式 */
    ori t0, t0, 3
     b9a:	0032e293          	ori	t0,t0,3
c:/Users/seanw/Documents/Data D/CP4101/CH572EVT/EVT/EXAM/SRC/Startup/startup_CH572.S:175
	csrw mtvec, t0
     b9e:	30529073          	csrw	mtvec,t0
c:/Users/seanw/Documents/Data D/CP4101/CH572EVT/EVT/EXAM/SRC/Startup/startup_CH572.S:177

	la t0, main
     ba2:	00000297          	auipc	t0,0x0
     ba6:	02028293          	addi	t0,t0,32 # bc2 <main>
c:/Users/seanw/Documents/Data D/CP4101/CH572EVT/EVT/EXAM/SRC/Startup/startup_CH572.S:178
	csrw mepc, t0
     baa:	34129073          	csrw	mepc,t0
c:/Users/seanw/Documents/Data D/CP4101/CH572EVT/EVT/EXAM/SRC/Startup/startup_CH572.S:180
	
	mret
     bae:	30200073          	mret

00000bb2 <memset>:
memset():
     bb2:	832a                	mv	t1,a0
     bb4:	c611                	beqz	a2,bc0 <memset+0xe>
     bb6:	00b30023          	sb	a1,0(t1)
     bba:	167d                	addi	a2,a2,-1
     bbc:	0305                	addi	t1,t1,1
     bbe:	fe65                	bnez	a2,bb6 <memset+0x4>
     bc0:	8082                	ret

00000bc2 <main>:
main():
c:\Users\seanw\Documents\Data D\CP4101\CH572EVT\EVT\EXAM\PM\obj/../src/Main.c:44
{
     bc2:	1141                	addi	sp,sp,-16
c:\Users\seanw\Documents\Data D\CP4101\CH572EVT\EVT\EXAM\PM\obj/../src/Main.c:45
    HSECFG_Capacitance(HSECap_18p);
     bc4:	4519                	li	a0,6
c:\Users\seanw\Documents\Data D\CP4101\CH572EVT\EVT\EXAM\PM\obj/../src/Main.c:44
{
     bc6:	c606                	sw	ra,12(sp)
c:\Users\seanw\Documents\Data D\CP4101\CH572EVT\EVT\EXAM\PM\obj/../src/Main.c:45
    HSECFG_Capacitance(HSECap_18p);
     bc8:	2a3d                	jal	d06 <HSECFG_Capacitance>
c:\Users\seanw\Documents\Data D\CP4101\CH572EVT\EVT\EXAM\PM\obj/../src/Main.c:46
    SetSysClock(CLK_SOURCE_HSE_16MHz);
     bca:	4509                	li	a0,2
     bcc:	20000097          	auipc	ra,0x20000
     bd0:	92c080e7          	jalr	-1748(ra) # 200004f8 <SetSysClock>
c:\Users\seanw\Documents\Data D\CP4101\CH572EVT\EVT\EXAM\PM\obj/../src/Main.c:47
    GPIOA_ModeCfg(GPIO_Pin_All, GPIO_ModeIN_PU);
     bd4:	4585                	li	a1,1
     bd6:	557d                	li	a0,-1
     bd8:	2abd                	jal	d56 <GPIOA_ModeCfg>
c:\Users\seanw\Documents\Data D\CP4101\CH572EVT\EVT\EXAM\PM\obj/../src/Main.c:64
    DelayMs(5000);
     bda:	6505                	lui	a0,0x1
     bdc:	38850513          	addi	a0,a0,904 # 1388 <__sflush_r+0x14>
     be0:	20000097          	auipc	ra,0x20000
     be4:	bea080e7          	jalr	-1046(ra) # 200007ca <mDelaymS>
c:\Users\seanw\Documents\Data D\CP4101\CH572EVT\EVT\EXAM\PM\obj/../src/Main.c:68
    GPIOA_ModeCfg(GPIO_Pin_5, GPIO_ModeIN_PU);
     be8:	4585                	li	a1,1
     bea:	02000513          	li	a0,32
     bee:	22a5                	jal	d56 <GPIOA_ModeCfg>
c:\Users\seanw\Documents\Data D\CP4101\CH572EVT\EVT\EXAM\PM\obj/../src/Main.c:69
    GPIOA_ITModeCfg(GPIO_Pin_5, GPIO_ITMode_FallEdge); // 下降沿唤醒
     bf0:	4589                	li	a1,2
     bf2:	02000513          	li	a0,32
     bf6:	22cd                	jal	dd8 <GPIOA_ITModeCfg>
PFIC_EnableIRQ():
c:/Users/seanw/Documents/Data D/CP4101/CH572EVT/EVT/EXAM/SRC/RVMSIS/core_riscv.h:173
    PFIC->IENR[((uint32_t)(IRQn) >> 5)] = (1 << ((uint32_t)(IRQn) & 0x1F));
     bf8:	e000e7b7          	lui	a5,0xe000e
     bfc:	00020737          	lui	a4,0x20
     c00:	10e7a023          	sw	a4,256(a5) # e000e100 <_eusrstack+0xc000b100>
main():
c:\Users\seanw\Documents\Data D\CP4101\CH572EVT\EVT\EXAM\PM\obj/../src/Main.c:71
    PWR_PeriphWakeUpCfg(ENABLE, RB_SLP_GPIO_WAKE, Fsys_Delay_4096);
     c04:	461d                	li	a2,7
     c06:	45c1                	li	a1,16
     c08:	4505                	li	a0,1
     c0a:	2489                	jal	e4c <PWR_PeriphWakeUpCfg>
c:\Users\seanw\Documents\Data D\CP4101\CH572EVT\EVT\EXAM\PM\obj/../src/Main.c:75
    PRINT("IDLE mode sleep \n");
     c0c:	00001517          	auipc	a0,0x1
     c10:	05050513          	addi	a0,a0,80 # 1c5c <_read+0xc>
     c14:	235d                	jal	11ba <puts>
c:\Users\seanw\Documents\Data D\CP4101\CH572EVT\EVT\EXAM\PM\obj/../src/Main.c:77
    DelayMs(10);
     c16:	4529                	li	a0,10
     c18:	20000097          	auipc	ra,0x20000
     c1c:	bb2080e7          	jalr	-1102(ra) # 200007ca <mDelaymS>
c:\Users\seanw\Documents\Data D\CP4101\CH572EVT\EVT\EXAM\PM\obj/../src/Main.c:78
    LowPower_Idle();
     c20:	1ffff097          	auipc	ra,0x1ffff
     c24:	480080e7          	jalr	1152(ra) # 200000a0 <LowPower_Idle>
c:\Users\seanw\Documents\Data D\CP4101\CH572EVT\EVT\EXAM\PM\obj/../src/Main.c:82
    DelayMs(1000);
     c28:	3e800513          	li	a0,1000
     c2c:	20000097          	auipc	ra,0x20000
     c30:	b9e080e7          	jalr	-1122(ra) # 200007ca <mDelaymS>
c:\Users\seanw\Documents\Data D\CP4101\CH572EVT\EVT\EXAM\PM\obj/../src/Main.c:86
    PRINT("Halt mode sleep \n");
     c34:	00001517          	auipc	a0,0x1
     c38:	03c50513          	addi	a0,a0,60 # 1c70 <_read+0x20>
     c3c:	2bbd                	jal	11ba <puts>
c:\Users\seanw\Documents\Data D\CP4101\CH572EVT\EVT\EXAM\PM\obj/../src/Main.c:88
    DelayMs(10);
     c3e:	4529                	li	a0,10
     c40:	20000097          	auipc	ra,0x20000
     c44:	b8a080e7          	jalr	-1142(ra) # 200007ca <mDelaymS>
c:\Users\seanw\Documents\Data D\CP4101\CH572EVT\EVT\EXAM\PM\obj/../src/Main.c:89
    LowPower_Halt();
     c48:	1ffff097          	auipc	ra,0x1ffff
     c4c:	498080e7          	jalr	1176(ra) # 200000e0 <LowPower_Halt>
c:\Users\seanw\Documents\Data D\CP4101\CH572EVT\EVT\EXAM\PM\obj/../src/Main.c:90
    HSECFG_Current(HSE_RCur_100); // 降为额定电流(低功耗函数中提升了HSE偏置电流)
     c50:	4505                	li	a0,1
     c52:	209d                	jal	cb8 <HSECFG_Current>
c:\Users\seanw\Documents\Data D\CP4101\CH572EVT\EVT\EXAM\PM\obj/../src/Main.c:91
    DelayMs(10);
     c54:	4529                	li	a0,10
     c56:	20000097          	auipc	ra,0x20000
     c5a:	b74080e7          	jalr	-1164(ra) # 200007ca <mDelaymS>
c:\Users\seanw\Documents\Data D\CP4101\CH572EVT\EVT\EXAM\PM\obj/../src/Main.c:95
    DelayMs(1000);
     c5e:	3e800513          	li	a0,1000
     c62:	20000097          	auipc	ra,0x20000
     c66:	b68080e7          	jalr	-1176(ra) # 200007ca <mDelaymS>
c:\Users\seanw\Documents\Data D\CP4101\CH572EVT\EVT\EXAM\PM\obj/../src/Main.c:99
    PRINT("sleep mode sleep \n");
     c6a:	00001517          	auipc	a0,0x1
     c6e:	01a50513          	addi	a0,a0,26 # 1c84 <_read+0x34>
     c72:	23a1                	jal	11ba <puts>
c:\Users\seanw\Documents\Data D\CP4101\CH572EVT\EVT\EXAM\PM\obj/../src/Main.c:101
    DelayMs(10);
     c74:	4529                	li	a0,10
     c76:	20000097          	auipc	ra,0x20000
     c7a:	b54080e7          	jalr	-1196(ra) # 200007ca <mDelaymS>
c:\Users\seanw\Documents\Data D\CP4101\CH572EVT\EVT\EXAM\PM\obj/../src/Main.c:102
    LowPower_Sleep( RB_PWR_RAM12K | RB_PWR_EXTEND);
     c7e:	4529                	li	a0,10
     c80:	1ffff097          	auipc	ra,0x1ffff
     c84:	588080e7          	jalr	1416(ra) # 20000208 <LowPower_Sleep>
c:\Users\seanw\Documents\Data D\CP4101\CH572EVT\EVT\EXAM\PM\obj/../src/Main.c:106
    DelayMs(1000);
     c88:	3e800513          	li	a0,1000
     c8c:	20000097          	auipc	ra,0x20000
     c90:	b3e080e7          	jalr	-1218(ra) # 200007ca <mDelaymS>
c:\Users\seanw\Documents\Data D\CP4101\CH572EVT\EVT\EXAM\PM\obj/../src/Main.c:112
    DelayMs(10);
     c94:	4529                	li	a0,10
     c96:	20000097          	auipc	ra,0x20000
     c9a:	b34080e7          	jalr	-1228(ra) # 200007ca <mDelaymS>
c:\Users\seanw\Documents\Data D\CP4101\CH572EVT\EVT\EXAM\PM\obj/../src/Main.c:113
    LowPower_Shutdown(0); //全部断电，唤醒后复位
     c9e:	4501                	li	a0,0
     ca0:	1ffff097          	auipc	ra,0x1ffff
     ca4:	6e4080e7          	jalr	1764(ra) # 20000384 <LowPower_Shutdown>
c:\Users\seanw\Documents\Data D\CP4101\CH572EVT\EVT\EXAM\PM\obj/../src/Main.c:118
    HSECFG_Current(HSE_RCur_100); // 降为额定电流(低功耗函数中提升了HSE偏置电流)
     ca8:	4505                	li	a0,1
     caa:	2039                	jal	cb8 <HSECFG_Current>
c:\Users\seanw\Documents\Data D\CP4101\CH572EVT\EVT\EXAM\PM\obj/../src/Main.c:119
    PRINT("wake.. \n");
     cac:	00001517          	auipc	a0,0x1
     cb0:	fec50513          	addi	a0,a0,-20 # 1c98 <_read+0x48>
     cb4:	2319                	jal	11ba <puts>
c:\Users\seanw\Documents\Data D\CP4101\CH572EVT\EVT\EXAM\PM\obj/../src/Main.c:123 (discriminator 1)
    while(1)
     cb6:	a001                	j	cb6 <main+0xf4>

00000cb8 <HSECFG_Current>:
HSECFG_Current():
c:/Users/seanw/Documents/Data D/CP4101/CH572EVT/EVT/EXAM/SRC/StdPeriphDriver/CH57x_clk.c:60
 */
void HSECFG_Current(HSECurrentTypeDef c)
{
    uint8_t x32M_c;

    x32M_c = R8_XT32M_TUNE;
     cb8:	400017b7          	lui	a5,0x40001
     cbc:	04e7c703          	lbu	a4,78(a5) # 4000104e <_eusrstack+0x1fffe04e>
c:/Users/seanw/Documents/Data D/CP4101/CH572EVT/EVT/EXAM/SRC/StdPeriphDriver/CH57x_clk.c:61
    x32M_c = (x32M_c & 0xfc) | (c & 0x03);
     cc0:	890d                	andi	a0,a0,3
c:/Users/seanw/Documents/Data D/CP4101/CH572EVT/EVT/EXAM/SRC/StdPeriphDriver/CH57x_clk.c:57
{
     cc2:	1141                	addi	sp,sp,-16
c:/Users/seanw/Documents/Data D/CP4101/CH572EVT/EVT/EXAM/SRC/StdPeriphDriver/CH57x_clk.c:61
    x32M_c = (x32M_c & 0xfc) | (c & 0x03);
     cc4:	0fc77713          	andi	a4,a4,252
     cc8:	8f49                	or	a4,a4,a0
__risc_v_disable_irq():
c:/Users/seanw/Documents/Data D/CP4101/CH572EVT/EVT/EXAM/SRC/RVMSIS/core_riscv.h:154
    __asm volatile("csrrc %0, 0x800, %1" : \
     cca:	08800693          	li	a3,136
     cce:	8006b6f3          	csrrc	a3,0x800,a3
c:/Users/seanw/Documents/Data D/CP4101/CH572EVT/EVT/EXAM/SRC/RVMSIS/core_riscv.h:156
    return result & 0x88;
     cd2:	0886f693          	andi	a3,a3,136
HSECFG_Current():
c:/Users/seanw/Documents/Data D/CP4101/CH572EVT/EVT/EXAM/SRC/StdPeriphDriver/CH57x_clk.c:63

    sys_safe_access_enable();
     cd6:	c636                	sw	a3,12(sp)
     cd8:	0000100f          	fence.i
     cdc:	05700693          	li	a3,87
     ce0:	04d78023          	sb	a3,64(a5)
     ce4:	fa800693          	li	a3,-88
     ce8:	04d78023          	sb	a3,64(a5)
     cec:	0000100f          	fence.i
c:/Users/seanw/Documents/Data D/CP4101/CH572EVT/EVT/EXAM/SRC/StdPeriphDriver/CH57x_clk.c:64
    R8_XT32M_TUNE = x32M_c;
     cf0:	04e78723          	sb	a4,78(a5)
c:/Users/seanw/Documents/Data D/CP4101/CH572EVT/EVT/EXAM/SRC/StdPeriphDriver/CH57x_clk.c:65
    sys_safe_access_disable();
     cf4:	04078023          	sb	zero,64(a5)
     cf8:	47b2                	lw	a5,12(sp)
__risc_v_enable_irq():
c:/Users/seanw/Documents/Data D/CP4101/CH572EVT/EVT/EXAM/SRC/RVMSIS/core_riscv.h:138
    __asm volatile("csrrs %0, 0x800, %1" : \
     cfa:	8007a7f3          	csrrs	a5,0x800,a5
HSECFG_Current():
c:/Users/seanw/Documents/Data D/CP4101/CH572EVT/EVT/EXAM/SRC/StdPeriphDriver/CH57x_clk.c:65
     cfe:	0000100f          	fence.i
c:/Users/seanw/Documents/Data D/CP4101/CH572EVT/EVT/EXAM/SRC/StdPeriphDriver/CH57x_clk.c:66
}
     d02:	0141                	addi	sp,sp,16
     d04:	8082                	ret

00000d06 <HSECFG_Capacitance>:
HSECFG_Capacitance():
c:/Users/seanw/Documents/Data D/CP4101/CH572EVT/EVT/EXAM/SRC/StdPeriphDriver/CH57x_clk.c:81
 */
void HSECFG_Capacitance(HSECapTypeDef c)
{
    uint8_t x32M_c;

    x32M_c = R8_XT32M_TUNE;
     d06:	40001737          	lui	a4,0x40001
     d0a:	04e74783          	lbu	a5,78(a4) # 4000104e <_eusrstack+0x1fffe04e>
c:/Users/seanw/Documents/Data D/CP4101/CH572EVT/EVT/EXAM/SRC/StdPeriphDriver/CH57x_clk.c:82
    x32M_c = (x32M_c & 0x0f) | (c << 4);
     d0e:	0512                	slli	a0,a0,0x4
c:/Users/seanw/Documents/Data D/CP4101/CH572EVT/EVT/EXAM/SRC/StdPeriphDriver/CH57x_clk.c:78
{
     d10:	1141                	addi	sp,sp,-16
c:/Users/seanw/Documents/Data D/CP4101/CH572EVT/EVT/EXAM/SRC/StdPeriphDriver/CH57x_clk.c:82
    x32M_c = (x32M_c & 0x0f) | (c << 4);
     d12:	8bbd                	andi	a5,a5,15
     d14:	8fc9                	or	a5,a5,a0
     d16:	0ff7f793          	zext.b	a5,a5
__risc_v_disable_irq():
c:/Users/seanw/Documents/Data D/CP4101/CH572EVT/EVT/EXAM/SRC/RVMSIS/core_riscv.h:154
    __asm volatile("csrrc %0, 0x800, %1" : \
     d1a:	08800693          	li	a3,136
     d1e:	8006b6f3          	csrrc	a3,0x800,a3
c:/Users/seanw/Documents/Data D/CP4101/CH572EVT/EVT/EXAM/SRC/RVMSIS/core_riscv.h:156
    return result & 0x88;
     d22:	0886f693          	andi	a3,a3,136
HSECFG_Capacitance():
c:/Users/seanw/Documents/Data D/CP4101/CH572EVT/EVT/EXAM/SRC/StdPeriphDriver/CH57x_clk.c:84

    sys_safe_access_enable();
     d26:	c636                	sw	a3,12(sp)
     d28:	0000100f          	fence.i
     d2c:	05700693          	li	a3,87
     d30:	04d70023          	sb	a3,64(a4)
     d34:	fa800693          	li	a3,-88
     d38:	04d70023          	sb	a3,64(a4)
     d3c:	0000100f          	fence.i
c:/Users/seanw/Documents/Data D/CP4101/CH572EVT/EVT/EXAM/SRC/StdPeriphDriver/CH57x_clk.c:85
    R8_XT32M_TUNE = x32M_c;
     d40:	04f70723          	sb	a5,78(a4)
c:/Users/seanw/Documents/Data D/CP4101/CH572EVT/EVT/EXAM/SRC/StdPeriphDriver/CH57x_clk.c:86
    sys_safe_access_disable();
     d44:	04070023          	sb	zero,64(a4)
     d48:	47b2                	lw	a5,12(sp)
__risc_v_enable_irq():
c:/Users/seanw/Documents/Data D/CP4101/CH572EVT/EVT/EXAM/SRC/RVMSIS/core_riscv.h:138
    __asm volatile("csrrs %0, 0x800, %1" : \
     d4a:	8007a7f3          	csrrs	a5,0x800,a5
HSECFG_Capacitance():
c:/Users/seanw/Documents/Data D/CP4101/CH572EVT/EVT/EXAM/SRC/StdPeriphDriver/CH57x_clk.c:86
     d4e:	0000100f          	fence.i
c:/Users/seanw/Documents/Data D/CP4101/CH572EVT/EVT/EXAM/SRC/StdPeriphDriver/CH57x_clk.c:87
}
     d52:	0141                	addi	sp,sp,16
     d54:	8082                	ret

00000d56 <GPIOA_ModeCfg>:
GPIOA_ModeCfg():
c:/Users/seanw/Documents/Data D/CP4101/CH572EVT/EVT/EXAM/SRC/StdPeriphDriver/CH57x_gpio.c:27
 *
 * @return  none
 */
void GPIOA_ModeCfg(uint32_t pin, GPIOModeTypeDef mode)
{
    switch(mode)
     d56:	4791                	li	a5,4
     d58:	04b7ec63          	bltu	a5,a1,db0 <GPIOA_ModeCfg+0x5a>
     d5c:	00001797          	auipc	a5,0x1
     d60:	f4478793          	addi	a5,a5,-188 # 1ca0 <_read+0x50>
     d64:	20f5c5b3          	sh2add	a1,a1,a5
     d68:	4198                	lw	a4,0(a1)
     d6a:	973e                	add	a4,a4,a5
     d6c:	400017b7          	lui	a5,0x40001
     d70:	0b478793          	addi	a5,a5,180 # 400010b4 <_eusrstack+0x1fffe0b4>
     d74:	8702                	jr	a4
c:/Users/seanw/Documents/Data D/CP4101/CH572EVT/EVT/EXAM/SRC/StdPeriphDriver/CH57x_gpio.c:30
    {
        case GPIO_ModeIN_Floating:
            R32_PA_PD_DRV &= ~pin;
     d76:	4394                	lw	a3,0(a5)
     d78:	40001737          	lui	a4,0x40001
     d7c:	40a6f6b3          	andn	a3,a3,a0
c:/Users/seanw/Documents/Data D/CP4101/CH572EVT/EVT/EXAM/SRC/StdPeriphDriver/CH57x_gpio.c:42
            R32_PA_PU |= pin;
            R32_PA_DIR &= ~pin;
            break;

        case GPIO_ModeIN_PD:
            R32_PA_PD_DRV |= pin;
     d80:	c394                	sw	a3,0(a5)
c:/Users/seanw/Documents/Data D/CP4101/CH572EVT/EVT/EXAM/SRC/StdPeriphDriver/CH57x_gpio.c:43
            R32_PA_PU &= ~pin;
     d82:	0b070693          	addi	a3,a4,176 # 400010b0 <_eusrstack+0x1fffe0b0>
     d86:	429c                	lw	a5,0(a3)
     d88:	40a7f7b3          	andn	a5,a5,a0
     d8c:	a819                	j	da2 <GPIOA_ModeCfg+0x4c>
c:/Users/seanw/Documents/Data D/CP4101/CH572EVT/EVT/EXAM/SRC/StdPeriphDriver/CH57x_gpio.c:36
            R32_PA_PD_DRV &= ~pin;
     d8e:	4394                	lw	a3,0(a5)
     d90:	40001737          	lui	a4,0x40001
     d94:	40a6f6b3          	andn	a3,a3,a0
     d98:	c394                	sw	a3,0(a5)
c:/Users/seanw/Documents/Data D/CP4101/CH572EVT/EVT/EXAM/SRC/StdPeriphDriver/CH57x_gpio.c:37
            R32_PA_PU |= pin;
     d9a:	0b070693          	addi	a3,a4,176 # 400010b0 <_eusrstack+0x1fffe0b0>
     d9e:	429c                	lw	a5,0(a3)
     da0:	8fc9                	or	a5,a5,a0
c:/Users/seanw/Documents/Data D/CP4101/CH572EVT/EVT/EXAM/SRC/StdPeriphDriver/CH57x_gpio.c:43
            R32_PA_PU &= ~pin;
     da2:	c29c                	sw	a5,0(a3)
c:/Users/seanw/Documents/Data D/CP4101/CH572EVT/EVT/EXAM/SRC/StdPeriphDriver/CH57x_gpio.c:44
            R32_PA_DIR &= ~pin;
     da4:	0a070793          	addi	a5,a4,160
     da8:	4398                	lw	a4,0(a5)
     daa:	40a77733          	andn	a4,a4,a0
c:/Users/seanw/Documents/Data D/CP4101/CH572EVT/EVT/EXAM/SRC/StdPeriphDriver/CH57x_gpio.c:54
            R32_PA_DIR |= pin;
            break;

        case GPIO_ModeOut_PP_20mA:
            R32_PA_PD_DRV |= pin;
            R32_PA_DIR |= pin;
     dae:	c398                	sw	a4,0(a5)
c:/Users/seanw/Documents/Data D/CP4101/CH572EVT/EVT/EXAM/SRC/StdPeriphDriver/CH57x_gpio.c:60
            break;

        default:
            break;
    }
}
     db0:	8082                	ret
c:/Users/seanw/Documents/Data D/CP4101/CH572EVT/EVT/EXAM/SRC/StdPeriphDriver/CH57x_gpio.c:42
            R32_PA_PD_DRV |= pin;
     db2:	4394                	lw	a3,0(a5)
     db4:	40001737          	lui	a4,0x40001
     db8:	8ec9                	or	a3,a3,a0
     dba:	b7d9                	j	d80 <GPIOA_ModeCfg+0x2a>
c:/Users/seanw/Documents/Data D/CP4101/CH572EVT/EVT/EXAM/SRC/StdPeriphDriver/CH57x_gpio.c:48
            R32_PA_PD_DRV &= ~pin;
     dbc:	4398                	lw	a4,0(a5)
     dbe:	40a77733          	andn	a4,a4,a0
c:/Users/seanw/Documents/Data D/CP4101/CH572EVT/EVT/EXAM/SRC/StdPeriphDriver/CH57x_gpio.c:53
            R32_PA_PD_DRV |= pin;
     dc2:	c398                	sw	a4,0(a5)
c:/Users/seanw/Documents/Data D/CP4101/CH572EVT/EVT/EXAM/SRC/StdPeriphDriver/CH57x_gpio.c:54
            R32_PA_DIR |= pin;
     dc4:	400017b7          	lui	a5,0x40001
     dc8:	0a078793          	addi	a5,a5,160 # 400010a0 <_eusrstack+0x1fffe0a0>
     dcc:	4398                	lw	a4,0(a5)
     dce:	8f49                	or	a4,a4,a0
     dd0:	bff9                	j	dae <GPIOA_ModeCfg+0x58>
c:/Users/seanw/Documents/Data D/CP4101/CH572EVT/EVT/EXAM/SRC/StdPeriphDriver/CH57x_gpio.c:53
            R32_PA_PD_DRV |= pin;
     dd2:	4398                	lw	a4,0(a5)
     dd4:	8f49                	or	a4,a4,a0
     dd6:	b7f5                	j	dc2 <GPIOA_ModeCfg+0x6c>

00000dd8 <GPIOA_ITModeCfg>:
GPIOA_ITModeCfg():
c:/Users/seanw/Documents/Data D/CP4101/CH572EVT/EVT/EXAM/SRC/StdPeriphDriver/CH57x_gpio.c:74
 *
 * @return  none
 */
void GPIOA_ITModeCfg(uint32_t pin, GPIOITModeTpDef mode)
{
    switch(mode)
     dd8:	4789                	li	a5,2
c:/Users/seanw/Documents/Data D/CP4101/CH572EVT/EVT/EXAM/SRC/StdPeriphDriver/CH57x_gpio.c:77
    {
        case GPIO_ITMode_LowLevel: // 低电平触发
            R16_PA_INT_MODE &= ~pin;
     dda:	08054733          	zext.h	a4,a0
c:/Users/seanw/Documents/Data D/CP4101/CH572EVT/EVT/EXAM/SRC/StdPeriphDriver/CH57x_gpio.c:74
    switch(mode)
     dde:	04f58b63          	beq	a1,a5,e34 <GPIOA_ITModeCfg+0x5c>
     de2:	02b7e263          	bltu	a5,a1,e06 <GPIOA_ITModeCfg+0x2e>
     de6:	fff74613          	not	a2,a4
     dea:	e99d                	bnez	a1,e20 <GPIOA_ITModeCfg+0x48>
c:/Users/seanw/Documents/Data D/CP4101/CH572EVT/EVT/EXAM/SRC/StdPeriphDriver/CH57x_gpio.c:77
            R16_PA_INT_MODE &= ~pin;
     dec:	400017b7          	lui	a5,0x40001
     df0:	0947d683          	lhu	a3,148(a5) # 40001094 <_eusrstack+0x1fffe094>
     df4:	8ef1                	and	a3,a3,a2
c:/Users/seanw/Documents/Data D/CP4101/CH572EVT/EVT/EXAM/SRC/StdPeriphDriver/CH57x_gpio.c:87
            R16_PA_INT_MODE &= ~pin;
            R32_PA_OUT |= pin;
            break;

        case GPIO_ITMode_FallEdge: // 下降沿触发
            R16_PA_INT_MODE |= pin;
     df6:	08d79a23          	sh	a3,148(a5)
c:/Users/seanw/Documents/Data D/CP4101/CH572EVT/EVT/EXAM/SRC/StdPeriphDriver/CH57x_gpio.c:88
            R32_PA_CLR |= pin;
     dfa:	0ac78793          	addi	a5,a5,172
c:/Users/seanw/Documents/Data D/CP4101/CH572EVT/EVT/EXAM/SRC/StdPeriphDriver/CH57x_gpio.c:93
            break;

        case GPIO_ITMode_RiseEdge: // 上升沿触发
            R16_PA_INT_MODE |= pin;
            R32_PA_OUT |= pin;
     dfe:	4394                	lw	a3,0(a5)
     e00:	8ec9                	or	a3,a3,a0
     e02:	c394                	sw	a3,0(a5)
c:/Users/seanw/Documents/Data D/CP4101/CH572EVT/EVT/EXAM/SRC/StdPeriphDriver/CH57x_gpio.c:94
            break;
     e04:	a021                	j	e0c <GPIOA_ITModeCfg+0x34>
c:/Users/seanw/Documents/Data D/CP4101/CH572EVT/EVT/EXAM/SRC/StdPeriphDriver/CH57x_gpio.c:74
    switch(mode)
     e06:	478d                	li	a5,3
     e08:	02f58c63          	beq	a1,a5,e40 <GPIOA_ITModeCfg+0x68>
c:/Users/seanw/Documents/Data D/CP4101/CH572EVT/EVT/EXAM/SRC/StdPeriphDriver/CH57x_gpio.c:99

        default:
            break;
    }
    R16_PA_INT_IF = pin;
     e0c:	400017b7          	lui	a5,0x40001
     e10:	08e79e23          	sh	a4,156(a5) # 4000109c <_eusrstack+0x1fffe09c>
c:/Users/seanw/Documents/Data D/CP4101/CH572EVT/EVT/EXAM/SRC/StdPeriphDriver/CH57x_gpio.c:100
    R16_PA_INT_EN |= pin;
     e14:	0907d683          	lhu	a3,144(a5)
     e18:	8f55                	or	a4,a4,a3
     e1a:	08e79823          	sh	a4,144(a5)
c:/Users/seanw/Documents/Data D/CP4101/CH572EVT/EVT/EXAM/SRC/StdPeriphDriver/CH57x_gpio.c:101
}
     e1e:	8082                	ret
c:/Users/seanw/Documents/Data D/CP4101/CH572EVT/EVT/EXAM/SRC/StdPeriphDriver/CH57x_gpio.c:82
            R16_PA_INT_MODE &= ~pin;
     e20:	400017b7          	lui	a5,0x40001
     e24:	0947d683          	lhu	a3,148(a5) # 40001094 <_eusrstack+0x1fffe094>
     e28:	8ef1                	and	a3,a3,a2
c:/Users/seanw/Documents/Data D/CP4101/CH572EVT/EVT/EXAM/SRC/StdPeriphDriver/CH57x_gpio.c:92
            R16_PA_INT_MODE |= pin;
     e2a:	08d79a23          	sh	a3,148(a5)
c:/Users/seanw/Documents/Data D/CP4101/CH572EVT/EVT/EXAM/SRC/StdPeriphDriver/CH57x_gpio.c:93
            R32_PA_OUT |= pin;
     e2e:	0a878793          	addi	a5,a5,168
     e32:	b7f1                	j	dfe <GPIOA_ITModeCfg+0x26>
c:/Users/seanw/Documents/Data D/CP4101/CH572EVT/EVT/EXAM/SRC/StdPeriphDriver/CH57x_gpio.c:87
            R16_PA_INT_MODE |= pin;
     e34:	400017b7          	lui	a5,0x40001
     e38:	0947d683          	lhu	a3,148(a5) # 40001094 <_eusrstack+0x1fffe094>
     e3c:	8ed9                	or	a3,a3,a4
     e3e:	bf65                	j	df6 <GPIOA_ITModeCfg+0x1e>
c:/Users/seanw/Documents/Data D/CP4101/CH572EVT/EVT/EXAM/SRC/StdPeriphDriver/CH57x_gpio.c:92
            R16_PA_INT_MODE |= pin;
     e40:	400017b7          	lui	a5,0x40001
     e44:	0947d683          	lhu	a3,148(a5) # 40001094 <_eusrstack+0x1fffe094>
     e48:	8ed9                	or	a3,a3,a4
     e4a:	b7c5                	j	e2a <GPIOA_ITModeCfg+0x52>

00000e4c <PWR_PeriphWakeUpCfg>:
PWR_PeriphWakeUpCfg():
c:/Users/seanw/Documents/Data D/CP4101/CH572EVT/EVT/EXAM/SRC/StdPeriphDriver/CH57x_pwr.c:63
{
     e4c:	1141                	addi	sp,sp,-16
c:/Users/seanw/Documents/Data D/CP4101/CH572EVT/EVT/EXAM/SRC/StdPeriphDriver/CH57x_pwr.c:64
    if(s == DISABLE)
     e4e:	e139                	bnez	a0,e94 <PWR_PeriphWakeUpCfg+0x48>
__risc_v_disable_irq():
c:/Users/seanw/Documents/Data D/CP4101/CH572EVT/EVT/EXAM/SRC/RVMSIS/core_riscv.h:154
    __asm volatile("csrrc %0, 0x800, %1" : \
     e50:	08800793          	li	a5,136
     e54:	8007b7f3          	csrrc	a5,0x800,a5
c:/Users/seanw/Documents/Data D/CP4101/CH572EVT/EVT/EXAM/SRC/RVMSIS/core_riscv.h:156
    return result & 0x88;
     e58:	0887f793          	andi	a5,a5,136
PWR_PeriphWakeUpCfg():
c:/Users/seanw/Documents/Data D/CP4101/CH572EVT/EVT/EXAM/SRC/StdPeriphDriver/CH57x_pwr.c:66
        sys_safe_access_enable();
     e5c:	c03e                	sw	a5,0(sp)
     e5e:	0000100f          	fence.i
     e62:	400017b7          	lui	a5,0x40001
     e66:	05700713          	li	a4,87
     e6a:	04e78023          	sb	a4,64(a5) # 40001040 <_eusrstack+0x1fffe040>
     e6e:	fa800713          	li	a4,-88
     e72:	04e78023          	sb	a4,64(a5)
     e76:	0000100f          	fence.i
c:/Users/seanw/Documents/Data D/CP4101/CH572EVT/EVT/EXAM/SRC/StdPeriphDriver/CH57x_pwr.c:67
        R8_SLP_WAKE_CTRL &= ~perph;
     e7a:	27f8                	lbu	a4,14(a5)
     e7c:	40b775b3          	andn	a1,a4,a1
     e80:	a7ec                	sb	a1,14(a5)
c:/Users/seanw/Documents/Data D/CP4101/CH572EVT/EVT/EXAM/SRC/StdPeriphDriver/CH57x_pwr.c:68
        sys_safe_access_disable();
     e82:	04078023          	sb	zero,64(a5)
     e86:	4782                	lw	a5,0(sp)
__risc_v_enable_irq():
c:/Users/seanw/Documents/Data D/CP4101/CH572EVT/EVT/EXAM/SRC/RVMSIS/core_riscv.h:138
    __asm volatile("csrrs %0, 0x800, %1" : \
     e88:	8007a7f3          	csrrs	a5,0x800,a5
PWR_PeriphWakeUpCfg():
c:/Users/seanw/Documents/Data D/CP4101/CH572EVT/EVT/EXAM/SRC/StdPeriphDriver/CH57x_pwr.c:80
        sys_safe_access_disable();
     e8c:	0000100f          	fence.i
c:/Users/seanw/Documents/Data D/CP4101/CH572EVT/EVT/EXAM/SRC/StdPeriphDriver/CH57x_pwr.c:82
}
     e90:	0141                	addi	sp,sp,16
     e92:	8082                	ret
__risc_v_disable_irq():
c:/Users/seanw/Documents/Data D/CP4101/CH572EVT/EVT/EXAM/SRC/RVMSIS/core_riscv.h:154
    __asm volatile("csrrc %0, 0x800, %1" : \
     e94:	08800713          	li	a4,136
     e98:	800737f3          	csrrc	a5,0x800,a4
c:/Users/seanw/Documents/Data D/CP4101/CH572EVT/EVT/EXAM/SRC/RVMSIS/core_riscv.h:156
    return result & 0x88;
     e9c:	0887f793          	andi	a5,a5,136
PWR_PeriphWakeUpCfg():
c:/Users/seanw/Documents/Data D/CP4101/CH572EVT/EVT/EXAM/SRC/StdPeriphDriver/CH57x_pwr.c:72
        sys_safe_access_enable();
     ea0:	c23e                	sw	a5,4(sp)
     ea2:	0000100f          	fence.i
     ea6:	400017b7          	lui	a5,0x40001
     eaa:	05700813          	li	a6,87
     eae:	05078023          	sb	a6,64(a5) # 40001040 <_eusrstack+0x1fffe040>
     eb2:	fa800513          	li	a0,-88
     eb6:	04a78023          	sb	a0,64(a5)
     eba:	0000100f          	fence.i
c:/Users/seanw/Documents/Data D/CP4101/CH572EVT/EVT/EXAM/SRC/StdPeriphDriver/CH57x_pwr.c:73
        R8_SLP_WAKE_CTRL |= RB_WAKE_EV_MODE | perph;
     ebe:	27f4                	lbu	a3,14(a5)
     ec0:	8ecd                	or	a3,a3,a1
     ec2:	0406e693          	ori	a3,a3,64
     ec6:	a7f4                	sb	a3,14(a5)
c:/Users/seanw/Documents/Data D/CP4101/CH572EVT/EVT/EXAM/SRC/StdPeriphDriver/CH57x_pwr.c:74
        sys_safe_access_disable();
     ec8:	04078023          	sb	zero,64(a5)
     ecc:	4692                	lw	a3,4(sp)
__risc_v_enable_irq():
c:/Users/seanw/Documents/Data D/CP4101/CH572EVT/EVT/EXAM/SRC/RVMSIS/core_riscv.h:138
    __asm volatile("csrrs %0, 0x800, %1" : \
     ece:	8006a6f3          	csrrs	a3,0x800,a3
PWR_PeriphWakeUpCfg():
c:/Users/seanw/Documents/Data D/CP4101/CH572EVT/EVT/EXAM/SRC/StdPeriphDriver/CH57x_pwr.c:74
     ed2:	0000100f          	fence.i
__risc_v_disable_irq():
c:/Users/seanw/Documents/Data D/CP4101/CH572EVT/EVT/EXAM/SRC/RVMSIS/core_riscv.h:154
    __asm volatile("csrrc %0, 0x800, %1" : \
     ed6:	800736f3          	csrrc	a3,0x800,a4
c:/Users/seanw/Documents/Data D/CP4101/CH572EVT/EVT/EXAM/SRC/RVMSIS/core_riscv.h:156
    return result & 0x88;
     eda:	0886f693          	andi	a3,a3,136
PWR_PeriphWakeUpCfg():
c:/Users/seanw/Documents/Data D/CP4101/CH572EVT/EVT/EXAM/SRC/StdPeriphDriver/CH57x_pwr.c:75
        sys_safe_access_enable();
     ede:	c436                	sw	a3,8(sp)
     ee0:	0000100f          	fence.i
     ee4:	05078023          	sb	a6,64(a5)
     ee8:	04a78023          	sb	a0,64(a5)
     eec:	0000100f          	fence.i
c:/Users/seanw/Documents/Data D/CP4101/CH572EVT/EVT/EXAM/SRC/StdPeriphDriver/CH57x_pwr.c:76
        R8_SLP_POWER_CTRL &= ~(RB_WAKE_DLY_MOD);
     ef0:	37f4                	lbu	a3,15(a5)
     ef2:	0f86f693          	andi	a3,a3,248
     ef6:	b7f4                	sb	a3,15(a5)
c:/Users/seanw/Documents/Data D/CP4101/CH572EVT/EVT/EXAM/SRC/StdPeriphDriver/CH57x_pwr.c:77
        sys_safe_access_disable();
     ef8:	04078023          	sb	zero,64(a5)
     efc:	46a2                	lw	a3,8(sp)
__risc_v_enable_irq():
c:/Users/seanw/Documents/Data D/CP4101/CH572EVT/EVT/EXAM/SRC/RVMSIS/core_riscv.h:138
    __asm volatile("csrrs %0, 0x800, %1" : \
     efe:	8006a6f3          	csrrs	a3,0x800,a3
PWR_PeriphWakeUpCfg():
c:/Users/seanw/Documents/Data D/CP4101/CH572EVT/EVT/EXAM/SRC/StdPeriphDriver/CH57x_pwr.c:77
     f02:	0000100f          	fence.i
__risc_v_disable_irq():
c:/Users/seanw/Documents/Data D/CP4101/CH572EVT/EVT/EXAM/SRC/RVMSIS/core_riscv.h:154
    __asm volatile("csrrc %0, 0x800, %1" : \
     f06:	80073773          	csrrc	a4,0x800,a4
c:/Users/seanw/Documents/Data D/CP4101/CH572EVT/EVT/EXAM/SRC/RVMSIS/core_riscv.h:156
    return result & 0x88;
     f0a:	08877713          	andi	a4,a4,136
PWR_PeriphWakeUpCfg():
c:/Users/seanw/Documents/Data D/CP4101/CH572EVT/EVT/EXAM/SRC/StdPeriphDriver/CH57x_pwr.c:78
        sys_safe_access_enable();
     f0e:	c63a                	sw	a4,12(sp)
     f10:	0000100f          	fence.i
     f14:	05078023          	sb	a6,64(a5)
     f18:	04a78023          	sb	a0,64(a5)
     f1c:	0000100f          	fence.i
c:/Users/seanw/Documents/Data D/CP4101/CH572EVT/EVT/EXAM/SRC/StdPeriphDriver/CH57x_pwr.c:79
        R8_SLP_POWER_CTRL |= mode;
     f20:	37f8                	lbu	a4,15(a5)
     f22:	8e59                	or	a2,a2,a4
     f24:	0ff67613          	zext.b	a2,a2
     f28:	b7f0                	sb	a2,15(a5)
c:/Users/seanw/Documents/Data D/CP4101/CH572EVT/EVT/EXAM/SRC/StdPeriphDriver/CH57x_pwr.c:80
        sys_safe_access_disable();
     f2a:	04078023          	sb	zero,64(a5)
     f2e:	47b2                	lw	a5,12(sp)
     f30:	bfa1                	j	e88 <PWR_PeriphWakeUpCfg+0x3c>

00000f32 <_write>:
_write():
c:/Users/seanw/Documents/Data D/CP4101/CH572EVT/EVT/EXAM/SRC/StdPeriphDriver/CH57x_sys.c:376

#ifdef DEBUG
int _write(int fd, char *buf, int size)
{
     f32:	8532                	mv	a0,a2
c:/Users/seanw/Documents/Data D/CP4101/CH572EVT/EVT/EXAM/SRC/StdPeriphDriver/CH57x_sys.c:378
    int i;
    for(i = 0; i < size; i++)
     f34:	4781                	li	a5,0
c:/Users/seanw/Documents/Data D/CP4101/CH572EVT/EVT/EXAM/SRC/StdPeriphDriver/CH57x_sys.c:380
    {
        while(R8_UART_TFC == UART_FIFO_SIZE);                  /* 等待数据发送 */
     f36:	40003737          	lui	a4,0x40003
     f3a:	46a1                	li	a3,8
c:/Users/seanw/Documents/Data D/CP4101/CH572EVT/EVT/EXAM/SRC/StdPeriphDriver/CH57x_sys.c:378 (discriminator 1)
    for(i = 0; i < size; i++)
     f3c:	00a7c363          	blt	a5,a0,f42 <_write+0x10>
c:/Users/seanw/Documents/Data D/CP4101/CH572EVT/EVT/EXAM/SRC/StdPeriphDriver/CH57x_sys.c:384
            R8_UART_THR = *buf++; /* 发送数据 */
    }
    return size;
}
     f40:	8082                	ret
c:/Users/seanw/Documents/Data D/CP4101/CH572EVT/EVT/EXAM/SRC/StdPeriphDriver/CH57x_sys.c:380 (discriminator 1)
        while(R8_UART_TFC == UART_FIFO_SIZE);                  /* 等待数据发送 */
     f42:	40b74603          	lbu	a2,1035(a4) # 4000340b <_eusrstack+0x2000040b>
     f46:	fed60ee3          	beq	a2,a3,f42 <_write+0x10>
c:/Users/seanw/Documents/Data D/CP4101/CH572EVT/EVT/EXAM/SRC/StdPeriphDriver/CH57x_sys.c:381 (discriminator 2)
            R8_UART_THR = *buf++; /* 发送数据 */
     f4a:	00f58633          	add	a2,a1,a5
     f4e:	2210                	lbu	a2,0(a2)
c:/Users/seanw/Documents/Data D/CP4101/CH572EVT/EVT/EXAM/SRC/StdPeriphDriver/CH57x_sys.c:378 (discriminator 2)
    for(i = 0; i < size; i++)
     f50:	0785                	addi	a5,a5,1
c:/Users/seanw/Documents/Data D/CP4101/CH572EVT/EVT/EXAM/SRC/StdPeriphDriver/CH57x_sys.c:381 (discriminator 2)
            R8_UART_THR = *buf++; /* 发送数据 */
     f52:	40c70423          	sb	a2,1032(a4)
c:/Users/seanw/Documents/Data D/CP4101/CH572EVT/EVT/EXAM/SRC/StdPeriphDriver/CH57x_sys.c:378 (discriminator 2)
    for(i = 0; i < size; i++)
     f56:	b7dd                	j	f3c <_write+0xa>

00000f58 <_sbrk>:
_sbrk():
c:/Users/seanw/Documents/Data D/CP4101/CH572EVT/EVT/EXAM/SRC/StdPeriphDriver/CH57x_sys.c:401
void *_sbrk(ptrdiff_t incr)
{
    extern char _end[];
    static char *curbrk = _end;

    if ((curbrk + incr < _end) || ((uint32_t)curbrk + incr > (__get_SP() - 64)))
     f58:	20000697          	auipc	a3,0x20000
     f5c:	c0868693          	addi	a3,a3,-1016 # 20000b60 <curbrk.0>
c:/Users/seanw/Documents/Data D/CP4101/CH572EVT/EVT/EXAM/SRC/StdPeriphDriver/CH57x_sys.c:397
{
     f60:	87aa                	mv	a5,a0
c:/Users/seanw/Documents/Data D/CP4101/CH572EVT/EVT/EXAM/SRC/StdPeriphDriver/CH57x_sys.c:401
    if ((curbrk + incr < _end) || ((uint32_t)curbrk + incr > (__get_SP() - 64)))
     f62:	4288                	lw	a0,0(a3)
     f64:	82418713          	addi	a4,gp,-2012 # 20000b84 <_ebss>
     f68:	97aa                	add	a5,a5,a0
     f6a:	00e7e963          	bltu	a5,a4,f7c <_sbrk+0x24>
__get_SP():
c:/Users/seanw/Documents/Data D/CP4101/CH572EVT/EVT/EXAM/SRC/RVMSIS/core_riscv.h:630 (discriminator 1)
 */
__attribute__((always_inline)) RV_STATIC_INLINE uint32_t __get_SP(void)
{
    uint32_t result;

    __ASM volatile("mv %0," "sp" : "=r"(result) :);
     f6e:	870a                	mv	a4,sp
_sbrk():
c:/Users/seanw/Documents/Data D/CP4101/CH572EVT/EVT/EXAM/SRC/StdPeriphDriver/CH57x_sys.c:401 (discriminator 1)
     f70:	fc070713          	addi	a4,a4,-64
     f74:	00f76463          	bltu	a4,a5,f7c <_sbrk+0x24>
c:/Users/seanw/Documents/Data D/CP4101/CH572EVT/EVT/EXAM/SRC/StdPeriphDriver/CH57x_sys.c:404
    return NULL - 1;

    curbrk += incr;
     f78:	c29c                	sw	a5,0(a3)
c:/Users/seanw/Documents/Data D/CP4101/CH572EVT/EVT/EXAM/SRC/StdPeriphDriver/CH57x_sys.c:405
    return curbrk - incr;
     f7a:	8082                	ret
c:/Users/seanw/Documents/Data D/CP4101/CH572EVT/EVT/EXAM/SRC/StdPeriphDriver/CH57x_sys.c:402
    return NULL - 1;
     f7c:	557d                	li	a0,-1
c:/Users/seanw/Documents/Data D/CP4101/CH572EVT/EVT/EXAM/SRC/StdPeriphDriver/CH57x_sys.c:406
}
     f7e:	8082                	ret

00000f80 <FLASH_EEPROM_CMD>:
FLASH_EEPROM_CMD():
     f80:	1101                	addi	sp,sp,-32
     f82:	872a                	mv	a4,a0
     f84:	ce06                	sw	ra,28(sp)
     f86:	852e                	mv	a0,a1
     f88:	cc26                	sw	s1,24(sp)
     f8a:	85b2                	mv	a1,a2
     f8c:	ca4a                	sw	s2,20(sp)
     f8e:	8636                	mv	a2,a3
     f90:	c622                	sw	s0,12(sp)
     f92:	40002437          	lui	s0,0x40002
     f96:	e000e7b7          	lui	a5,0xe000e
     f9a:	56fd                	li	a3,-1
     f9c:	0007a903          	lw	s2,0(a5) # e000e000 <_eusrstack+0xc000b000>
     fa0:	43c4                	lw	s1,4(a5)
     fa2:	18d7a023          	sw	a3,384(a5)
     fa6:	18d7a223          	sw	a3,388(a5)
     faa:	fff70793          	addi	a5,a4,-1
     fae:	0ff7f793          	zext.b	a5,a5
     fb2:	4689                	li	a3,2
     fb4:	0af6e063          	bltu	a3,a5,1054 <FLASH_EEPROM_CMD+0xd4>
     fb8:	400017b7          	lui	a5,0x40001
     fbc:	0457c783          	lbu	a5,69(a5) # 40001045 <_eusrstack+0x1fffe045>
     fc0:	000406b7          	lui	a3,0x40
     fc4:	0207f793          	andi	a5,a5,32
     fc8:	e399                	bnez	a5,fce <FLASH_EEPROM_CMD+0x4e>
     fca:	0003c6b7          	lui	a3,0x3c
     fce:	57f9                	li	a5,-2
     fd0:	04d57563          	bgeu	a0,a3,101a <FLASH_EEPROM_CMD+0x9a>
     fd4:	00c50833          	add	a6,a0,a2
     fd8:	0506e163          	bltu	a3,a6,101a <FLASH_EEPROM_CMD+0x9a>
     fdc:	4789                	li	a5,2
     fde:	04f71463          	bne	a4,a5,1026 <FLASH_EEPROM_CMD+0xa6>
     fe2:	8209                	srli	a2,a2,0x2
     fe4:	20000097          	auipc	ra,0x20000
     fe8:	92c080e7          	jalr	-1748(ra) # 20000910 <FLASH_CMD_ROM_WRITE>
     fec:	87aa                	mv	a5,a0
     fee:	40001737          	lui	a4,0x40001
     ff2:	05700693          	li	a3,87
     ff6:	04d70023          	sb	a3,64(a4) # 40001040 <_eusrstack+0x1fffe040>
     ffa:	fa800693          	li	a3,-88
     ffe:	04d70023          	sb	a3,64(a4)
    1002:	04474683          	lbu	a3,68(a4)
    1006:	8ac1                	andi	a3,a3,16
    1008:	04d70223          	sb	a3,68(a4)
    100c:	e000e737          	lui	a4,0xe000e
    1010:	11272023          	sw	s2,256(a4) # e000e100 <_eusrstack+0xc000b100>
    1014:	10972223          	sw	s1,260(a4)
    1018:	4432                	lw	s0,12(sp)
    101a:	40f2                	lw	ra,28(sp)
    101c:	44e2                	lw	s1,24(sp)
    101e:	4952                	lw	s2,20(sp)
    1020:	853e                	mv	a0,a5
    1022:	6105                	addi	sp,sp,32
    1024:	8082                	ret
    1026:	4785                	li	a5,1
    1028:	00f71f63          	bne	a4,a5,1046 <FLASH_EEPROM_CMD+0xc6>
    102c:	6785                	lui	a5,0x1
    102e:	17fd                	addi	a5,a5,-1 # fff <FLASH_EEPROM_CMD+0x7f>
    1030:	963e                	add	a2,a2,a5
    1032:	8fe9                	and	a5,a5,a0
    1034:	963e                	add	a2,a2,a5
    1036:	77fd                	lui	a5,0xfffff
    1038:	8e7d                	and	a2,a2,a5
    103a:	8d7d                	and	a0,a0,a5
    103c:	20000097          	auipc	ra,0x20000
    1040:	934080e7          	jalr	-1740(ra) # 20000970 <FLASH_CMD_ROM_ERASE>
    1044:	b765                	j	fec <FLASH_EEPROM_CMD+0x6c>
    1046:	20000097          	auipc	ra,0x20000
    104a:	99c080e7          	jalr	-1636(ra) # 200009e2 <FLASH_CMD_ROM_VERIFY>
    104e:	00150793          	addi	a5,a0,1
    1052:	bf71                	j	fee <FLASH_EEPROM_CMD+0x6e>
    1054:	47b5                	li	a5,13
    1056:	00f71a63          	bne	a4,a5,106a <FLASH_EEPROM_CMD+0xea>
    105a:	0b900513          	li	a0,185
    105e:	20000097          	auipc	ra,0x20000
    1062:	9d4080e7          	jalr	-1580(ra) # 20000a32 <FLASH_CMD_ROM_PWR>
    1066:	4781                	li	a5,0
    1068:	b759                	j	fee <FLASH_EEPROM_CMD+0x6e>
    106a:	47b1                	li	a5,12
    106c:	00f71563          	bne	a4,a5,1076 <FLASH_EEPROM_CMD+0xf6>
    1070:	0ab00513          	li	a0,171
    1074:	b7ed                	j	105e <FLASH_EEPROM_CMD+0xde>
    1076:	4799                	li	a5,6
    1078:	00f71763          	bne	a4,a5,1086 <FLASH_EEPROM_CMD+0x106>
    107c:	20000097          	auipc	ra,0x20000
    1080:	9c8080e7          	jalr	-1592(ra) # 20000a44 <FLASH_CMD_GET_ROM_INFO>
    1084:	b7cd                	j	1066 <FLASH_EEPROM_CMD+0xe6>
    1086:	479d                	li	a5,7
    1088:	00f71b63          	bne	a4,a5,109e <FLASH_EEPROM_CMD+0x11e>
    108c:	0005a023          	sw	zero,0(a1)
    1090:	0005a223          	sw	zero,4(a1)
    1094:	20000097          	auipc	ra,0x20000
    1098:	a10080e7          	jalr	-1520(ra) # 20000aa4 <FLASH_CMD_GET_UNIQUE_ID>
    109c:	b7e9                	j	1066 <FLASH_EEPROM_CMD+0xe6>
    109e:	4791                	li	a5,4
    10a0:	00f71763          	bne	a4,a5,10ae <FLASH_EEPROM_CMD+0x12e>
    10a4:	20000097          	auipc	ra,0x20000
    10a8:	a3e080e7          	jalr	-1474(ra) # 20000ae2 <FLASH_CMD_ROM_SW_RESET>
    10ac:	bf6d                	j	1066 <FLASH_EEPROM_CMD+0xe6>
    10ae:	4781                	li	a5,0
    10b0:	df1d                	beqz	a4,fee <FLASH_EEPROM_CMD+0x6e>
    10b2:	57f1                	li	a5,-4
    10b4:	bf2d                	j	fee <FLASH_EEPROM_CMD+0x6e>

000010b6 <_puts_r>:
_puts_r():
    10b6:	1101                	addi	sp,sp,-32
    10b8:	ca26                	sw	s1,20(sp)
    10ba:	ce06                	sw	ra,28(sp)
    10bc:	cc22                	sw	s0,24(sp)
    10be:	c84a                	sw	s2,16(sp)
    10c0:	c64e                	sw	s3,12(sp)
    10c2:	c452                	sw	s4,8(sp)
    10c4:	84aa                	mv	s1,a0
    10c6:	e119                	bnez	a0,10cc <_puts_r+0x16>
    10c8:	451c                	lw	a5,8(a0)
    10ca:	9002                	ebreak
    10cc:	4d1c                	lw	a5,24(a0)
    10ce:	892e                	mv	s2,a1
    10d0:	e3ad                	bnez	a5,1132 <_puts_r+0x7c>
    10d2:	2325                	jal	15fa <__sinit>
    10d4:	4c9c                	lw	a5,24(s1)
    10d6:	4480                	lw	s0,8(s1)
    10d8:	cfb9                	beqz	a5,1136 <_puts_r+0x80>
    10da:	00001797          	auipc	a5,0x1
    10de:	c1a78793          	addi	a5,a5,-998 # 1cf4 <__sf_fake_stdin>
    10e2:	04f41d63          	bne	s0,a5,113c <_puts_r+0x86>
    10e6:	40c0                	lw	s0,4(s1)
    10e8:	507c                	lw	a5,100(s0)
    10ea:	8b85                	andi	a5,a5,1
    10ec:	e799                	bnez	a5,10fa <_puts_r+0x44>
    10ee:	245e                	lhu	a5,12(s0)
    10f0:	2007f793          	andi	a5,a5,512
    10f4:	e399                	bnez	a5,10fa <_puts_r+0x44>
    10f6:	4c28                	lw	a0,88(s0)
    10f8:	2dad                	jal	1772 <__retarget_lock_acquire_recursive>
    10fa:	245e                	lhu	a5,12(s0)
    10fc:	8ba1                	andi	a5,a5,8
    10fe:	c399                	beqz	a5,1104 <_puts_r+0x4e>
    1100:	481c                	lw	a5,16(s0)
    1102:	e3d5                	bnez	a5,11a6 <_puts_r+0xf0>
    1104:	85a2                	mv	a1,s0
    1106:	8526                	mv	a0,s1
    1108:	2aad                	jal	1282 <__swsetup_r>
    110a:	cd51                	beqz	a0,11a6 <_puts_r+0xf0>
    110c:	54fd                	li	s1,-1
    110e:	507c                	lw	a5,100(s0)
    1110:	8b85                	andi	a5,a5,1
    1112:	e799                	bnez	a5,1120 <_puts_r+0x6a>
    1114:	245e                	lhu	a5,12(s0)
    1116:	2007f793          	andi	a5,a5,512
    111a:	e399                	bnez	a5,1120 <_puts_r+0x6a>
    111c:	4c28                	lw	a0,88(s0)
    111e:	2d99                	jal	1774 <__retarget_lock_release_recursive>
    1120:	40f2                	lw	ra,28(sp)
    1122:	4462                	lw	s0,24(sp)
    1124:	4942                	lw	s2,16(sp)
    1126:	49b2                	lw	s3,12(sp)
    1128:	4a22                	lw	s4,8(sp)
    112a:	8526                	mv	a0,s1
    112c:	44d2                	lw	s1,20(sp)
    112e:	6105                	addi	sp,sp,32
    1130:	8082                	ret
    1132:	4500                	lw	s0,8(a0)
    1134:	b75d                	j	10da <_puts_r+0x24>
    1136:	8526                	mv	a0,s1
    1138:	21c9                	jal	15fa <__sinit>
    113a:	b745                	j	10da <_puts_r+0x24>
    113c:	00001797          	auipc	a5,0x1
    1140:	b9878793          	addi	a5,a5,-1128 # 1cd4 <__sf_fake_stdout>
    1144:	00f41463          	bne	s0,a5,114c <_puts_r+0x96>
    1148:	4480                	lw	s0,8(s1)
    114a:	bf79                	j	10e8 <_puts_r+0x32>
    114c:	00001797          	auipc	a5,0x1
    1150:	b6878793          	addi	a5,a5,-1176 # 1cb4 <__sf_fake_stderr>
    1154:	f8f41ae3          	bne	s0,a5,10e8 <_puts_r+0x32>
    1158:	44c0                	lw	s0,12(s1)
    115a:	b779                	j	10e8 <_puts_r+0x32>
    115c:	c41c                	sw	a5,8(s0)
    115e:	0905                	addi	s2,s2,1
    1160:	0207c863          	bltz	a5,1190 <_puts_r+0xda>
    1164:	401c                	lw	a5,0(s0)
    1166:	00178713          	addi	a4,a5,1
    116a:	c018                	sw	a4,0(s0)
    116c:	a38c                	sb	a1,0(a5)
    116e:	441c                	lw	a5,8(s0)
    1170:	00094583          	lbu	a1,0(s2)
    1174:	17fd                	addi	a5,a5,-1
    1176:	f1fd                	bnez	a1,115c <_puts_r+0xa6>
    1178:	c41c                	sw	a5,8(s0)
    117a:	0207d963          	bgez	a5,11ac <_puts_r+0xf6>
    117e:	8622                	mv	a2,s0
    1180:	45a9                	li	a1,10
    1182:	8526                	mv	a0,s1
    1184:	2089                	jal	11c6 <__swbuf_r>
    1186:	57fd                	li	a5,-1
    1188:	f8f502e3          	beq	a0,a5,110c <_puts_r+0x56>
    118c:	44a9                	li	s1,10
    118e:	b741                	j	110e <_puts_r+0x58>
    1190:	4c18                	lw	a4,24(s0)
    1192:	00e7c463          	blt	a5,a4,119a <_puts_r+0xe4>
    1196:	fd4597e3          	bne	a1,s4,1164 <_puts_r+0xae>
    119a:	8622                	mv	a2,s0
    119c:	8526                	mv	a0,s1
    119e:	2025                	jal	11c6 <__swbuf_r>
    11a0:	fd3517e3          	bne	a0,s3,116e <_puts_r+0xb8>
    11a4:	b7a5                	j	110c <_puts_r+0x56>
    11a6:	59fd                	li	s3,-1
    11a8:	4a29                	li	s4,10
    11aa:	b7d1                	j	116e <_puts_r+0xb8>
    11ac:	401c                	lw	a5,0(s0)
    11ae:	00178713          	addi	a4,a5,1
    11b2:	c018                	sw	a4,0(s0)
    11b4:	4729                	li	a4,10
    11b6:	a398                	sb	a4,0(a5)
    11b8:	bfd1                	j	118c <_puts_r+0xd6>

000011ba <puts>:
puts():
    11ba:	85aa                	mv	a1,a0
    11bc:	20000517          	auipc	a0,0x20000
    11c0:	9a852503          	lw	a0,-1624(a0) # 20000b64 <_impure_ptr>
    11c4:	bdcd                	j	10b6 <_puts_r>

000011c6 <__swbuf_r>:
__swbuf_r():
    11c6:	1101                	addi	sp,sp,-32
    11c8:	cc22                	sw	s0,24(sp)
    11ca:	ca26                	sw	s1,20(sp)
    11cc:	c84a                	sw	s2,16(sp)
    11ce:	ce06                	sw	ra,28(sp)
    11d0:	c64e                	sw	s3,12(sp)
    11d2:	84aa                	mv	s1,a0
    11d4:	892e                	mv	s2,a1
    11d6:	8432                	mv	s0,a2
    11d8:	c501                	beqz	a0,11e0 <__swbuf_r+0x1a>
    11da:	4d1c                	lw	a5,24(a0)
    11dc:	e391                	bnez	a5,11e0 <__swbuf_r+0x1a>
    11de:	2931                	jal	15fa <__sinit>
    11e0:	00001797          	auipc	a5,0x1
    11e4:	b1478793          	addi	a5,a5,-1260 # 1cf4 <__sf_fake_stdin>
    11e8:	02f41763          	bne	s0,a5,1216 <__swbuf_r+0x50>
    11ec:	40c0                	lw	s0,4(s1)
    11ee:	4c1c                	lw	a5,24(s0)
    11f0:	c41c                	sw	a5,8(s0)
    11f2:	245e                	lhu	a5,12(s0)
    11f4:	8ba1                	andi	a5,a5,8
    11f6:	c399                	beqz	a5,11fc <__swbuf_r+0x36>
    11f8:	481c                	lw	a5,16(s0)
    11fa:	ef95                	bnez	a5,1236 <__swbuf_r+0x70>
    11fc:	85a2                	mv	a1,s0
    11fe:	8526                	mv	a0,s1
    1200:	2049                	jal	1282 <__swsetup_r>
    1202:	c915                	beqz	a0,1236 <__swbuf_r+0x70>
    1204:	597d                	li	s2,-1
    1206:	40f2                	lw	ra,28(sp)
    1208:	4462                	lw	s0,24(sp)
    120a:	44d2                	lw	s1,20(sp)
    120c:	49b2                	lw	s3,12(sp)
    120e:	854a                	mv	a0,s2
    1210:	4942                	lw	s2,16(sp)
    1212:	6105                	addi	sp,sp,32
    1214:	8082                	ret
    1216:	00001797          	auipc	a5,0x1
    121a:	abe78793          	addi	a5,a5,-1346 # 1cd4 <__sf_fake_stdout>
    121e:	00f41463          	bne	s0,a5,1226 <__swbuf_r+0x60>
    1222:	4480                	lw	s0,8(s1)
    1224:	b7e9                	j	11ee <__swbuf_r+0x28>
    1226:	00001797          	auipc	a5,0x1
    122a:	a8e78793          	addi	a5,a5,-1394 # 1cb4 <__sf_fake_stderr>
    122e:	fcf410e3          	bne	s0,a5,11ee <__swbuf_r+0x28>
    1232:	44c0                	lw	s0,12(s1)
    1234:	bf6d                	j	11ee <__swbuf_r+0x28>
    1236:	481c                	lw	a5,16(s0)
    1238:	4008                	lw	a0,0(s0)
    123a:	0ff97993          	zext.b	s3,s2
    123e:	0ff97913          	zext.b	s2,s2
    1242:	8d1d                	sub	a0,a0,a5
    1244:	485c                	lw	a5,20(s0)
    1246:	00f54663          	blt	a0,a5,1252 <__swbuf_r+0x8c>
    124a:	85a2                	mv	a1,s0
    124c:	8526                	mv	a0,s1
    124e:	2ca1                	jal	14a6 <_fflush_r>
    1250:	f955                	bnez	a0,1204 <__swbuf_r+0x3e>
    1252:	441c                	lw	a5,8(s0)
    1254:	0505                	addi	a0,a0,1
    1256:	17fd                	addi	a5,a5,-1
    1258:	c41c                	sw	a5,8(s0)
    125a:	401c                	lw	a5,0(s0)
    125c:	00178713          	addi	a4,a5,1
    1260:	c018                	sw	a4,0(s0)
    1262:	01378023          	sb	s3,0(a5)
    1266:	485c                	lw	a5,20(s0)
    1268:	00a78863          	beq	a5,a0,1278 <__swbuf_r+0xb2>
    126c:	245e                	lhu	a5,12(s0)
    126e:	8b85                	andi	a5,a5,1
    1270:	dbd9                	beqz	a5,1206 <__swbuf_r+0x40>
    1272:	47a9                	li	a5,10
    1274:	f8f919e3          	bne	s2,a5,1206 <__swbuf_r+0x40>
    1278:	85a2                	mv	a1,s0
    127a:	8526                	mv	a0,s1
    127c:	242d                	jal	14a6 <_fflush_r>
    127e:	d541                	beqz	a0,1206 <__swbuf_r+0x40>
    1280:	b751                	j	1204 <__swbuf_r+0x3e>

00001282 <__swsetup_r>:
__swsetup_r():
    1282:	1141                	addi	sp,sp,-16
    1284:	c422                	sw	s0,8(sp)
    1286:	c226                	sw	s1,4(sp)
    1288:	c04a                	sw	s2,0(sp)
    128a:	c606                	sw	ra,12(sp)
    128c:	20000497          	auipc	s1,0x20000
    1290:	8d84a483          	lw	s1,-1832(s1) # 20000b64 <_impure_ptr>
    1294:	892a                	mv	s2,a0
    1296:	842e                	mv	s0,a1
    1298:	c489                	beqz	s1,12a2 <__swsetup_r+0x20>
    129a:	4c9c                	lw	a5,24(s1)
    129c:	e399                	bnez	a5,12a2 <__swsetup_r+0x20>
    129e:	8526                	mv	a0,s1
    12a0:	2ea9                	jal	15fa <__sinit>
    12a2:	00001797          	auipc	a5,0x1
    12a6:	a5278793          	addi	a5,a5,-1454 # 1cf4 <__sf_fake_stdin>
    12aa:	02f41363          	bne	s0,a5,12d0 <__swsetup_r+0x4e>
    12ae:	40c0                	lw	s0,4(s1)
    12b0:	00c41783          	lh	a5,12(s0) # 4000200c <_eusrstack+0x1ffff00c>
    12b4:	0087f713          	andi	a4,a5,8
    12b8:	e725                	bnez	a4,1320 <__swsetup_r+0x9e>
    12ba:	0107f713          	andi	a4,a5,16
    12be:	eb0d                	bnez	a4,12f0 <__swsetup_r+0x6e>
    12c0:	4725                	li	a4,9
    12c2:	00e92023          	sw	a4,0(s2)
    12c6:	0407e793          	ori	a5,a5,64
    12ca:	a45e                	sh	a5,12(s0)
    12cc:	557d                	li	a0,-1
    12ce:	a071                	j	135a <__swsetup_r+0xd8>
    12d0:	00001797          	auipc	a5,0x1
    12d4:	a0478793          	addi	a5,a5,-1532 # 1cd4 <__sf_fake_stdout>
    12d8:	00f41463          	bne	s0,a5,12e0 <__swsetup_r+0x5e>
    12dc:	4480                	lw	s0,8(s1)
    12de:	bfc9                	j	12b0 <__swsetup_r+0x2e>
    12e0:	00001797          	auipc	a5,0x1
    12e4:	9d478793          	addi	a5,a5,-1580 # 1cb4 <__sf_fake_stderr>
    12e8:	fcf414e3          	bne	s0,a5,12b0 <__swsetup_r+0x2e>
    12ec:	44c0                	lw	s0,12(s1)
    12ee:	b7c9                	j	12b0 <__swsetup_r+0x2e>
    12f0:	8b91                	andi	a5,a5,4
    12f2:	c39d                	beqz	a5,1318 <__swsetup_r+0x96>
    12f4:	584c                	lw	a1,52(s0)
    12f6:	c989                	beqz	a1,1308 <__swsetup_r+0x86>
    12f8:	04440793          	addi	a5,s0,68
    12fc:	00f58463          	beq	a1,a5,1304 <__swsetup_r+0x82>
    1300:	854a                	mv	a0,s2
    1302:	2bb9                	jal	1860 <_free_r>
    1304:	02042a23          	sw	zero,52(s0)
    1308:	245e                	lhu	a5,12(s0)
    130a:	00042223          	sw	zero,4(s0)
    130e:	fdb7f793          	andi	a5,a5,-37
    1312:	a45e                	sh	a5,12(s0)
    1314:	481c                	lw	a5,16(s0)
    1316:	c01c                	sw	a5,0(s0)
    1318:	245e                	lhu	a5,12(s0)
    131a:	0087e793          	ori	a5,a5,8
    131e:	a45e                	sh	a5,12(s0)
    1320:	481c                	lw	a5,16(s0)
    1322:	eb99                	bnez	a5,1338 <__swsetup_r+0xb6>
    1324:	245e                	lhu	a5,12(s0)
    1326:	20000713          	li	a4,512
    132a:	2807f793          	andi	a5,a5,640
    132e:	00e78563          	beq	a5,a4,1338 <__swsetup_r+0xb6>
    1332:	85a2                	mv	a1,s0
    1334:	854a                	mv	a0,s2
    1336:	2961                	jal	17ce <__smakebuf_r>
    1338:	00c41783          	lh	a5,12(s0)
    133c:	0017f713          	andi	a4,a5,1
    1340:	c31d                	beqz	a4,1366 <__swsetup_r+0xe4>
    1342:	4858                	lw	a4,20(s0)
    1344:	00042423          	sw	zero,8(s0)
    1348:	40e00733          	neg	a4,a4
    134c:	cc18                	sw	a4,24(s0)
    134e:	4818                	lw	a4,16(s0)
    1350:	4501                	li	a0,0
    1352:	e701                	bnez	a4,135a <__swsetup_r+0xd8>
    1354:	0807f713          	andi	a4,a5,128
    1358:	f73d                	bnez	a4,12c6 <__swsetup_r+0x44>
    135a:	40b2                	lw	ra,12(sp)
    135c:	4422                	lw	s0,8(sp)
    135e:	4492                	lw	s1,4(sp)
    1360:	4902                	lw	s2,0(sp)
    1362:	0141                	addi	sp,sp,16
    1364:	8082                	ret
    1366:	0027f713          	andi	a4,a5,2
    136a:	4681                	li	a3,0
    136c:	e311                	bnez	a4,1370 <__swsetup_r+0xee>
    136e:	4854                	lw	a3,20(s0)
    1370:	c414                	sw	a3,8(s0)
    1372:	bff1                	j	134e <__swsetup_r+0xcc>

00001374 <__sflush_r>:
__sflush_r():
    1374:	00c59783          	lh	a5,12(a1)
    1378:	1101                	addi	sp,sp,-32
    137a:	cc22                	sw	s0,24(sp)
    137c:	ca26                	sw	s1,20(sp)
    137e:	ce06                	sw	ra,28(sp)
    1380:	c84a                	sw	s2,16(sp)
    1382:	c64e                	sw	s3,12(sp)
    1384:	0087f713          	andi	a4,a5,8
    1388:	84aa                	mv	s1,a0
    138a:	842e                	mv	s0,a1
    138c:	e379                	bnez	a4,1452 <__sflush_r+0xde>
    138e:	41d8                	lw	a4,4(a1)
    1390:	00e04563          	bgtz	a4,139a <__sflush_r+0x26>
    1394:	41b8                	lw	a4,64(a1)
    1396:	08e05663          	blez	a4,1422 <__sflush_r+0xae>
    139a:	5458                	lw	a4,44(s0)
    139c:	c359                	beqz	a4,1422 <__sflush_r+0xae>
    139e:	0004a903          	lw	s2,0(s1)
    13a2:	0004a023          	sw	zero,0(s1)
    13a6:	500c                	lw	a1,32(s0)
    13a8:	48c7d793          	bexti	a5,a5,0xc
    13ac:	cba9                	beqz	a5,13fe <__sflush_r+0x8a>
    13ae:	4870                	lw	a2,84(s0)
    13b0:	245e                	lhu	a5,12(s0)
    13b2:	8b91                	andi	a5,a5,4
    13b4:	c799                	beqz	a5,13c2 <__sflush_r+0x4e>
    13b6:	405c                	lw	a5,4(s0)
    13b8:	8e1d                	sub	a2,a2,a5
    13ba:	585c                	lw	a5,52(s0)
    13bc:	c399                	beqz	a5,13c2 <__sflush_r+0x4e>
    13be:	403c                	lw	a5,64(s0)
    13c0:	8e1d                	sub	a2,a2,a5
    13c2:	545c                	lw	a5,44(s0)
    13c4:	500c                	lw	a1,32(s0)
    13c6:	4681                	li	a3,0
    13c8:	8526                	mv	a0,s1
    13ca:	9782                	jalr	a5
    13cc:	57fd                	li	a5,-1
    13ce:	04f50c63          	beq	a0,a5,1426 <__sflush_r+0xb2>
    13d2:	481c                	lw	a5,16(s0)
    13d4:	6705                	lui	a4,0x1
    13d6:	00042223          	sw	zero,4(s0)
    13da:	c01c                	sw	a5,0(s0)
    13dc:	245e                	lhu	a5,12(s0)
    13de:	8ff9                	and	a5,a5,a4
    13e0:	c391                	beqz	a5,13e4 <__sflush_r+0x70>
    13e2:	c868                	sw	a0,84(s0)
    13e4:	584c                	lw	a1,52(s0)
    13e6:	0124a023          	sw	s2,0(s1)
    13ea:	cd85                	beqz	a1,1422 <__sflush_r+0xae>
    13ec:	04440793          	addi	a5,s0,68
    13f0:	00f58463          	beq	a1,a5,13f8 <__sflush_r+0x84>
    13f4:	8526                	mv	a0,s1
    13f6:	21ad                	jal	1860 <_free_r>
    13f8:	02042a23          	sw	zero,52(s0)
    13fc:	a01d                	j	1422 <__sflush_r+0xae>
    13fe:	4601                	li	a2,0
    1400:	4685                	li	a3,1
    1402:	8526                	mv	a0,s1
    1404:	9702                	jalr	a4
    1406:	57fd                	li	a5,-1
    1408:	862a                	mv	a2,a0
    140a:	faf513e3          	bne	a0,a5,13b0 <__sflush_r+0x3c>
    140e:	409c                	lw	a5,0(s1)
    1410:	d3c5                	beqz	a5,13b0 <__sflush_r+0x3c>
    1412:	4775                	li	a4,29
    1414:	00e78563          	beq	a5,a4,141e <__sflush_r+0xaa>
    1418:	4759                	li	a4,22
    141a:	06e79563          	bne	a5,a4,1484 <__sflush_r+0x110>
    141e:	0124a023          	sw	s2,0(s1)
    1422:	4501                	li	a0,0
    1424:	a0b5                	j	1490 <__sflush_r+0x11c>
    1426:	4098                	lw	a4,0(s1)
    1428:	00c41783          	lh	a5,12(s0)
    142c:	cf01                	beqz	a4,1444 <__sflush_r+0xd0>
    142e:	46f5                	li	a3,29
    1430:	00d70563          	beq	a4,a3,143a <__sflush_r+0xc6>
    1434:	46d9                	li	a3,22
    1436:	04d71963          	bne	a4,a3,1488 <__sflush_r+0x114>
    143a:	481c                	lw	a5,16(s0)
    143c:	00042223          	sw	zero,4(s0)
    1440:	c01c                	sw	a5,0(s0)
    1442:	b74d                	j	13e4 <__sflush_r+0x70>
    1444:	4818                	lw	a4,16(s0)
    1446:	00042223          	sw	zero,4(s0)
    144a:	48c7d793          	bexti	a5,a5,0xc
    144e:	c018                	sw	a4,0(s0)
    1450:	bf41                	j	13e0 <__sflush_r+0x6c>
    1452:	0105a983          	lw	s3,16(a1)
    1456:	fc0986e3          	beqz	s3,1422 <__sflush_r+0xae>
    145a:	0005a903          	lw	s2,0(a1)
    145e:	8b8d                	andi	a5,a5,3
    1460:	0135a023          	sw	s3,0(a1)
    1464:	41390933          	sub	s2,s2,s3
    1468:	4701                	li	a4,0
    146a:	e391                	bnez	a5,146e <__sflush_r+0xfa>
    146c:	49d8                	lw	a4,20(a1)
    146e:	c418                	sw	a4,8(s0)
    1470:	fb2059e3          	blez	s2,1422 <__sflush_r+0xae>
    1474:	541c                	lw	a5,40(s0)
    1476:	500c                	lw	a1,32(s0)
    1478:	86ca                	mv	a3,s2
    147a:	864e                	mv	a2,s3
    147c:	8526                	mv	a0,s1
    147e:	9782                	jalr	a5
    1480:	00a04f63          	bgtz	a0,149e <__sflush_r+0x12a>
    1484:	00c41783          	lh	a5,12(s0)
    1488:	0407e793          	ori	a5,a5,64
    148c:	a45e                	sh	a5,12(s0)
    148e:	557d                	li	a0,-1
    1490:	40f2                	lw	ra,28(sp)
    1492:	4462                	lw	s0,24(sp)
    1494:	44d2                	lw	s1,20(sp)
    1496:	4942                	lw	s2,16(sp)
    1498:	49b2                	lw	s3,12(sp)
    149a:	6105                	addi	sp,sp,32
    149c:	8082                	ret
    149e:	99aa                	add	s3,s3,a0
    14a0:	40a90933          	sub	s2,s2,a0
    14a4:	b7f1                	j	1470 <__sflush_r+0xfc>

000014a6 <_fflush_r>:
_fflush_r():
    14a6:	499c                	lw	a5,16(a1)
    14a8:	1141                	addi	sp,sp,-16
    14aa:	c606                	sw	ra,12(sp)
    14ac:	c422                	sw	s0,8(sp)
    14ae:	c226                	sw	s1,4(sp)
    14b0:	eb81                	bnez	a5,14c0 <_fflush_r+0x1a>
    14b2:	4481                	li	s1,0
    14b4:	40b2                	lw	ra,12(sp)
    14b6:	4422                	lw	s0,8(sp)
    14b8:	8526                	mv	a0,s1
    14ba:	4492                	lw	s1,4(sp)
    14bc:	0141                	addi	sp,sp,16
    14be:	8082                	ret
    14c0:	84aa                	mv	s1,a0
    14c2:	842e                	mv	s0,a1
    14c4:	c501                	beqz	a0,14cc <_fflush_r+0x26>
    14c6:	4d1c                	lw	a5,24(a0)
    14c8:	e391                	bnez	a5,14cc <_fflush_r+0x26>
    14ca:	2a05                	jal	15fa <__sinit>
    14cc:	00001797          	auipc	a5,0x1
    14d0:	82878793          	addi	a5,a5,-2008 # 1cf4 <__sf_fake_stdin>
    14d4:	02f41c63          	bne	s0,a5,150c <_fflush_r+0x66>
    14d8:	40c0                	lw	s0,4(s1)
    14da:	00c41783          	lh	a5,12(s0)
    14de:	dbf1                	beqz	a5,14b2 <_fflush_r+0xc>
    14e0:	5078                	lw	a4,100(s0)
    14e2:	8b05                	andi	a4,a4,1
    14e4:	e711                	bnez	a4,14f0 <_fflush_r+0x4a>
    14e6:	2007f793          	andi	a5,a5,512
    14ea:	e399                	bnez	a5,14f0 <_fflush_r+0x4a>
    14ec:	4c28                	lw	a0,88(s0)
    14ee:	2451                	jal	1772 <__retarget_lock_acquire_recursive>
    14f0:	8526                	mv	a0,s1
    14f2:	85a2                	mv	a1,s0
    14f4:	3541                	jal	1374 <__sflush_r>
    14f6:	507c                	lw	a5,100(s0)
    14f8:	84aa                	mv	s1,a0
    14fa:	8b85                	andi	a5,a5,1
    14fc:	ffc5                	bnez	a5,14b4 <_fflush_r+0xe>
    14fe:	245e                	lhu	a5,12(s0)
    1500:	2007f793          	andi	a5,a5,512
    1504:	fbc5                	bnez	a5,14b4 <_fflush_r+0xe>
    1506:	4c28                	lw	a0,88(s0)
    1508:	24b5                	jal	1774 <__retarget_lock_release_recursive>
    150a:	b76d                	j	14b4 <_fflush_r+0xe>
    150c:	00000797          	auipc	a5,0x0
    1510:	7c878793          	addi	a5,a5,1992 # 1cd4 <__sf_fake_stdout>
    1514:	00f41463          	bne	s0,a5,151c <_fflush_r+0x76>
    1518:	4480                	lw	s0,8(s1)
    151a:	b7c1                	j	14da <_fflush_r+0x34>
    151c:	00000797          	auipc	a5,0x0
    1520:	79878793          	addi	a5,a5,1944 # 1cb4 <__sf_fake_stderr>
    1524:	faf41be3          	bne	s0,a5,14da <_fflush_r+0x34>
    1528:	44c0                	lw	s0,12(s1)
    152a:	bf45                	j	14da <_fflush_r+0x34>

0000152c <std>:
std():
    152c:	1141                	addi	sp,sp,-16
    152e:	c422                	sw	s0,8(sp)
    1530:	c606                	sw	ra,12(sp)
    1532:	842a                	mv	s0,a0
    1534:	a54e                	sh	a1,12(a0)
    1536:	a572                	sh	a2,14(a0)
    1538:	00052023          	sw	zero,0(a0)
    153c:	00052223          	sw	zero,4(a0)
    1540:	00052423          	sw	zero,8(a0)
    1544:	06052223          	sw	zero,100(a0)
    1548:	00052823          	sw	zero,16(a0)
    154c:	00052a23          	sw	zero,20(a0)
    1550:	00052c23          	sw	zero,24(a0)
    1554:	4621                	li	a2,8
    1556:	4581                	li	a1,0
    1558:	05c50513          	addi	a0,a0,92
    155c:	e56ff0ef          	jal	ra,bb2 <memset>
    1560:	00000797          	auipc	a5,0x0
    1564:	51c78793          	addi	a5,a5,1308 # 1a7c <__sread>
    1568:	d05c                	sw	a5,36(s0)
    156a:	00000797          	auipc	a5,0x0
    156e:	53c78793          	addi	a5,a5,1340 # 1aa6 <__swrite>
    1572:	d41c                	sw	a5,40(s0)
    1574:	00000797          	auipc	a5,0x0
    1578:	57878793          	addi	a5,a5,1400 # 1aec <__sseek>
    157c:	d45c                	sw	a5,44(s0)
    157e:	00000797          	auipc	a5,0x0
    1582:	59c78793          	addi	a5,a5,1436 # 1b1a <__sclose>
    1586:	40b2                	lw	ra,12(sp)
    1588:	d000                	sw	s0,32(s0)
    158a:	d81c                	sw	a5,48(s0)
    158c:	4422                	lw	s0,8(sp)
    158e:	0141                	addi	sp,sp,16
    1590:	8082                	ret

00001592 <_cleanup_r>:
_cleanup_r():
    1592:	00000597          	auipc	a1,0x0
    1596:	f1458593          	addi	a1,a1,-236 # 14a6 <_fflush_r>
    159a:	a2bd                	j	1708 <_fwalk_reent>

0000159c <__sfmoreglue>:
__sfmoreglue():
    159c:	1141                	addi	sp,sp,-16
    159e:	c226                	sw	s1,4(sp)
    15a0:	06800793          	li	a5,104
    15a4:	fff58493          	addi	s1,a1,-1
    15a8:	02f484b3          	mul	s1,s1,a5
    15ac:	c04a                	sw	s2,0(sp)
    15ae:	892e                	mv	s2,a1
    15b0:	c422                	sw	s0,8(sp)
    15b2:	c606                	sw	ra,12(sp)
    15b4:	07448593          	addi	a1,s1,116
    15b8:	2e69                	jal	1952 <_malloc_r>
    15ba:	842a                	mv	s0,a0
    15bc:	cd01                	beqz	a0,15d4 <__sfmoreglue+0x38>
    15be:	00052023          	sw	zero,0(a0)
    15c2:	01252223          	sw	s2,4(a0)
    15c6:	0531                	addi	a0,a0,12
    15c8:	c408                	sw	a0,8(s0)
    15ca:	06848613          	addi	a2,s1,104
    15ce:	4581                	li	a1,0
    15d0:	de2ff0ef          	jal	ra,bb2 <memset>
    15d4:	40b2                	lw	ra,12(sp)
    15d6:	8522                	mv	a0,s0
    15d8:	4422                	lw	s0,8(sp)
    15da:	4492                	lw	s1,4(sp)
    15dc:	4902                	lw	s2,0(sp)
    15de:	0141                	addi	sp,sp,16
    15e0:	8082                	ret

000015e2 <__sfp_lock_acquire>:
__sfp_lock_acquire():
    15e2:	81018513          	addi	a0,gp,-2032 # 20000b70 <__lock___sfp_recursive_mutex>
    15e6:	a271                	j	1772 <__retarget_lock_acquire_recursive>

000015e8 <__sfp_lock_release>:
__sfp_lock_release():
    15e8:	81018513          	addi	a0,gp,-2032 # 20000b70 <__lock___sfp_recursive_mutex>
    15ec:	a261                	j	1774 <__retarget_lock_release_recursive>

000015ee <__sinit_lock_acquire>:
__sinit_lock_acquire():
    15ee:	81418513          	addi	a0,gp,-2028 # 20000b74 <__lock___sinit_recursive_mutex>
    15f2:	a241                	j	1772 <__retarget_lock_acquire_recursive>

000015f4 <__sinit_lock_release>:
__sinit_lock_release():
    15f4:	81418513          	addi	a0,gp,-2028 # 20000b74 <__lock___sinit_recursive_mutex>
    15f8:	aab5                	j	1774 <__retarget_lock_release_recursive>

000015fa <__sinit>:
__sinit():
    15fa:	1141                	addi	sp,sp,-16
    15fc:	c422                	sw	s0,8(sp)
    15fe:	c606                	sw	ra,12(sp)
    1600:	842a                	mv	s0,a0
    1602:	37f5                	jal	15ee <__sinit_lock_acquire>
    1604:	4c1c                	lw	a5,24(s0)
    1606:	c789                	beqz	a5,1610 <__sinit+0x16>
    1608:	4422                	lw	s0,8(sp)
    160a:	40b2                	lw	ra,12(sp)
    160c:	0141                	addi	sp,sp,16
    160e:	b7dd                	j	15f4 <__sinit_lock_release>
    1610:	00000797          	auipc	a5,0x0
    1614:	f8278793          	addi	a5,a5,-126 # 1592 <_cleanup_r>
    1618:	d41c                	sw	a5,40(s0)
    161a:	04042423          	sw	zero,72(s0)
    161e:	04042623          	sw	zero,76(s0)
    1622:	04042823          	sw	zero,80(s0)
    1626:	8081a783          	lw	a5,-2040(gp) # 20000b68 <_global_impure_ptr>
    162a:	00879463          	bne	a5,s0,1632 <__sinit+0x38>
    162e:	4785                	li	a5,1
    1630:	cc1c                	sw	a5,24(s0)
    1632:	8522                	mv	a0,s0
    1634:	203d                	jal	1662 <__sfp>
    1636:	c048                	sw	a0,4(s0)
    1638:	8522                	mv	a0,s0
    163a:	2025                	jal	1662 <__sfp>
    163c:	c408                	sw	a0,8(s0)
    163e:	8522                	mv	a0,s0
    1640:	200d                	jal	1662 <__sfp>
    1642:	c448                	sw	a0,12(s0)
    1644:	4048                	lw	a0,4(s0)
    1646:	4601                	li	a2,0
    1648:	4591                	li	a1,4
    164a:	35cd                	jal	152c <std>
    164c:	4408                	lw	a0,8(s0)
    164e:	4605                	li	a2,1
    1650:	45a5                	li	a1,9
    1652:	3de9                	jal	152c <std>
    1654:	4448                	lw	a0,12(s0)
    1656:	4609                	li	a2,2
    1658:	45c9                	li	a1,18
    165a:	3dc9                	jal	152c <std>
    165c:	4785                	li	a5,1
    165e:	cc1c                	sw	a5,24(s0)
    1660:	b765                	j	1608 <__sinit+0xe>

00001662 <__sfp>:
__sfp():
    1662:	1141                	addi	sp,sp,-16
    1664:	c226                	sw	s1,4(sp)
    1666:	c04a                	sw	s2,0(sp)
    1668:	c606                	sw	ra,12(sp)
    166a:	c422                	sw	s0,8(sp)
    166c:	892a                	mv	s2,a0
    166e:	3f95                	jal	15e2 <__sfp_lock_acquire>
    1670:	8081a483          	lw	s1,-2040(gp) # 20000b68 <_global_impure_ptr>
    1674:	4c9c                	lw	a5,24(s1)
    1676:	e399                	bnez	a5,167c <__sfp+0x1a>
    1678:	8526                	mv	a0,s1
    167a:	3741                	jal	15fa <__sinit>
    167c:	04848493          	addi	s1,s1,72
    1680:	4480                	lw	s0,8(s1)
    1682:	40dc                	lw	a5,4(s1)
    1684:	17fd                	addi	a5,a5,-1
    1686:	0007d663          	bgez	a5,1692 <__sfp+0x30>
    168a:	409c                	lw	a5,0(s1)
    168c:	c3bd                	beqz	a5,16f2 <__sfp+0x90>
    168e:	4084                	lw	s1,0(s1)
    1690:	bfc5                	j	1680 <__sfp+0x1e>
    1692:	00c41703          	lh	a4,12(s0)
    1696:	eb39                	bnez	a4,16ec <__sfp+0x8a>
    1698:	77c1                	lui	a5,0xffff0
    169a:	0785                	addi	a5,a5,1 # ffff0001 <_eusrstack+0xdffed001>
    169c:	c45c                	sw	a5,12(s0)
    169e:	05840513          	addi	a0,s0,88
    16a2:	06042223          	sw	zero,100(s0)
    16a6:	20e9                	jal	1770 <__retarget_lock_init_recursive>
    16a8:	3781                	jal	15e8 <__sfp_lock_release>
    16aa:	4621                	li	a2,8
    16ac:	00042023          	sw	zero,0(s0)
    16b0:	00042423          	sw	zero,8(s0)
    16b4:	00042223          	sw	zero,4(s0)
    16b8:	00042823          	sw	zero,16(s0)
    16bc:	00042a23          	sw	zero,20(s0)
    16c0:	00042c23          	sw	zero,24(s0)
    16c4:	4581                	li	a1,0
    16c6:	05c40513          	addi	a0,s0,92
    16ca:	ce8ff0ef          	jal	ra,bb2 <memset>
    16ce:	02042a23          	sw	zero,52(s0)
    16d2:	02042c23          	sw	zero,56(s0)
    16d6:	04042423          	sw	zero,72(s0)
    16da:	04042623          	sw	zero,76(s0)
    16de:	40b2                	lw	ra,12(sp)
    16e0:	8522                	mv	a0,s0
    16e2:	4422                	lw	s0,8(sp)
    16e4:	4492                	lw	s1,4(sp)
    16e6:	4902                	lw	s2,0(sp)
    16e8:	0141                	addi	sp,sp,16
    16ea:	8082                	ret
    16ec:	06840413          	addi	s0,s0,104
    16f0:	bf51                	j	1684 <__sfp+0x22>
    16f2:	4591                	li	a1,4
    16f4:	854a                	mv	a0,s2
    16f6:	355d                	jal	159c <__sfmoreglue>
    16f8:	c088                	sw	a0,0(s1)
    16fa:	842a                	mv	s0,a0
    16fc:	f949                	bnez	a0,168e <__sfp+0x2c>
    16fe:	35ed                	jal	15e8 <__sfp_lock_release>
    1700:	47b1                	li	a5,12
    1702:	00f92023          	sw	a5,0(s2)
    1706:	bfe1                	j	16de <__sfp+0x7c>

00001708 <_fwalk_reent>:
_fwalk_reent():
    1708:	7179                	addi	sp,sp,-48
    170a:	d422                	sw	s0,40(sp)
    170c:	d04a                	sw	s2,32(sp)
    170e:	ce4e                	sw	s3,28(sp)
    1710:	cc52                	sw	s4,24(sp)
    1712:	c85a                	sw	s6,16(sp)
    1714:	c65e                	sw	s7,12(sp)
    1716:	d606                	sw	ra,44(sp)
    1718:	d226                	sw	s1,36(sp)
    171a:	ca56                	sw	s5,20(sp)
    171c:	892a                	mv	s2,a0
    171e:	8a2e                	mv	s4,a1
    1720:	04850413          	addi	s0,a0,72
    1724:	4981                	li	s3,0
    1726:	4b05                	li	s6,1
    1728:	5bfd                	li	s7,-1
    172a:	4404                	lw	s1,8(s0)
    172c:	00442a83          	lw	s5,4(s0)
    1730:	1afd                	addi	s5,s5,-1 # ffff <_data_lma+0xe2e7>
    1732:	020ad063          	bgez	s5,1752 <_fwalk_reent+0x4a>
    1736:	4000                	lw	s0,0(s0)
    1738:	f86d                	bnez	s0,172a <_fwalk_reent+0x22>
    173a:	50b2                	lw	ra,44(sp)
    173c:	5422                	lw	s0,40(sp)
    173e:	5492                	lw	s1,36(sp)
    1740:	5902                	lw	s2,32(sp)
    1742:	4a62                	lw	s4,24(sp)
    1744:	4ad2                	lw	s5,20(sp)
    1746:	4b42                	lw	s6,16(sp)
    1748:	4bb2                	lw	s7,12(sp)
    174a:	854e                	mv	a0,s3
    174c:	49f2                	lw	s3,28(sp)
    174e:	6145                	addi	sp,sp,48
    1750:	8082                	ret
    1752:	24de                	lhu	a5,12(s1)
    1754:	00fb7b63          	bgeu	s6,a5,176a <_fwalk_reent+0x62>
    1758:	00e49783          	lh	a5,14(s1)
    175c:	01778763          	beq	a5,s7,176a <_fwalk_reent+0x62>
    1760:	85a6                	mv	a1,s1
    1762:	854a                	mv	a0,s2
    1764:	9a02                	jalr	s4
    1766:	00a9e9b3          	or	s3,s3,a0
    176a:	06848493          	addi	s1,s1,104
    176e:	b7c9                	j	1730 <_fwalk_reent+0x28>

00001770 <__retarget_lock_init_recursive>:
__retarget_lock_init_recursive():
    1770:	8082                	ret

00001772 <__retarget_lock_acquire_recursive>:
__retarget_lock_acquire_recursive():
    1772:	8082                	ret

00001774 <__retarget_lock_release_recursive>:
__retarget_lock_release_recursive():
    1774:	8082                	ret

00001776 <__swhatbuf_r>:
__swhatbuf_r():
    1776:	7159                	addi	sp,sp,-112
    1778:	d4a2                	sw	s0,104(sp)
    177a:	842e                	mv	s0,a1
    177c:	00e59583          	lh	a1,14(a1)
    1780:	d2a6                	sw	s1,100(sp)
    1782:	d0ca                	sw	s2,96(sp)
    1784:	d686                	sw	ra,108(sp)
    1786:	84b2                	mv	s1,a2
    1788:	8936                	mv	s2,a3
    178a:	0205d263          	bgez	a1,17ae <__swhatbuf_r+0x38>
    178e:	245e                	lhu	a5,12(s0)
    1790:	0807f793          	andi	a5,a5,128
    1794:	eb8d                	bnez	a5,17c6 <__swhatbuf_r+0x50>
    1796:	40000713          	li	a4,1024
    179a:	50b6                	lw	ra,108(sp)
    179c:	5426                	lw	s0,104(sp)
    179e:	00f92023          	sw	a5,0(s2)
    17a2:	c098                	sw	a4,0(s1)
    17a4:	5906                	lw	s2,96(sp)
    17a6:	5496                	lw	s1,100(sp)
    17a8:	4501                	li	a0,0
    17aa:	6165                	addi	sp,sp,112
    17ac:	8082                	ret
    17ae:	0030                	addi	a2,sp,8
    17b0:	26c9                	jal	1b72 <_fstat_r>
    17b2:	fc054ee3          	bltz	a0,178e <__swhatbuf_r+0x18>
    17b6:	4732                	lw	a4,12(sp)
    17b8:	67bd                	lui	a5,0xf
    17ba:	8ff9                	and	a5,a5,a4
    17bc:	7779                	lui	a4,0xffffe
    17be:	97ba                	add	a5,a5,a4
    17c0:	0017b793          	seqz	a5,a5
    17c4:	bfc9                	j	1796 <__swhatbuf_r+0x20>
    17c6:	4781                	li	a5,0
    17c8:	04000713          	li	a4,64
    17cc:	b7f9                	j	179a <__swhatbuf_r+0x24>

000017ce <__smakebuf_r>:
__smakebuf_r():
    17ce:	25de                	lhu	a5,12(a1)
    17d0:	7179                	addi	sp,sp,-48
    17d2:	d422                	sw	s0,40(sp)
    17d4:	d606                	sw	ra,44(sp)
    17d6:	d226                	sw	s1,36(sp)
    17d8:	d04a                	sw	s2,32(sp)
    17da:	ce4e                	sw	s3,28(sp)
    17dc:	8b89                	andi	a5,a5,2
    17de:	842e                	mv	s0,a1
    17e0:	cf91                	beqz	a5,17fc <__smakebuf_r+0x2e>
    17e2:	04740793          	addi	a5,s0,71
    17e6:	c01c                	sw	a5,0(s0)
    17e8:	c81c                	sw	a5,16(s0)
    17ea:	4785                	li	a5,1
    17ec:	c85c                	sw	a5,20(s0)
    17ee:	50b2                	lw	ra,44(sp)
    17f0:	5422                	lw	s0,40(sp)
    17f2:	5492                	lw	s1,36(sp)
    17f4:	5902                	lw	s2,32(sp)
    17f6:	49f2                	lw	s3,28(sp)
    17f8:	6145                	addi	sp,sp,48
    17fa:	8082                	ret
    17fc:	0074                	addi	a3,sp,12
    17fe:	0030                	addi	a2,sp,8
    1800:	84aa                	mv	s1,a0
    1802:	3f95                	jal	1776 <__swhatbuf_r>
    1804:	49a2                	lw	s3,8(sp)
    1806:	892a                	mv	s2,a0
    1808:	8526                	mv	a0,s1
    180a:	85ce                	mv	a1,s3
    180c:	2299                	jal	1952 <_malloc_r>
    180e:	e919                	bnez	a0,1824 <__smakebuf_r+0x56>
    1810:	00c41783          	lh	a5,12(s0)
    1814:	2007f713          	andi	a4,a5,512
    1818:	fb79                	bnez	a4,17ee <__smakebuf_r+0x20>
    181a:	9bf1                	andi	a5,a5,-4
    181c:	0027e793          	ori	a5,a5,2
    1820:	a45e                	sh	a5,12(s0)
    1822:	b7c1                	j	17e2 <__smakebuf_r+0x14>
    1824:	00000797          	auipc	a5,0x0
    1828:	d6e78793          	addi	a5,a5,-658 # 1592 <_cleanup_r>
    182c:	d49c                	sw	a5,40(s1)
    182e:	245e                	lhu	a5,12(s0)
    1830:	c008                	sw	a0,0(s0)
    1832:	c808                	sw	a0,16(s0)
    1834:	0807e793          	ori	a5,a5,128
    1838:	a45e                	sh	a5,12(s0)
    183a:	47b2                	lw	a5,12(sp)
    183c:	01342a23          	sw	s3,20(s0)
    1840:	cb99                	beqz	a5,1856 <__smakebuf_r+0x88>
    1842:	00e41583          	lh	a1,14(s0)
    1846:	8526                	mv	a0,s1
    1848:	2e89                	jal	1b9a <_isatty_r>
    184a:	c511                	beqz	a0,1856 <__smakebuf_r+0x88>
    184c:	245e                	lhu	a5,12(s0)
    184e:	9bf1                	andi	a5,a5,-4
    1850:	0017e793          	ori	a5,a5,1
    1854:	a45e                	sh	a5,12(s0)
    1856:	245e                	lhu	a5,12(s0)
    1858:	0127e533          	or	a0,a5,s2
    185c:	a44a                	sh	a0,12(s0)
    185e:	bf41                	j	17ee <__smakebuf_r+0x20>

00001860 <_free_r>:
_free_r():
    1860:	cdd1                	beqz	a1,18fc <_free_r+0x9c>
    1862:	ffc5a783          	lw	a5,-4(a1)
    1866:	1101                	addi	sp,sp,-32
    1868:	cc22                	sw	s0,24(sp)
    186a:	ce06                	sw	ra,28(sp)
    186c:	ffc58413          	addi	s0,a1,-4
    1870:	0007d363          	bgez	a5,1876 <_free_r+0x16>
    1874:	943e                	add	s0,s0,a5
    1876:	c62a                	sw	a0,12(sp)
    1878:	2e8d                	jal	1bea <__malloc_lock>
    187a:	81c18713          	addi	a4,gp,-2020 # 20000b7c <__malloc_free_list>
    187e:	431c                	lw	a5,0(a4)
    1880:	4532                	lw	a0,12(sp)
    1882:	eb81                	bnez	a5,1892 <_free_r+0x32>
    1884:	00042223          	sw	zero,4(s0)
    1888:	c300                	sw	s0,0(a4)
    188a:	4462                	lw	s0,24(sp)
    188c:	40f2                	lw	ra,28(sp)
    188e:	6105                	addi	sp,sp,32
    1890:	a685                	j	1bf0 <__malloc_unlock>
    1892:	00f47d63          	bgeu	s0,a5,18ac <_free_r+0x4c>
    1896:	4010                	lw	a2,0(s0)
    1898:	00c406b3          	add	a3,s0,a2
    189c:	00d79663          	bne	a5,a3,18a8 <_free_r+0x48>
    18a0:	4394                	lw	a3,0(a5)
    18a2:	43dc                	lw	a5,4(a5)
    18a4:	96b2                	add	a3,a3,a2
    18a6:	c014                	sw	a3,0(s0)
    18a8:	c05c                	sw	a5,4(s0)
    18aa:	bff9                	j	1888 <_free_r+0x28>
    18ac:	873e                	mv	a4,a5
    18ae:	43dc                	lw	a5,4(a5)
    18b0:	c399                	beqz	a5,18b6 <_free_r+0x56>
    18b2:	fef47de3          	bgeu	s0,a5,18ac <_free_r+0x4c>
    18b6:	4314                	lw	a3,0(a4)
    18b8:	00d70633          	add	a2,a4,a3
    18bc:	00861f63          	bne	a2,s0,18da <_free_r+0x7a>
    18c0:	4010                	lw	a2,0(s0)
    18c2:	96b2                	add	a3,a3,a2
    18c4:	c314                	sw	a3,0(a4)
    18c6:	00d70633          	add	a2,a4,a3
    18ca:	fcc790e3          	bne	a5,a2,188a <_free_r+0x2a>
    18ce:	4390                	lw	a2,0(a5)
    18d0:	43dc                	lw	a5,4(a5)
    18d2:	96b2                	add	a3,a3,a2
    18d4:	c314                	sw	a3,0(a4)
    18d6:	c35c                	sw	a5,4(a4)
    18d8:	bf4d                	j	188a <_free_r+0x2a>
    18da:	00c47563          	bgeu	s0,a2,18e4 <_free_r+0x84>
    18de:	47b1                	li	a5,12
    18e0:	c11c                	sw	a5,0(a0)
    18e2:	b765                	j	188a <_free_r+0x2a>
    18e4:	4010                	lw	a2,0(s0)
    18e6:	00c406b3          	add	a3,s0,a2
    18ea:	00d79663          	bne	a5,a3,18f6 <_free_r+0x96>
    18ee:	4394                	lw	a3,0(a5)
    18f0:	43dc                	lw	a5,4(a5)
    18f2:	96b2                	add	a3,a3,a2
    18f4:	c014                	sw	a3,0(s0)
    18f6:	c05c                	sw	a5,4(s0)
    18f8:	c340                	sw	s0,4(a4)
    18fa:	bf41                	j	188a <_free_r+0x2a>
    18fc:	8082                	ret

000018fe <sbrk_aligned>:
sbrk_aligned():
    18fe:	1141                	addi	sp,sp,-16
    1900:	c04a                	sw	s2,0(sp)
    1902:	81818913          	addi	s2,gp,-2024 # 20000b78 <__malloc_sbrk_start>
    1906:	00092783          	lw	a5,0(s2)
    190a:	c422                	sw	s0,8(sp)
    190c:	c226                	sw	s1,4(sp)
    190e:	c606                	sw	ra,12(sp)
    1910:	84aa                	mv	s1,a0
    1912:	842e                	mv	s0,a1
    1914:	e789                	bnez	a5,191e <sbrk_aligned+0x20>
    1916:	4581                	li	a1,0
    1918:	2a35                	jal	1a54 <_sbrk_r>
    191a:	00a92023          	sw	a0,0(s2)
    191e:	85a2                	mv	a1,s0
    1920:	8526                	mv	a0,s1
    1922:	2a0d                	jal	1a54 <_sbrk_r>
    1924:	597d                	li	s2,-1
    1926:	01251a63          	bne	a0,s2,193a <sbrk_aligned+0x3c>
    192a:	547d                	li	s0,-1
    192c:	40b2                	lw	ra,12(sp)
    192e:	8522                	mv	a0,s0
    1930:	4422                	lw	s0,8(sp)
    1932:	4492                	lw	s1,4(sp)
    1934:	4902                	lw	s2,0(sp)
    1936:	0141                	addi	sp,sp,16
    1938:	8082                	ret
    193a:	00350413          	addi	s0,a0,3
    193e:	9871                	andi	s0,s0,-4
    1940:	fe8506e3          	beq	a0,s0,192c <sbrk_aligned+0x2e>
    1944:	40a405b3          	sub	a1,s0,a0
    1948:	8526                	mv	a0,s1
    194a:	2229                	jal	1a54 <_sbrk_r>
    194c:	ff2510e3          	bne	a0,s2,192c <sbrk_aligned+0x2e>
    1950:	bfe9                	j	192a <sbrk_aligned+0x2c>

00001952 <_malloc_r>:
_malloc_r():
    1952:	1101                	addi	sp,sp,-32
    1954:	ca26                	sw	s1,20(sp)
    1956:	00358493          	addi	s1,a1,3
    195a:	98f1                	andi	s1,s1,-4
    195c:	c84a                	sw	s2,16(sp)
    195e:	04a1                	addi	s1,s1,8
    1960:	47b1                	li	a5,12
    1962:	ce06                	sw	ra,28(sp)
    1964:	cc22                	sw	s0,24(sp)
    1966:	c64e                	sw	s3,12(sp)
    1968:	892a                	mv	s2,a0
    196a:	0af4f4b3          	maxu	s1,s1,a5
    196e:	0004c463          	bltz	s1,1976 <_malloc_r+0x24>
    1972:	00b4fd63          	bgeu	s1,a1,198c <_malloc_r+0x3a>
    1976:	47b1                	li	a5,12
    1978:	00f92023          	sw	a5,0(s2)
    197c:	4501                	li	a0,0
    197e:	40f2                	lw	ra,28(sp)
    1980:	4462                	lw	s0,24(sp)
    1982:	44d2                	lw	s1,20(sp)
    1984:	4942                	lw	s2,16(sp)
    1986:	49b2                	lw	s3,12(sp)
    1988:	6105                	addi	sp,sp,32
    198a:	8082                	ret
    198c:	2cb9                	jal	1bea <__malloc_lock>
    198e:	81c18993          	addi	s3,gp,-2020 # 20000b7c <__malloc_free_list>
    1992:	0009a783          	lw	a5,0(s3)
    1996:	843e                	mv	s0,a5
    1998:	e431                	bnez	s0,19e4 <_malloc_r+0x92>
    199a:	85a6                	mv	a1,s1
    199c:	854a                	mv	a0,s2
    199e:	3785                	jal	18fe <sbrk_aligned>
    19a0:	57fd                	li	a5,-1
    19a2:	842a                	mv	s0,a0
    19a4:	0af51663          	bne	a0,a5,1a50 <_malloc_r+0xfe>
    19a8:	0009a403          	lw	s0,0(s3)
    19ac:	87a2                	mv	a5,s0
    19ae:	ebc1                	bnez	a5,1a3e <_malloc_r+0xec>
    19b0:	00042983          	lw	s3,0(s0)
    19b4:	4581                	li	a1,0
    19b6:	854a                	mv	a0,s2
    19b8:	99a2                	add	s3,s3,s0
    19ba:	2869                	jal	1a54 <_sbrk_r>
    19bc:	08a99463          	bne	s3,a0,1a44 <_malloc_r+0xf2>
    19c0:	401c                	lw	a5,0(s0)
    19c2:	048d                	addi	s1,s1,3
    19c4:	854a                	mv	a0,s2
    19c6:	8c9d                	sub	s1,s1,a5
    19c8:	98f1                	andi	s1,s1,-4
    19ca:	47b1                	li	a5,12
    19cc:	04a1                	addi	s1,s1,8
    19ce:	0af4f4b3          	maxu	s1,s1,a5
    19d2:	85a6                	mv	a1,s1
    19d4:	372d                	jal	18fe <sbrk_aligned>
    19d6:	57fd                	li	a5,-1
    19d8:	06f50663          	beq	a0,a5,1a44 <_malloc_r+0xf2>
    19dc:	401c                	lw	a5,0(s0)
    19de:	97a6                	add	a5,a5,s1
    19e0:	c01c                	sw	a5,0(s0)
    19e2:	a015                	j	1a06 <_malloc_r+0xb4>
    19e4:	4014                	lw	a3,0(s0)
    19e6:	8e85                	sub	a3,a3,s1
    19e8:	0406c863          	bltz	a3,1a38 <_malloc_r+0xe6>
    19ec:	472d                	li	a4,11
    19ee:	02d77d63          	bgeu	a4,a3,1a28 <_malloc_r+0xd6>
    19f2:	c004                	sw	s1,0(s0)
    19f4:	00940733          	add	a4,s0,s1
    19f8:	02879663          	bne	a5,s0,1a24 <_malloc_r+0xd2>
    19fc:	00e9a023          	sw	a4,0(s3)
    1a00:	405c                	lw	a5,4(s0)
    1a02:	c314                	sw	a3,0(a4)
    1a04:	c35c                	sw	a5,4(a4)
    1a06:	854a                	mv	a0,s2
    1a08:	22e5                	jal	1bf0 <__malloc_unlock>
    1a0a:	00b40513          	addi	a0,s0,11
    1a0e:	00440793          	addi	a5,s0,4
    1a12:	9961                	andi	a0,a0,-8
    1a14:	40f50733          	sub	a4,a0,a5
    1a18:	f6f503e3          	beq	a0,a5,197e <_malloc_r+0x2c>
    1a1c:	943a                	add	s0,s0,a4
    1a1e:	8f89                	sub	a5,a5,a0
    1a20:	c01c                	sw	a5,0(s0)
    1a22:	bfb1                	j	197e <_malloc_r+0x2c>
    1a24:	c3d8                	sw	a4,4(a5)
    1a26:	bfe9                	j	1a00 <_malloc_r+0xae>
    1a28:	4058                	lw	a4,4(s0)
    1a2a:	00879563          	bne	a5,s0,1a34 <_malloc_r+0xe2>
    1a2e:	00e9a023          	sw	a4,0(s3)
    1a32:	bfd1                	j	1a06 <_malloc_r+0xb4>
    1a34:	c3d8                	sw	a4,4(a5)
    1a36:	bfc1                	j	1a06 <_malloc_r+0xb4>
    1a38:	87a2                	mv	a5,s0
    1a3a:	4040                	lw	s0,4(s0)
    1a3c:	bfb1                	j	1998 <_malloc_r+0x46>
    1a3e:	843e                	mv	s0,a5
    1a40:	43dc                	lw	a5,4(a5)
    1a42:	b7b5                	j	19ae <_malloc_r+0x5c>
    1a44:	47b1                	li	a5,12
    1a46:	00f92023          	sw	a5,0(s2)
    1a4a:	854a                	mv	a0,s2
    1a4c:	2255                	jal	1bf0 <__malloc_unlock>
    1a4e:	b73d                	j	197c <_malloc_r+0x2a>
    1a50:	c104                	sw	s1,0(a0)
    1a52:	bf55                	j	1a06 <_malloc_r+0xb4>

00001a54 <_sbrk_r>:
_sbrk_r():
    1a54:	1141                	addi	sp,sp,-16
    1a56:	c422                	sw	s0,8(sp)
    1a58:	842a                	mv	s0,a0
    1a5a:	852e                	mv	a0,a1
    1a5c:	8201a023          	sw	zero,-2016(gp) # 20000b80 <errno>
    1a60:	c606                	sw	ra,12(sp)
    1a62:	cf6ff0ef          	jal	ra,f58 <_sbrk>
    1a66:	57fd                	li	a5,-1
    1a68:	00f51663          	bne	a0,a5,1a74 <_sbrk_r+0x20>
    1a6c:	8201a783          	lw	a5,-2016(gp) # 20000b80 <errno>
    1a70:	c391                	beqz	a5,1a74 <_sbrk_r+0x20>
    1a72:	c01c                	sw	a5,0(s0)
    1a74:	40b2                	lw	ra,12(sp)
    1a76:	4422                	lw	s0,8(sp)
    1a78:	0141                	addi	sp,sp,16
    1a7a:	8082                	ret

00001a7c <__sread>:
__sread():
    1a7c:	1141                	addi	sp,sp,-16
    1a7e:	c422                	sw	s0,8(sp)
    1a80:	842e                	mv	s0,a1
    1a82:	00e59583          	lh	a1,14(a1)
    1a86:	c606                	sw	ra,12(sp)
    1a88:	22bd                	jal	1bf6 <_read_r>
    1a8a:	00054963          	bltz	a0,1a9c <__sread+0x20>
    1a8e:	487c                	lw	a5,84(s0)
    1a90:	97aa                	add	a5,a5,a0
    1a92:	c87c                	sw	a5,84(s0)
    1a94:	40b2                	lw	ra,12(sp)
    1a96:	4422                	lw	s0,8(sp)
    1a98:	0141                	addi	sp,sp,16
    1a9a:	8082                	ret
    1a9c:	245e                	lhu	a5,12(s0)
    1a9e:	48c79793          	bclri	a5,a5,0xc
    1aa2:	a45e                	sh	a5,12(s0)
    1aa4:	bfc5                	j	1a94 <__sread+0x18>

00001aa6 <__swrite>:
__swrite():
    1aa6:	25de                	lhu	a5,12(a1)
    1aa8:	1101                	addi	sp,sp,-32
    1aaa:	cc22                	sw	s0,24(sp)
    1aac:	ca26                	sw	s1,20(sp)
    1aae:	c84a                	sw	s2,16(sp)
    1ab0:	c64e                	sw	s3,12(sp)
    1ab2:	ce06                	sw	ra,28(sp)
    1ab4:	1007f793          	andi	a5,a5,256
    1ab8:	84aa                	mv	s1,a0
    1aba:	842e                	mv	s0,a1
    1abc:	8932                	mv	s2,a2
    1abe:	89b6                	mv	s3,a3
    1ac0:	c791                	beqz	a5,1acc <__swrite+0x26>
    1ac2:	00e59583          	lh	a1,14(a1)
    1ac6:	4689                	li	a3,2
    1ac8:	4601                	li	a2,0
    1aca:	28dd                	jal	1bc0 <_lseek_r>
    1acc:	245e                	lhu	a5,12(s0)
    1ace:	00e41583          	lh	a1,14(s0)
    1ad2:	40f2                	lw	ra,28(sp)
    1ad4:	48c79793          	bclri	a5,a5,0xc
    1ad8:	a45e                	sh	a5,12(s0)
    1ada:	4462                	lw	s0,24(sp)
    1adc:	86ce                	mv	a3,s3
    1ade:	864a                	mv	a2,s2
    1ae0:	49b2                	lw	s3,12(sp)
    1ae2:	4942                	lw	s2,16(sp)
    1ae4:	8526                	mv	a0,s1
    1ae6:	44d2                	lw	s1,20(sp)
    1ae8:	6105                	addi	sp,sp,32
    1aea:	a81d                	j	1b20 <_write_r>

00001aec <__sseek>:
__sseek():
    1aec:	1141                	addi	sp,sp,-16
    1aee:	c422                	sw	s0,8(sp)
    1af0:	842e                	mv	s0,a1
    1af2:	00e59583          	lh	a1,14(a1)
    1af6:	c606                	sw	ra,12(sp)
    1af8:	20e1                	jal	1bc0 <_lseek_r>
    1afa:	577d                	li	a4,-1
    1afc:	245e                	lhu	a5,12(s0)
    1afe:	00e51963          	bne	a0,a4,1b10 <__sseek+0x24>
    1b02:	48c79793          	bclri	a5,a5,0xc
    1b06:	a45e                	sh	a5,12(s0)
    1b08:	40b2                	lw	ra,12(sp)
    1b0a:	4422                	lw	s0,8(sp)
    1b0c:	0141                	addi	sp,sp,16
    1b0e:	8082                	ret
    1b10:	28c79793          	bseti	a5,a5,0xc
    1b14:	c868                	sw	a0,84(s0)
    1b16:	a45e                	sh	a5,12(s0)
    1b18:	bfc5                	j	1b08 <__sseek+0x1c>

00001b1a <__sclose>:
__sclose():
    1b1a:	00e59583          	lh	a1,14(a1)
    1b1e:	a03d                	j	1b4c <_close_r>

00001b20 <_write_r>:
_write_r():
    1b20:	1141                	addi	sp,sp,-16
    1b22:	c422                	sw	s0,8(sp)
    1b24:	842a                	mv	s0,a0
    1b26:	852e                	mv	a0,a1
    1b28:	85b2                	mv	a1,a2
    1b2a:	8636                	mv	a2,a3
    1b2c:	8201a023          	sw	zero,-2016(gp) # 20000b80 <errno>
    1b30:	c606                	sw	ra,12(sp)
    1b32:	c00ff0ef          	jal	ra,f32 <_write>
    1b36:	57fd                	li	a5,-1
    1b38:	00f51663          	bne	a0,a5,1b44 <_write_r+0x24>
    1b3c:	8201a783          	lw	a5,-2016(gp) # 20000b80 <errno>
    1b40:	c391                	beqz	a5,1b44 <_write_r+0x24>
    1b42:	c01c                	sw	a5,0(s0)
    1b44:	40b2                	lw	ra,12(sp)
    1b46:	4422                	lw	s0,8(sp)
    1b48:	0141                	addi	sp,sp,16
    1b4a:	8082                	ret

00001b4c <_close_r>:
_close_r():
    1b4c:	1141                	addi	sp,sp,-16
    1b4e:	c422                	sw	s0,8(sp)
    1b50:	842a                	mv	s0,a0
    1b52:	852e                	mv	a0,a1
    1b54:	8201a023          	sw	zero,-2016(gp) # 20000b80 <errno>
    1b58:	c606                	sw	ra,12(sp)
    1b5a:	20d9                	jal	1c20 <_close>
    1b5c:	57fd                	li	a5,-1
    1b5e:	00f51663          	bne	a0,a5,1b6a <_close_r+0x1e>
    1b62:	8201a783          	lw	a5,-2016(gp) # 20000b80 <errno>
    1b66:	c391                	beqz	a5,1b6a <_close_r+0x1e>
    1b68:	c01c                	sw	a5,0(s0)
    1b6a:	40b2                	lw	ra,12(sp)
    1b6c:	4422                	lw	s0,8(sp)
    1b6e:	0141                	addi	sp,sp,16
    1b70:	8082                	ret

00001b72 <_fstat_r>:
_fstat_r():
    1b72:	1141                	addi	sp,sp,-16
    1b74:	c422                	sw	s0,8(sp)
    1b76:	842a                	mv	s0,a0
    1b78:	852e                	mv	a0,a1
    1b7a:	85b2                	mv	a1,a2
    1b7c:	8201a023          	sw	zero,-2016(gp) # 20000b80 <errno>
    1b80:	c606                	sw	ra,12(sp)
    1b82:	206d                	jal	1c2c <_fstat>
    1b84:	57fd                	li	a5,-1
    1b86:	00f51663          	bne	a0,a5,1b92 <_fstat_r+0x20>
    1b8a:	8201a783          	lw	a5,-2016(gp) # 20000b80 <errno>
    1b8e:	c391                	beqz	a5,1b92 <_fstat_r+0x20>
    1b90:	c01c                	sw	a5,0(s0)
    1b92:	40b2                	lw	ra,12(sp)
    1b94:	4422                	lw	s0,8(sp)
    1b96:	0141                	addi	sp,sp,16
    1b98:	8082                	ret

00001b9a <_isatty_r>:
_isatty_r():
    1b9a:	1141                	addi	sp,sp,-16
    1b9c:	c422                	sw	s0,8(sp)
    1b9e:	842a                	mv	s0,a0
    1ba0:	852e                	mv	a0,a1
    1ba2:	8201a023          	sw	zero,-2016(gp) # 20000b80 <errno>
    1ba6:	c606                	sw	ra,12(sp)
    1ba8:	2841                	jal	1c38 <_isatty>
    1baa:	57fd                	li	a5,-1
    1bac:	00f51663          	bne	a0,a5,1bb8 <_isatty_r+0x1e>
    1bb0:	8201a783          	lw	a5,-2016(gp) # 20000b80 <errno>
    1bb4:	c391                	beqz	a5,1bb8 <_isatty_r+0x1e>
    1bb6:	c01c                	sw	a5,0(s0)
    1bb8:	40b2                	lw	ra,12(sp)
    1bba:	4422                	lw	s0,8(sp)
    1bbc:	0141                	addi	sp,sp,16
    1bbe:	8082                	ret

00001bc0 <_lseek_r>:
_lseek_r():
    1bc0:	1141                	addi	sp,sp,-16
    1bc2:	c422                	sw	s0,8(sp)
    1bc4:	842a                	mv	s0,a0
    1bc6:	852e                	mv	a0,a1
    1bc8:	85b2                	mv	a1,a2
    1bca:	8636                	mv	a2,a3
    1bcc:	8201a023          	sw	zero,-2016(gp) # 20000b80 <errno>
    1bd0:	c606                	sw	ra,12(sp)
    1bd2:	288d                	jal	1c44 <_lseek>
    1bd4:	57fd                	li	a5,-1
    1bd6:	00f51663          	bne	a0,a5,1be2 <_lseek_r+0x22>
    1bda:	8201a783          	lw	a5,-2016(gp) # 20000b80 <errno>
    1bde:	c391                	beqz	a5,1be2 <_lseek_r+0x22>
    1be0:	c01c                	sw	a5,0(s0)
    1be2:	40b2                	lw	ra,12(sp)
    1be4:	4422                	lw	s0,8(sp)
    1be6:	0141                	addi	sp,sp,16
    1be8:	8082                	ret

00001bea <__malloc_lock>:
__malloc_lock():
    1bea:	80c18513          	addi	a0,gp,-2036 # 20000b6c <__lock___malloc_recursive_mutex>
    1bee:	b651                	j	1772 <__retarget_lock_acquire_recursive>

00001bf0 <__malloc_unlock>:
__malloc_unlock():
    1bf0:	80c18513          	addi	a0,gp,-2036 # 20000b6c <__lock___malloc_recursive_mutex>
    1bf4:	b641                	j	1774 <__retarget_lock_release_recursive>

00001bf6 <_read_r>:
_read_r():
    1bf6:	1141                	addi	sp,sp,-16
    1bf8:	c422                	sw	s0,8(sp)
    1bfa:	842a                	mv	s0,a0
    1bfc:	852e                	mv	a0,a1
    1bfe:	85b2                	mv	a1,a2
    1c00:	8636                	mv	a2,a3
    1c02:	8201a023          	sw	zero,-2016(gp) # 20000b80 <errno>
    1c06:	c606                	sw	ra,12(sp)
    1c08:	20a1                	jal	1c50 <_read>
    1c0a:	57fd                	li	a5,-1
    1c0c:	00f51663          	bne	a0,a5,1c18 <_read_r+0x22>
    1c10:	8201a783          	lw	a5,-2016(gp) # 20000b80 <errno>
    1c14:	c391                	beqz	a5,1c18 <_read_r+0x22>
    1c16:	c01c                	sw	a5,0(s0)
    1c18:	40b2                	lw	ra,12(sp)
    1c1a:	4422                	lw	s0,8(sp)
    1c1c:	0141                	addi	sp,sp,16
    1c1e:	8082                	ret

00001c20 <_close>:
_close():
    1c20:	05800793          	li	a5,88
    1c24:	82f1a023          	sw	a5,-2016(gp) # 20000b80 <errno>
    1c28:	557d                	li	a0,-1
    1c2a:	8082                	ret

00001c2c <_fstat>:
_fstat():
    1c2c:	05800793          	li	a5,88
    1c30:	82f1a023          	sw	a5,-2016(gp) # 20000b80 <errno>
    1c34:	557d                	li	a0,-1
    1c36:	8082                	ret

00001c38 <_isatty>:
_isatty():
    1c38:	05800793          	li	a5,88
    1c3c:	82f1a023          	sw	a5,-2016(gp) # 20000b80 <errno>
    1c40:	4501                	li	a0,0
    1c42:	8082                	ret

00001c44 <_lseek>:
_lseek():
    1c44:	05800793          	li	a5,88
    1c48:	82f1a023          	sw	a5,-2016(gp) # 20000b80 <errno>
    1c4c:	557d                	li	a0,-1
    1c4e:	8082                	ret

00001c50 <_read>:
_read():
    1c50:	05800793          	li	a5,88
    1c54:	82f1a023          	sw	a5,-2016(gp) # 20000b80 <errno>
    1c58:	557d                	li	a0,-1
    1c5a:	8082                	ret
    1c5c:	4449                	li	s0,18
    1c5e:	454c                	lw	a1,12(a0)
    1c60:	6d20                	.2byte	0x6d20
    1c62:	2065646f          	jal	s0,57e68 <_data_lma+0x56150>
    1c66:	65656c73          	csrrsi	s8,0x656,10
    1c6a:	2070                	lbu	a2,6(s0)
    1c6c:	0000                	unimp
    1c6e:	0000                	unimp
    1c70:	6148                	.2byte	0x6148
    1c72:	746c                	.2byte	0x746c
    1c74:	6d20                	.2byte	0x6d20
    1c76:	2065646f          	jal	s0,57e7c <_data_lma+0x56164>
    1c7a:	65656c73          	csrrsi	s8,0x656,10
    1c7e:	2070                	lbu	a2,6(s0)
    1c80:	0000                	unimp
    1c82:	0000                	unimp
    1c84:	65656c73          	csrrsi	s8,0x656,10
    1c88:	2070                	lbu	a2,6(s0)
    1c8a:	6f6d                	lui	t5,0x1b
    1c8c:	6564                	.2byte	0x6564
    1c8e:	7320                	.2byte	0x7320
    1c90:	656c                	.2byte	0x656c
    1c92:	7065                	c.lui	zero,0xffff9
    1c94:	0020                	addi	s0,sp,8
    1c96:	0000                	unimp
    1c98:	656b6177          	.4byte	0x656b6177
    1c9c:	2e2e                	lhu	a1,26(a2)
    1c9e:	0020                	addi	s0,sp,8
    1ca0:	f0d6                	.2byte	0xf0d6
    1ca2:	ffff                	.2byte	0xffff
    1ca4:	f0ee                	.2byte	0xf0ee
    1ca6:	ffff                	.2byte	0xffff
    1ca8:	f112                	.2byte	0xf112
    1caa:	ffff                	.2byte	0xffff
    1cac:	f11c                	.2byte	0xf11c
    1cae:	ffff                	.2byte	0xffff
    1cb0:	f132                	.2byte	0xf132
    1cb2:	ffff                	.2byte	0xffff

00001cb4 <__sf_fake_stderr>:
	...

00001cd4 <__sf_fake_stdout>:
	...

00001cf4 <__sf_fake_stdin>:
	...

Disassembly of section .vector_handler:

00001d14 <BB_IRQHandler>:
ENDOCE_IRQHandler():
c:/Users/seanw/Documents/Data D/CP4101/CH572EVT/EVT/EXAM/SRC/Startup/startup_CH572.S:111
	j 1b
    1d14:	a001                	j	1d14 <BB_IRQHandler>
